
/Volumes/Tray/projects/picoarc/firmware/build-arm/picoarc.elf:     file format elf32-littlearm

Sections:
Idx Name          Size      VMA       LMA       File off  Algn
  0 .boot2        00000100  10000000  10000000  00001000  2**0
                  CONTENTS, ALLOC, LOAD, READONLY, CODE
  1 .text         0000a464  10000100  10000100  00001100  2**3
                  CONTENTS, ALLOC, LOAD, READONLY, CODE
  2 .rodata       000012c0  1000a568  1000a568  0000b568  2**3
                  CONTENTS, ALLOC, LOAD, READONLY, DATA
  3 .binary_info  00000020  1000b828  1000b828  0000c828  2**2
                  CONTENTS, ALLOC, LOAD, READONLY, DATA
  4 .ram_vector_table 000000c0  20000000  20000000  0000f000  2**2
                  ALLOC
  5 .uninitialized_data 00000000  200000c0  200000c0  0000e078  2**0
                  CONTENTS
  6 .data         00000fb8  200000c0  1000b848  0000d0c0  2**4
                  CONTENTS, ALLOC, LOAD, READONLY, CODE
  7 .tdata        00000000  20001078  20001078  0000e078  2**0
                  CONTENTS, ALLOC, LOAD, DATA, THREAD_LOCAL
  8 .tbss         00000000  20001078  20001078  00000000  2**0
                  ALLOC, THREAD_LOCAL
  9 .bss          0000e004  20001078  1000c800  0000e078  2**3
                  ALLOC
 10 .heap         00000800  2000f07c  1000c800  0000e07c  2**2
                  ALLOC, READONLY
 11 .scratch_x    00000000  20040000  20040000  0000e078  2**0
                  CONTENTS
 12 .scratch_y    00000000  20041000  20041000  0000e078  2**0
                  CONTENTS
 13 .stack1_dummy 00000800  20040000  20040000  0000f000  2**2
                  ALLOC
 14 .stack_dummy  00000800  20041000  20041000  0000f000  2**5
                  ALLOC, READONLY
 15 .ARM.attributes 00000028  00000000  00000000  0000e078  2**0
                  CONTENTS, READONLY
 16 .comment      00000045  00000000  00000000  0000e0a0  2**0
                  CONTENTS, READONLY
 17 .debug_info   000430fa  00000000  00000000  0000e0e5  2**0
                  CONTENTS, READONLY, DEBUGGING, OCTETS
 18 .debug_abbrev 0000aeb6  00000000  00000000  000511df  2**0
                  CONTENTS, READONLY, DEBUGGING, OCTETS
 19 .debug_loclists 000257db  00000000  00000000  0005c095  2**0
                  CONTENTS, READONLY, DEBUGGING, OCTETS
 20 .debug_aranges 00001a60  00000000  00000000  00081870  2**3
                  CONTENTS, READONLY, DEBUGGING, OCTETS
 21 .debug_rnglists 00006aba  00000000  00000000  000832d0  2**0
                  CONTENTS, READONLY, DEBUGGING, OCTETS
 22 .debug_line   00030c11  00000000  00000000  00089d8a  2**0
                  CONTENTS, READONLY, DEBUGGING, OCTETS
 23 .debug_str    0000c3e9  00000000  00000000  000ba99b  2**0
                  CONTENTS, READONLY, DEBUGGING, OCTETS
 24 .debug_frame  000039f0  00000000  00000000  000c6d84  2**2
                  CONTENTS, READONLY, DEBUGGING, OCTETS
 25 .debug_line_str 0000037a  00000000  00000000  000ca774  2**0
                  CONTENTS, READONLY, DEBUGGING, OCTETS

/Volumes/Tray/projects/picoarc/firmware/build-arm/picoarc.elf:     file format elf32-littlearm


Disassembly of section .boot2:

10000000 <__boot2_start__>:
10000000:	4b32b500 	.word	0x4b32b500
10000004:	60582021 	.word	0x60582021
10000008:	21026898 	.word	0x21026898
1000000c:	60984388 	.word	0x60984388
10000010:	611860d8 	.word	0x611860d8
10000014:	4b2e6158 	.word	0x4b2e6158
10000018:	60992100 	.word	0x60992100
1000001c:	61592102 	.word	0x61592102
10000020:	22f02101 	.word	0x22f02101
10000024:	492b5099 	.word	0x492b5099
10000028:	21016019 	.word	0x21016019
1000002c:	20356099 	.word	0x20356099
10000030:	f844f000 	.word	0xf844f000
10000034:	42902202 	.word	0x42902202
10000038:	2106d014 	.word	0x2106d014
1000003c:	f0006619 	.word	0xf0006619
10000040:	6e19f834 	.word	0x6e19f834
10000044:	66192101 	.word	0x66192101
10000048:	66182000 	.word	0x66182000
1000004c:	f000661a 	.word	0xf000661a
10000050:	6e19f82c 	.word	0x6e19f82c
10000054:	6e196e19 	.word	0x6e196e19
10000058:	f0002005 	.word	0xf0002005
1000005c:	2101f82f 	.word	0x2101f82f
10000060:	d1f94208 	.word	0xd1f94208
10000064:	60992100 	.word	0x60992100
10000068:	6019491b 	.word	0x6019491b
1000006c:	60592100 	.word	0x60592100
10000070:	481b491a 	.word	0x481b491a
10000074:	21016001 	.word	0x21016001
10000078:	21eb6099 	.word	0x21eb6099
1000007c:	21a06619 	.word	0x21a06619
10000080:	f0006619 	.word	0xf0006619
10000084:	2100f812 	.word	0x2100f812
10000088:	49166099 	.word	0x49166099
1000008c:	60014814 	.word	0x60014814
10000090:	60992101 	.word	0x60992101
10000094:	2800bc01 	.word	0x2800bc01
10000098:	4700d000 	.word	0x4700d000
1000009c:	49134812 	.word	0x49134812
100000a0:	c8036008 	.word	0xc8036008
100000a4:	8808f380 	.word	0x8808f380
100000a8:	b5034708 	.word	0xb5034708
100000ac:	20046a99 	.word	0x20046a99
100000b0:	d0fb4201 	.word	0xd0fb4201
100000b4:	42012001 	.word	0x42012001
100000b8:	bd03d1f8 	.word	0xbd03d1f8
100000bc:	6618b502 	.word	0x6618b502
100000c0:	f7ff6618 	.word	0xf7ff6618
100000c4:	6e18fff2 	.word	0x6e18fff2
100000c8:	bd026e18 	.word	0xbd026e18
100000cc:	40020000 	.word	0x40020000
100000d0:	18000000 	.word	0x18000000
100000d4:	00070000 	.word	0x00070000
100000d8:	005f0300 	.word	0x005f0300
100000dc:	00002221 	.word	0x00002221
100000e0:	180000f4 	.word	0x180000f4
100000e4:	a0002022 	.word	0xa0002022
100000e8:	10000100 	.word	0x10000100
100000ec:	e000ed08 	.word	0xe000ed08
	...
100000fc:	7a4eb274 	.word	0x7a4eb274

Disassembly of section .text:

10000100 <__VECTOR_TABLE>:
10000100:	20042000 	.word	0x20042000
10000104:	100001f7 	.word	0x100001f7
10000108:	100001cb 	.word	0x100001cb
1000010c:	100001cd 	.word	0x100001cd
10000110:	100001c9 	.word	0x100001c9
10000114:	100001c9 	.word	0x100001c9
10000118:	100001c9 	.word	0x100001c9
1000011c:	100001c9 	.word	0x100001c9
10000120:	100001c9 	.word	0x100001c9
10000124:	100001c9 	.word	0x100001c9
10000128:	100001c9 	.word	0x100001c9
1000012c:	100001cf 	.word	0x100001cf
10000130:	100001c9 	.word	0x100001c9
10000134:	100001c9 	.word	0x100001c9
10000138:	100001d1 	.word	0x100001d1
1000013c:	100001d3 	.word	0x100001d3
10000140:	100001c1 	.word	0x100001c1
10000144:	100001c1 	.word	0x100001c1
10000148:	100001c1 	.word	0x100001c1
1000014c:	100001c1 	.word	0x100001c1
10000150:	100001c1 	.word	0x100001c1
10000154:	100001c1 	.word	0x100001c1
10000158:	100001c1 	.word	0x100001c1
1000015c:	100001c1 	.word	0x100001c1
10000160:	100001c1 	.word	0x100001c1
10000164:	100001c1 	.word	0x100001c1
10000168:	100001c1 	.word	0x100001c1
1000016c:	100001c1 	.word	0x100001c1
10000170:	100001c1 	.word	0x100001c1
10000174:	100001c1 	.word	0x100001c1
10000178:	100001c1 	.word	0x100001c1
1000017c:	100001c1 	.word	0x100001c1
10000180:	100001c1 	.word	0x100001c1
10000184:	100001c1 	.word	0x100001c1
10000188:	100001c1 	.word	0x100001c1
1000018c:	100001c1 	.word	0x100001c1
10000190:	100001c1 	.word	0x100001c1
10000194:	100001c1 	.word	0x100001c1
10000198:	100001c1 	.word	0x100001c1
1000019c:	100001c1 	.word	0x100001c1
100001a0:	100001c1 	.word	0x100001c1
100001a4:	100001c1 	.word	0x100001c1
100001a8:	100001c1 	.word	0x100001c1
100001ac:	100001c1 	.word	0x100001c1
100001b0:	100001c1 	.word	0x100001c1
100001b4:	100001c1 	.word	0x100001c1
100001b8:	100001c1 	.word	0x100001c1
100001bc:	100001c1 	.word	0x100001c1

100001c0 <__unhandled_user_irq>:
100001c0:	f3ef 8005 	mrs	r0, IPSR
100001c4:	3810      	subs	r0, #16

100001c6 <unhandled_user_irq_num_in_r0>:
100001c6:	be00      	bkpt	0x0000

100001c8 <isr_invalid>:
100001c8:	be00      	bkpt	0x0000

100001ca <isr_nmi>:
100001ca:	be00      	bkpt	0x0000

100001cc <isr_hardfault>:
100001cc:	be00      	bkpt	0x0000

100001ce <isr_svcall>:
100001ce:	be00      	bkpt	0x0000

100001d0 <isr_pendsv>:
100001d0:	be00      	bkpt	0x0000

100001d2 <isr_systick>:
100001d2:	be00      	bkpt	0x0000

100001d4 <__default_isrs_end>:
100001d4:	7188ebf2 	.word	0x7188ebf2
100001d8:	1000b828 	.word	0x1000b828
100001dc:	1000b848 	.word	0x1000b848
100001e0:	10000238 	.word	0x10000238
100001e4:	e71aa390 	.word	0xe71aa390

100001e8 <_entry_point>:
100001e8:	481e      	ldr	r0, [pc, #120]	@ (10000264 <data_cpy_table+0x2c>)

100001ea <_enter_vtable_in_r0>:
100001ea:	491f      	ldr	r1, [pc, #124]	@ (10000268 <data_cpy_table+0x30>)
100001ec:	6008      	str	r0, [r1, #0]
100001ee:	c806      	ldmia	r0!, {r1, r2}
100001f0:	f381 8808 	msr	MSP, r1
100001f4:	4710      	bx	r2

100001f6 <_reset_handler>:
100001f6:	481d      	ldr	r0, [pc, #116]	@ (1000026c <data_cpy_table+0x34>)
100001f8:	6800      	ldr	r0, [r0, #0]
100001fa:	2800      	cmp	r0, #0
100001fc:	d001      	beq.n	10000202 <hold_non_core0_in_bootrom+0x4>

100001fe <hold_non_core0_in_bootrom>:
100001fe:	4819      	ldr	r0, [pc, #100]	@ (10000264 <data_cpy_table+0x2c>)
10000200:	e7f3      	b.n	100001ea <_enter_vtable_in_r0>
10000202:	a40d      	add	r4, pc, #52	@ (adr r4, 10000238 <data_cpy_table>)
10000204:	cc0e      	ldmia	r4!, {r1, r2, r3}
10000206:	2900      	cmp	r1, #0
10000208:	d002      	beq.n	10000210 <hold_non_core0_in_bootrom+0x12>
1000020a:	f000 f812 	bl	10000232 <data_cpy>
1000020e:	e7f9      	b.n	10000204 <hold_non_core0_in_bootrom+0x6>
10000210:	4917      	ldr	r1, [pc, #92]	@ (10000270 <data_cpy_table+0x38>)
10000212:	4a18      	ldr	r2, [pc, #96]	@ (10000274 <data_cpy_table+0x3c>)
10000214:	2000      	movs	r0, #0
10000216:	e000      	b.n	1000021a <bss_fill_test>

10000218 <bss_fill_loop>:
10000218:	c101      	stmia	r1!, {r0}

1000021a <bss_fill_test>:
1000021a:	4291      	cmp	r1, r2
1000021c:	d1fc      	bne.n	10000218 <bss_fill_loop>

1000021e <platform_entry>:
1000021e:	4916      	ldr	r1, [pc, #88]	@ (10000278 <data_cpy_table+0x40>)
10000220:	4788      	blx	r1
10000222:	4916      	ldr	r1, [pc, #88]	@ (1000027c <data_cpy_table+0x44>)
10000224:	4788      	blx	r1
10000226:	4916      	ldr	r1, [pc, #88]	@ (10000280 <data_cpy_table+0x48>)
10000228:	4788      	blx	r1
1000022a:	be00      	bkpt	0x0000
1000022c:	e7fd      	b.n	1000022a <platform_entry+0xc>

1000022e <data_cpy_loop>:
1000022e:	c901      	ldmia	r1!, {r0}
10000230:	c201      	stmia	r2!, {r0}

10000232 <data_cpy>:
10000232:	429a      	cmp	r2, r3
10000234:	d3fb      	bcc.n	1000022e <data_cpy_loop>
10000236:	4770      	bx	lr

10000238 <data_cpy_table>:
10000238:	1000b848 	.word	0x1000b848
1000023c:	200000c0 	.word	0x200000c0
10000240:	20001078 	.word	0x20001078
10000244:	1000c800 	.word	0x1000c800
10000248:	20040000 	.word	0x20040000
1000024c:	20040000 	.word	0x20040000
10000250:	1000c800 	.word	0x1000c800
10000254:	20041000 	.word	0x20041000
10000258:	20041000 	.word	0x20041000
1000025c:	00000000 	.word	0x00000000
10000260:	4770      	bx	lr
10000262:	0000      	.short	0x0000
10000264:	00000000 	.word	0x00000000
10000268:	e000ed08 	.word	0xe000ed08
1000026c:	d0000000 	.word	0xd0000000
10000270:	20001078 	.word	0x20001078
10000274:	2000f07c 	.word	0x2000f07c
10000278:	10006d91 	.word	0x10006d91
1000027c:	100002d5 	.word	0x100002d5
10000280:	10006d89 	.word	0x10006d89

10000284 <_init>:
10000284:	b5f8      	push	{r3, r4, r5, r6, r7, lr}
10000286:	46c0      	nop			@ (mov r8, r8)

10000288 <register_tm_clones>:
10000288:	4806      	ldr	r0, [pc, #24]	@ (100002a4 <register_tm_clones+0x1c>)
1000028a:	4907      	ldr	r1, [pc, #28]	@ (100002a8 <register_tm_clones+0x20>)
1000028c:	1a09      	subs	r1, r1, r0
1000028e:	108b      	asrs	r3, r1, #2
10000290:	0fc9      	lsrs	r1, r1, #31
10000292:	18c9      	adds	r1, r1, r3
10000294:	b510      	push	{r4, lr}
10000296:	1049      	asrs	r1, r1, #1
10000298:	d003      	beq.n	100002a2 <register_tm_clones+0x1a>
1000029a:	4b04      	ldr	r3, [pc, #16]	@ (100002ac <register_tm_clones+0x24>)
1000029c:	2b00      	cmp	r3, #0
1000029e:	d000      	beq.n	100002a2 <register_tm_clones+0x1a>
100002a0:	4798      	blx	r3
100002a2:	bd10      	pop	{r4, pc}
100002a4:	20001078 	.word	0x20001078
100002a8:	20001078 	.word	0x20001078
100002ac:	00000000 	.word	0x00000000

100002b0 <frame_dummy>:
100002b0:	4b05      	ldr	r3, [pc, #20]	@ (100002c8 <frame_dummy+0x18>)
100002b2:	b510      	push	{r4, lr}
100002b4:	2b00      	cmp	r3, #0
100002b6:	d003      	beq.n	100002c0 <frame_dummy+0x10>
100002b8:	4904      	ldr	r1, [pc, #16]	@ (100002cc <frame_dummy+0x1c>)
100002ba:	4805      	ldr	r0, [pc, #20]	@ (100002d0 <frame_dummy+0x20>)
100002bc:	e000      	b.n	100002c0 <frame_dummy+0x10>
100002be:	bf00      	nop
100002c0:	f7ff ffe2 	bl	10000288 <register_tm_clones>
100002c4:	bd10      	pop	{r4, pc}
100002c6:	46c0      	nop			@ (mov r8, r8)
100002c8:	00000000 	.word	0x00000000
100002cc:	20005634 	.word	0x20005634
100002d0:	1000a564 	.word	0x1000a564

100002d4 <main>:
100002d4:	b5f0      	push	{r4, r5, r6, r7, lr}
100002d6:	46c6      	mov	lr, r8
100002d8:	2100      	movs	r1, #0
100002da:	b500      	push	{lr}
100002dc:	2000      	movs	r0, #0
100002de:	f009 fb47 	bl	10009970 <tusb_rhport_init>
100002e2:	f006 fe7f 	bl	10006fe4 <stdio_init_all>
100002e6:	2019      	movs	r0, #25
100002e8:	f002 ff42 	bl	10003170 <gpio_init>
100002ec:	23d0      	movs	r3, #208	@ 0xd0
100002ee:	2280      	movs	r2, #128	@ 0x80
100002f0:	061b      	lsls	r3, r3, #24
100002f2:	0492      	lsls	r2, r2, #18
100002f4:	625a      	str	r2, [r3, #36]	@ 0x24
100002f6:	2002      	movs	r0, #2
100002f8:	f001 fc68 	bl	10001bcc <spdif_start>
100002fc:	2000      	movs	r0, #0
100002fe:	f002 f9f3 	bl	100026e8 <spdif_set_mode>
10000302:	2104      	movs	r1, #4
10000304:	2003      	movs	r0, #3
10000306:	f000 f85b 	bl	100003c0 <arc_init>
1000030a:	20fa      	movs	r0, #250	@ 0xfa
1000030c:	00c0      	lsls	r0, r0, #3
1000030e:	f003 fe05 	bl	10003f1c <sleep_ms>
10000312:	4826      	ldr	r0, [pc, #152]	@ (100003ac <main+0xd8>)
10000314:	f006 feb4 	bl	10007080 <__wrap_puts>
10000318:	f002 f9ec 	bl	100026f4 <spdif_get_mode>
1000031c:	f002 f9f0 	bl	10002700 <spdif_mode_name>
10000320:	2102      	movs	r1, #2
10000322:	0002      	movs	r2, r0
10000324:	4822      	ldr	r0, [pc, #136]	@ (100003b0 <main+0xdc>)
10000326:	f006 ff2d 	bl	10007184 <__wrap_printf>
1000032a:	4822      	ldr	r0, [pc, #136]	@ (100003b4 <main+0xe0>)
1000032c:	f006 fea8 	bl	10007080 <__wrap_puts>
10000330:	2500      	movs	r5, #0
10000332:	f003 ff03 	bl	1000413c <time_us_64>
10000336:	4c20      	ldr	r4, [pc, #128]	@ (100003b8 <main+0xe4>)
10000338:	1824      	adds	r4, r4, r0
1000033a:	414d      	adcs	r5, r1
1000033c:	2d00      	cmp	r5, #0
1000033e:	da02      	bge.n	10000346 <main+0x72>
10000340:	2401      	movs	r4, #1
10000342:	4d1e      	ldr	r5, [pc, #120]	@ (100003bc <main+0xe8>)
10000344:	4264      	negs	r4, r4
10000346:	2300      	movs	r3, #0
10000348:	2700      	movs	r7, #0
1000034a:	4698      	mov	r8, r3
1000034c:	4e1a      	ldr	r6, [pc, #104]	@ (100003b8 <main+0xe4>)
1000034e:	2001      	movs	r0, #1
10000350:	2100      	movs	r1, #0
10000352:	4240      	negs	r0, r0
10000354:	f007 fc60 	bl	10007c18 <tud_task_ext>
10000358:	f002 fbba 	bl	10002ad0 <usb_audio_task>
1000035c:	f000 f870 	bl	10000440 <arc_task>
10000360:	f003 feec 	bl	1000413c <time_us_64>
10000364:	0022      	movs	r2, r4
10000366:	002b      	movs	r3, r5
10000368:	1a12      	subs	r2, r2, r0
1000036a:	418b      	sbcs	r3, r1
1000036c:	2b00      	cmp	r3, #0
1000036e:	dcee      	bgt.n	1000034e <main+0x7a>
10000370:	d101      	bne.n	10000376 <main+0xa2>
10000372:	2a00      	cmp	r2, #0
10000374:	d1eb      	bne.n	1000034e <main+0x7a>
10000376:	4642      	mov	r2, r8
10000378:	2301      	movs	r3, #1
1000037a:	405a      	eors	r2, r3
1000037c:	4690      	mov	r8, r2
1000037e:	d00f      	beq.n	100003a0 <main+0xcc>
10000380:	23d0      	movs	r3, #208	@ 0xd0
10000382:	2280      	movs	r2, #128	@ 0x80
10000384:	061b      	lsls	r3, r3, #24
10000386:	0492      	lsls	r2, r2, #18
10000388:	615a      	str	r2, [r3, #20]
1000038a:	f003 fed7 	bl	1000413c <time_us_64>
1000038e:	1980      	adds	r0, r0, r6
10000390:	4179      	adcs	r1, r7
10000392:	0004      	movs	r4, r0
10000394:	1e0d      	subs	r5, r1, #0
10000396:	dada      	bge.n	1000034e <main+0x7a>
10000398:	2401      	movs	r4, #1
1000039a:	4d08      	ldr	r5, [pc, #32]	@ (100003bc <main+0xe8>)
1000039c:	4264      	negs	r4, r4
1000039e:	e7d6      	b.n	1000034e <main+0x7a>
100003a0:	23d0      	movs	r3, #208	@ 0xd0
100003a2:	2280      	movs	r2, #128	@ 0x80
100003a4:	061b      	lsls	r3, r3, #24
100003a6:	0492      	lsls	r2, r2, #18
100003a8:	619a      	str	r2, [r3, #24]
100003aa:	e7ee      	b.n	1000038a <main+0xb6>
100003ac:	1000a568 	.word	0x1000a568
100003b0:	1000a57c 	.word	0x1000a57c
100003b4:	1000a598 	.word	0x1000a598
100003b8:	0003d090 	.word	0x0003d090
100003bc:	7fffffff 	.word	0x7fffffff

100003c0 <arc_init>:
100003c0:	2200      	movs	r2, #0
100003c2:	4b18      	ldr	r3, [pc, #96]	@ (10000424 <arc_init+0x64>)
100003c4:	b570      	push	{r4, r5, r6, lr}
100003c6:	701a      	strb	r2, [r3, #0]
100003c8:	4c17      	ldr	r4, [pc, #92]	@ (10000428 <arc_init+0x68>)
100003ca:	4b18      	ldr	r3, [pc, #96]	@ (1000042c <arc_init+0x6c>)
100003cc:	0005      	movs	r5, r0
100003ce:	601a      	str	r2, [r3, #0]
100003d0:	6021      	str	r1, [r4, #0]
100003d2:	f003 feb3 	bl	1000413c <time_us_64>
100003d6:	4b16      	ldr	r3, [pc, #88]	@ (10000430 <arc_init+0x70>)
100003d8:	4a16      	ldr	r2, [pc, #88]	@ (10000434 <arc_init+0x74>)
100003da:	469c      	mov	ip, r3
100003dc:	2300      	movs	r3, #0
100003de:	1880      	adds	r0, r0, r2
100003e0:	4159      	adcs	r1, r3
100003e2:	0002      	movs	r2, r0
100003e4:	1e0b      	subs	r3, r1, #0
100003e6:	da02      	bge.n	100003ee <arc_init+0x2e>
100003e8:	2201      	movs	r2, #1
100003ea:	4b13      	ldr	r3, [pc, #76]	@ (10000438 <arc_init+0x78>)
100003ec:	4252      	negs	r2, r2
100003ee:	4661      	mov	r1, ip
100003f0:	6820      	ldr	r0, [r4, #0]
100003f2:	600a      	str	r2, [r1, #0]
100003f4:	604b      	str	r3, [r1, #4]
100003f6:	f002 febb 	bl	10003170 <gpio_init>
100003fa:	2301      	movs	r3, #1
100003fc:	6822      	ldr	r2, [r4, #0]
100003fe:	0028      	movs	r0, r5
10000400:	4093      	lsls	r3, r2
10000402:	22d0      	movs	r2, #208	@ 0xd0
10000404:	0612      	lsls	r2, r2, #24
10000406:	6293      	str	r3, [r2, #40]	@ 0x28
10000408:	f000 fb42 	bl	10000a90 <cec_init>
1000040c:	2000      	movs	r0, #0
1000040e:	f000 fc05 	bl	10000c1c <cec_set_logical_address>
10000412:	f001 f811 	bl	10001438 <cec_passive_reset>
10000416:	0029      	movs	r1, r5
10000418:	6822      	ldr	r2, [r4, #0]
1000041a:	4808      	ldr	r0, [pc, #32]	@ (1000043c <arc_init+0x7c>)
1000041c:	f006 feb2 	bl	10007184 <__wrap_printf>
10000420:	bd70      	pop	{r4, r5, r6, pc}
10000422:	46c0      	nop			@ (mov r8, r8)
10000424:	2000f06f 	.word	0x2000f06f
10000428:	2000515c 	.word	0x2000515c
1000042c:	20005800 	.word	0x20005800
10000430:	20002d10 	.word	0x20002d10
10000434:	000f4240 	.word	0x000f4240
10000438:	7fffffff 	.word	0x7fffffff
1000043c:	1000a5a4 	.word	0x1000a5a4

10000440 <arc_task>:
10000440:	b5f0      	push	{r4, r5, r6, r7, lr}
10000442:	46de      	mov	lr, fp
10000444:	4657      	mov	r7, sl
10000446:	4645      	mov	r5, r8
10000448:	464e      	mov	r6, r9
1000044a:	b5e0      	push	{r5, r6, r7, lr}
1000044c:	b089      	sub	sp, #36	@ 0x24
1000044e:	f002 f951 	bl	100026f4 <spdif_get_mode>
10000452:	4bc8      	ldr	r3, [pc, #800]	@ (10000774 <arc_task+0x334>)
10000454:	4680      	mov	r8, r0
10000456:	469a      	mov	sl, r3
10000458:	4bc7      	ldr	r3, [pc, #796]	@ (10000778 <arc_task+0x338>)
1000045a:	4fc8      	ldr	r7, [pc, #800]	@ (1000077c <arc_task+0x33c>)
1000045c:	469b      	mov	fp, r3
1000045e:	ac02      	add	r4, sp, #8
10000460:	0020      	movs	r0, r4
10000462:	f001 f811 	bl	10001488 <cec_receive_frame_passive>
10000466:	2800      	cmp	r0, #0
10000468:	d100      	bne.n	1000046c <arc_task+0x2c>
1000046a:	e091      	b.n	10000590 <arc_task+0x150>
1000046c:	4642      	mov	r2, r8
1000046e:	6923      	ldr	r3, [r4, #16]
10000470:	2a02      	cmp	r2, #2
10000472:	d000      	beq.n	10000476 <arc_task+0x36>
10000474:	e083      	b.n	1000057e <arc_task+0x13e>
10000476:	2b01      	cmp	r3, #1
10000478:	d800      	bhi.n	1000047c <arc_task+0x3c>
1000047a:	e080      	b.n	1000057e <arc_task+0x13e>
1000047c:	7863      	ldrb	r3, [r4, #1]
1000047e:	2b7a      	cmp	r3, #122	@ 0x7a
10000480:	d065      	beq.n	1000054e <arc_task+0x10e>
10000482:	220f      	movs	r2, #15
10000484:	2609      	movs	r6, #9
10000486:	7821      	ldrb	r1, [r4, #0]
10000488:	4650      	mov	r0, sl
1000048a:	400a      	ands	r2, r1
1000048c:	0909      	lsrs	r1, r1, #4
1000048e:	f006 fe79 	bl	10007184 <__wrap_printf>
10000492:	6923      	ldr	r3, [r4, #16]
10000494:	2501      	movs	r5, #1
10000496:	446e      	add	r6, sp
10000498:	2b01      	cmp	r3, #1
1000049a:	d92a      	bls.n	100004f2 <arc_task+0xb2>
1000049c:	7831      	ldrb	r1, [r6, #0]
1000049e:	0038      	movs	r0, r7
100004a0:	f006 fe70 	bl	10007184 <__wrap_printf>
100004a4:	6923      	ldr	r3, [r4, #16]
100004a6:	3501      	adds	r5, #1
100004a8:	3601      	adds	r6, #1
100004aa:	429d      	cmp	r5, r3
100004ac:	d3f6      	bcc.n	1000049c <arc_task+0x5c>
100004ae:	2b01      	cmp	r3, #1
100004b0:	d91f      	bls.n	100004f2 <arc_task+0xb2>
100004b2:	7863      	ldrb	r3, [r4, #1]
100004b4:	3b36      	subs	r3, #54	@ 0x36
100004b6:	b2db      	uxtb	r3, r3
100004b8:	2b8f      	cmp	r3, #143	@ 0x8f
100004ba:	d900      	bls.n	100004be <arc_task+0x7e>
100004bc:	e086      	b.n	100005cc <arc_task+0x18c>
100004be:	4ab0      	ldr	r2, [pc, #704]	@ (10000780 <arc_task+0x340>)
100004c0:	009b      	lsls	r3, r3, #2
100004c2:	5899      	ldr	r1, [r3, r2]
100004c4:	48af      	ldr	r0, [pc, #700]	@ (10000784 <arc_task+0x344>)
100004c6:	f006 fe5d 	bl	10007184 <__wrap_printf>
100004ca:	7863      	ldrb	r3, [r4, #1]
100004cc:	2b7a      	cmp	r3, #122	@ 0x7a
100004ce:	d100      	bne.n	100004d2 <arc_task+0x92>
100004d0:	e084      	b.n	100005dc <arc_task+0x19c>
100004d2:	2b44      	cmp	r3, #68	@ 0x44
100004d4:	d100      	bne.n	100004d8 <arc_task+0x98>
100004d6:	e130      	b.n	1000073a <arc_task+0x2fa>
100004d8:	2b72      	cmp	r3, #114	@ 0x72
100004da:	d10a      	bne.n	100004f2 <arc_task+0xb2>
100004dc:	6923      	ldr	r3, [r4, #16]
100004de:	2b02      	cmp	r3, #2
100004e0:	d907      	bls.n	100004f2 <arc_task+0xb2>
100004e2:	78a3      	ldrb	r3, [r4, #2]
100004e4:	2b00      	cmp	r3, #0
100004e6:	d000      	beq.n	100004ea <arc_task+0xaa>
100004e8:	e1b7      	b.n	1000085a <arc_task+0x41a>
100004ea:	49a7      	ldr	r1, [pc, #668]	@ (10000788 <arc_task+0x348>)
100004ec:	48a7      	ldr	r0, [pc, #668]	@ (1000078c <arc_task+0x34c>)
100004ee:	f006 fe49 	bl	10007184 <__wrap_printf>
100004f2:	200a      	movs	r0, #10
100004f4:	f006 fd7a 	bl	10006fec <__wrap_putchar>
100004f8:	6922      	ldr	r2, [r4, #16]
100004fa:	2a01      	cmp	r2, #1
100004fc:	d9b0      	bls.n	10000460 <arc_task+0x20>
100004fe:	7863      	ldrb	r3, [r4, #1]
10000500:	2b7a      	cmp	r3, #122	@ 0x7a
10000502:	d059      	beq.n	100005b8 <arc_task+0x178>
10000504:	7822      	ldrb	r2, [r4, #0]
10000506:	2a50      	cmp	r2, #80	@ 0x50
10000508:	d1aa      	bne.n	10000460 <arc_task+0x20>
1000050a:	2bc0      	cmp	r3, #192	@ 0xc0
1000050c:	d100      	bne.n	10000510 <arc_task+0xd0>
1000050e:	e0dc      	b.n	100006ca <arc_task+0x28a>
10000510:	d900      	bls.n	10000514 <arc_task+0xd4>
10000512:	e0c7      	b.n	100006a4 <arc_task+0x264>
10000514:	2b8f      	cmp	r3, #143	@ 0x8f
10000516:	d100      	bne.n	1000051a <arc_task+0xda>
10000518:	e0a4      	b.n	10000664 <arc_task+0x224>
1000051a:	2b9f      	cmp	r3, #159	@ 0x9f
1000051c:	d100      	bne.n	10000520 <arc_task+0xe0>
1000051e:	e0f6      	b.n	1000070e <arc_task+0x2ce>
10000520:	2b83      	cmp	r3, #131	@ 0x83
10000522:	d19d      	bne.n	10000460 <arc_task+0x20>
10000524:	4643      	mov	r3, r8
10000526:	2b02      	cmp	r3, #2
10000528:	d09a      	beq.n	10000460 <arc_task+0x20>
1000052a:	4b99      	ldr	r3, [pc, #612]	@ (10000790 <arc_task+0x350>)
1000052c:	466a      	mov	r2, sp
1000052e:	9300      	str	r3, [sp, #0]
10000530:	2300      	movs	r3, #0
10000532:	2105      	movs	r1, #5
10000534:	7113      	strb	r3, [r2, #4]
10000536:	4668      	mov	r0, sp
10000538:	2202      	movs	r2, #2
1000053a:	f000 fe0d 	bl	10001158 <cec_send_with_retry>
1000053e:	2800      	cmp	r0, #0
10000540:	d000      	beq.n	10000544 <arc_task+0x104>
10000542:	e184      	b.n	1000084e <arc_task+0x40e>
10000544:	4990      	ldr	r1, [pc, #576]	@ (10000788 <arc_task+0x348>)
10000546:	4893      	ldr	r0, [pc, #588]	@ (10000794 <arc_task+0x354>)
10000548:	f006 fe1c 	bl	10007184 <__wrap_printf>
1000054c:	e788      	b.n	10000460 <arc_task+0x20>
1000054e:	f003 fdf5 	bl	1000413c <time_us_64>
10000552:	465b      	mov	r3, fp
10000554:	000e      	movs	r6, r1
10000556:	6819      	ldr	r1, [r3, #0]
10000558:	4b8f      	ldr	r3, [pc, #572]	@ (10000798 <arc_task+0x358>)
1000055a:	0005      	movs	r5, r0
1000055c:	4699      	mov	r9, r3
1000055e:	685b      	ldr	r3, [r3, #4]
10000560:	42b3      	cmp	r3, r6
10000562:	d900      	bls.n	10000566 <arc_task+0x126>
10000564:	e099      	b.n	1000069a <arc_task+0x25a>
10000566:	d100      	bne.n	1000056a <arc_task+0x12a>
10000568:	e092      	b.n	10000690 <arc_task+0x250>
1000056a:	2900      	cmp	r1, #0
1000056c:	d000      	beq.n	10000570 <arc_task+0x130>
1000056e:	e0a5      	b.n	100006bc <arc_task+0x27c>
10000570:	2300      	movs	r3, #0
10000572:	4a8a      	ldr	r2, [pc, #552]	@ (1000079c <arc_task+0x35c>)
10000574:	4649      	mov	r1, r9
10000576:	1952      	adds	r2, r2, r5
10000578:	4173      	adcs	r3, r6
1000057a:	c10c      	stmia	r1!, {r2, r3}
1000057c:	6923      	ldr	r3, [r4, #16]
1000057e:	2b00      	cmp	r3, #0
10000580:	d000      	beq.n	10000584 <arc_task+0x144>
10000582:	e77e      	b.n	10000482 <arc_task+0x42>
10000584:	0020      	movs	r0, r4
10000586:	f000 ff7f 	bl	10001488 <cec_receive_frame_passive>
1000058a:	2800      	cmp	r0, #0
1000058c:	d000      	beq.n	10000590 <arc_task+0x150>
1000058e:	e76d      	b.n	1000046c <arc_task+0x2c>
10000590:	4643      	mov	r3, r8
10000592:	2b02      	cmp	r3, #2
10000594:	d100      	bne.n	10000598 <arc_task+0x158>
10000596:	e0df      	b.n	10000758 <arc_task+0x318>
10000598:	f003 fdd0 	bl	1000413c <time_us_64>
1000059c:	4c80      	ldr	r4, [pc, #512]	@ (100007a0 <arc_task+0x360>)
1000059e:	6822      	ldr	r2, [r4, #0]
100005a0:	6863      	ldr	r3, [r4, #4]
100005a2:	1a12      	subs	r2, r2, r0
100005a4:	418b      	sbcs	r3, r1
100005a6:	2b00      	cmp	r3, #0
100005a8:	dd28      	ble.n	100005fc <arc_task+0x1bc>
100005aa:	b009      	add	sp, #36	@ 0x24
100005ac:	bcf0      	pop	{r4, r5, r6, r7}
100005ae:	46bb      	mov	fp, r7
100005b0:	46b2      	mov	sl, r6
100005b2:	46a9      	mov	r9, r5
100005b4:	46a0      	mov	r8, r4
100005b6:	bdf0      	pop	{r4, r5, r6, r7, pc}
100005b8:	2a02      	cmp	r2, #2
100005ba:	d100      	bne.n	100005be <arc_task+0x17e>
100005bc:	e750      	b.n	10000460 <arc_task+0x20>
100005be:	207f      	movs	r0, #127	@ 0x7f
100005c0:	78a3      	ldrb	r3, [r4, #2]
100005c2:	09d9      	lsrs	r1, r3, #7
100005c4:	4018      	ands	r0, r3
100005c6:	f002 f923 	bl	10002810 <usb_audio_set_cec_audio_status>
100005ca:	e749      	b.n	10000460 <arc_task+0x20>
100005cc:	4975      	ldr	r1, [pc, #468]	@ (100007a4 <arc_task+0x364>)
100005ce:	486d      	ldr	r0, [pc, #436]	@ (10000784 <arc_task+0x344>)
100005d0:	f006 fdd8 	bl	10007184 <__wrap_printf>
100005d4:	7863      	ldrb	r3, [r4, #1]
100005d6:	2b7a      	cmp	r3, #122	@ 0x7a
100005d8:	d000      	beq.n	100005dc <arc_task+0x19c>
100005da:	e77a      	b.n	100004d2 <arc_task+0x92>
100005dc:	6923      	ldr	r3, [r4, #16]
100005de:	2b02      	cmp	r3, #2
100005e0:	d800      	bhi.n	100005e4 <arc_task+0x1a4>
100005e2:	e786      	b.n	100004f2 <arc_task+0xb2>
100005e4:	217f      	movs	r1, #127	@ 0x7f
100005e6:	78a3      	ldrb	r3, [r4, #2]
100005e8:	4019      	ands	r1, r3
100005ea:	b25b      	sxtb	r3, r3
100005ec:	2b00      	cmp	r3, #0
100005ee:	da00      	bge.n	100005f2 <arc_task+0x1b2>
100005f0:	e129      	b.n	10000846 <arc_task+0x406>
100005f2:	4a65      	ldr	r2, [pc, #404]	@ (10000788 <arc_task+0x348>)
100005f4:	486c      	ldr	r0, [pc, #432]	@ (100007a8 <arc_task+0x368>)
100005f6:	f006 fdc5 	bl	10007184 <__wrap_printf>
100005fa:	e77a      	b.n	100004f2 <arc_task+0xb2>
100005fc:	2b00      	cmp	r3, #0
100005fe:	d101      	bne.n	10000604 <arc_task+0x1c4>
10000600:	2a00      	cmp	r2, #0
10000602:	d1d2      	bne.n	100005aa <arc_task+0x16a>
10000604:	23d0      	movs	r3, #208	@ 0xd0
10000606:	061b      	lsls	r3, r3, #24
10000608:	685a      	ldr	r2, [r3, #4]
1000060a:	4b68      	ldr	r3, [pc, #416]	@ (100007ac <arc_task+0x36c>)
1000060c:	6819      	ldr	r1, [r3, #0]
1000060e:	2301      	movs	r3, #1
10000610:	408b      	lsls	r3, r1
10000612:	401a      	ands	r2, r3
10000614:	1e53      	subs	r3, r2, #1
10000616:	419a      	sbcs	r2, r3
10000618:	b2d5      	uxtb	r5, r2
1000061a:	f000 faf1 	bl	10000c00 <cec_bus_is_high>
1000061e:	4e64      	ldr	r6, [pc, #400]	@ (100007b0 <arc_task+0x370>)
10000620:	0007      	movs	r7, r0
10000622:	6833      	ldr	r3, [r6, #0]
10000624:	2b00      	cmp	r3, #0
10000626:	d100      	bne.n	1000062a <arc_task+0x1ea>
10000628:	e0e6      	b.n	100007f8 <arc_task+0x3b8>
1000062a:	2b01      	cmp	r3, #1
1000062c:	d100      	bne.n	10000630 <arc_task+0x1f0>
1000062e:	e116      	b.n	1000085e <arc_task+0x41e>
10000630:	2b02      	cmp	r3, #2
10000632:	d100      	bne.n	10000636 <arc_task+0x1f6>
10000634:	e126      	b.n	10000884 <arc_task+0x444>
10000636:	4b5f      	ldr	r3, [pc, #380]	@ (100007b4 <arc_task+0x374>)
10000638:	781b      	ldrb	r3, [r3, #0]
1000063a:	2b00      	cmp	r3, #0
1000063c:	d000      	beq.n	10000640 <arc_task+0x200>
1000063e:	e0fa      	b.n	10000836 <arc_task+0x3f6>
10000640:	466a      	mov	r2, sp
10000642:	4b5d      	ldr	r3, [pc, #372]	@ (100007b8 <arc_task+0x378>)
10000644:	2102      	movs	r1, #2
10000646:	8013      	strh	r3, [r2, #0]
10000648:	4668      	mov	r0, sp
1000064a:	2202      	movs	r2, #2
1000064c:	f000 fd84 	bl	10001158 <cec_send_with_retry>
10000650:	2800      	cmp	r0, #0
10000652:	d000      	beq.n	10000656 <arc_task+0x216>
10000654:	e114      	b.n	10000880 <arc_task+0x440>
10000656:	494c      	ldr	r1, [pc, #304]	@ (10000788 <arc_task+0x348>)
10000658:	003b      	movs	r3, r7
1000065a:	002a      	movs	r2, r5
1000065c:	4857      	ldr	r0, [pc, #348]	@ (100007bc <arc_task+0x37c>)
1000065e:	f006 fd91 	bl	10007184 <__wrap_printf>
10000662:	e0d5      	b.n	10000810 <arc_task+0x3d0>
10000664:	4643      	mov	r3, r8
10000666:	2b02      	cmp	r3, #2
10000668:	d100      	bne.n	1000066c <arc_task+0x22c>
1000066a:	e6f9      	b.n	10000460 <arc_task+0x20>
1000066c:	4668      	mov	r0, sp
1000066e:	4b54      	ldr	r3, [pc, #336]	@ (100007c0 <arc_task+0x380>)
10000670:	2103      	movs	r1, #3
10000672:	881a      	ldrh	r2, [r3, #0]
10000674:	8002      	strh	r2, [r0, #0]
10000676:	789b      	ldrb	r3, [r3, #2]
10000678:	2202      	movs	r2, #2
1000067a:	7083      	strb	r3, [r0, #2]
1000067c:	f000 fd6c 	bl	10001158 <cec_send_with_retry>
10000680:	2800      	cmp	r0, #0
10000682:	d000      	beq.n	10000686 <arc_task+0x246>
10000684:	e0e5      	b.n	10000852 <arc_task+0x412>
10000686:	4940      	ldr	r1, [pc, #256]	@ (10000788 <arc_task+0x348>)
10000688:	484e      	ldr	r0, [pc, #312]	@ (100007c4 <arc_task+0x384>)
1000068a:	f006 fd7b 	bl	10007184 <__wrap_printf>
1000068e:	e6e7      	b.n	10000460 <arc_task+0x20>
10000690:	464b      	mov	r3, r9
10000692:	681b      	ldr	r3, [r3, #0]
10000694:	42ab      	cmp	r3, r5
10000696:	d800      	bhi.n	1000069a <arc_task+0x25a>
10000698:	e767      	b.n	1000056a <arc_task+0x12a>
1000069a:	465b      	mov	r3, fp
1000069c:	3101      	adds	r1, #1
1000069e:	6922      	ldr	r2, [r4, #16]
100006a0:	6019      	str	r1, [r3, #0]
100006a2:	e72a      	b.n	100004fa <arc_task+0xba>
100006a4:	2bc2      	cmp	r3, #194	@ 0xc2
100006a6:	d02b      	beq.n	10000700 <arc_task+0x2c0>
100006a8:	2bc5      	cmp	r3, #197	@ 0xc5
100006aa:	d000      	beq.n	100006ae <arc_task+0x26e>
100006ac:	e6d8      	b.n	10000460 <arc_task+0x20>
100006ae:	2200      	movs	r2, #0
100006b0:	4b40      	ldr	r3, [pc, #256]	@ (100007b4 <arc_task+0x374>)
100006b2:	4845      	ldr	r0, [pc, #276]	@ (100007c8 <arc_task+0x388>)
100006b4:	701a      	strb	r2, [r3, #0]
100006b6:	f006 fce3 	bl	10007080 <__wrap_puts>
100006ba:	e6d1      	b.n	10000460 <arc_task+0x20>
100006bc:	4843      	ldr	r0, [pc, #268]	@ (100007cc <arc_task+0x38c>)
100006be:	f006 fd61 	bl	10007184 <__wrap_printf>
100006c2:	2300      	movs	r3, #0
100006c4:	465a      	mov	r2, fp
100006c6:	6013      	str	r3, [r2, #0]
100006c8:	e752      	b.n	10000570 <arc_task+0x130>
100006ca:	4b3a      	ldr	r3, [pc, #232]	@ (100007b4 <arc_task+0x374>)
100006cc:	781a      	ldrb	r2, [r3, #0]
100006ce:	2a00      	cmp	r2, #0
100006d0:	d000      	beq.n	100006d4 <arc_task+0x294>
100006d2:	e6c5      	b.n	10000460 <arc_task+0x20>
100006d4:	3201      	adds	r2, #1
100006d6:	701a      	strb	r2, [r3, #0]
100006d8:	4643      	mov	r3, r8
100006da:	2b02      	cmp	r3, #2
100006dc:	d100      	bne.n	100006e0 <arc_task+0x2a0>
100006de:	e6bf      	b.n	10000460 <arc_task+0x20>
100006e0:	466a      	mov	r2, sp
100006e2:	4b3b      	ldr	r3, [pc, #236]	@ (100007d0 <arc_task+0x390>)
100006e4:	2102      	movs	r1, #2
100006e6:	8013      	strh	r3, [r2, #0]
100006e8:	4668      	mov	r0, sp
100006ea:	2202      	movs	r2, #2
100006ec:	f000 fd34 	bl	10001158 <cec_send_with_retry>
100006f0:	2800      	cmp	r0, #0
100006f2:	d100      	bne.n	100006f6 <arc_task+0x2b6>
100006f4:	e0d9      	b.n	100008aa <arc_task+0x46a>
100006f6:	4937      	ldr	r1, [pc, #220]	@ (100007d4 <arc_task+0x394>)
100006f8:	4837      	ldr	r0, [pc, #220]	@ (100007d8 <arc_task+0x398>)
100006fa:	f006 fd43 	bl	10007184 <__wrap_printf>
100006fe:	e6af      	b.n	10000460 <arc_task+0x20>
10000700:	2200      	movs	r2, #0
10000702:	4b2c      	ldr	r3, [pc, #176]	@ (100007b4 <arc_task+0x374>)
10000704:	4835      	ldr	r0, [pc, #212]	@ (100007dc <arc_task+0x39c>)
10000706:	701a      	strb	r2, [r3, #0]
10000708:	f006 fcba 	bl	10007080 <__wrap_puts>
1000070c:	e6a8      	b.n	10000460 <arc_task+0x20>
1000070e:	4643      	mov	r3, r8
10000710:	2b02      	cmp	r3, #2
10000712:	d100      	bne.n	10000716 <arc_task+0x2d6>
10000714:	e6a4      	b.n	10000460 <arc_task+0x20>
10000716:	4668      	mov	r0, sp
10000718:	4b31      	ldr	r3, [pc, #196]	@ (100007e0 <arc_task+0x3a0>)
1000071a:	2103      	movs	r1, #3
1000071c:	881a      	ldrh	r2, [r3, #0]
1000071e:	8002      	strh	r2, [r0, #0]
10000720:	789b      	ldrb	r3, [r3, #2]
10000722:	2202      	movs	r2, #2
10000724:	7083      	strb	r3, [r0, #2]
10000726:	f000 fd17 	bl	10001158 <cec_send_with_retry>
1000072a:	2800      	cmp	r0, #0
1000072c:	d000      	beq.n	10000730 <arc_task+0x2f0>
1000072e:	e092      	b.n	10000856 <arc_task+0x416>
10000730:	4915      	ldr	r1, [pc, #84]	@ (10000788 <arc_task+0x348>)
10000732:	482c      	ldr	r0, [pc, #176]	@ (100007e4 <arc_task+0x3a4>)
10000734:	f006 fd26 	bl	10007184 <__wrap_printf>
10000738:	e692      	b.n	10000460 <arc_task+0x20>
1000073a:	6923      	ldr	r3, [r4, #16]
1000073c:	2b02      	cmp	r3, #2
1000073e:	d800      	bhi.n	10000742 <arc_task+0x302>
10000740:	e6d7      	b.n	100004f2 <arc_task+0xb2>
10000742:	78a2      	ldrb	r2, [r4, #2]
10000744:	2a6d      	cmp	r2, #109	@ 0x6d
10000746:	d900      	bls.n	1000074a <arc_task+0x30a>
10000748:	e07b      	b.n	10000842 <arc_task+0x402>
1000074a:	4b27      	ldr	r3, [pc, #156]	@ (100007e8 <arc_task+0x3a8>)
1000074c:	0091      	lsls	r1, r2, #2
1000074e:	58c9      	ldr	r1, [r1, r3]
10000750:	4826      	ldr	r0, [pc, #152]	@ (100007ec <arc_task+0x3ac>)
10000752:	f006 fd17 	bl	10007184 <__wrap_printf>
10000756:	e6cc      	b.n	100004f2 <arc_task+0xb2>
10000758:	f003 fcf0 	bl	1000413c <time_us_64>
1000075c:	2500      	movs	r5, #0
1000075e:	4c24      	ldr	r4, [pc, #144]	@ (100007f0 <arc_task+0x3b0>)
10000760:	4a0f      	ldr	r2, [pc, #60]	@ (100007a0 <arc_task+0x360>)
10000762:	1900      	adds	r0, r0, r4
10000764:	4169      	adcs	r1, r5
10000766:	1e0b      	subs	r3, r1, #0
10000768:	da02      	bge.n	10000770 <arc_task+0x330>
1000076a:	2001      	movs	r0, #1
1000076c:	4b21      	ldr	r3, [pc, #132]	@ (100007f4 <arc_task+0x3b4>)
1000076e:	4240      	negs	r0, r0
10000770:	c209      	stmia	r2!, {r0, r3}
10000772:	e71a      	b.n	100005aa <arc_task+0x16a>
10000774:	1000a5d4 	.word	0x1000a5d4
10000778:	20006450 	.word	0x20006450
1000077c:	1000a61c 	.word	0x1000a61c
10000780:	1000b0c8 	.word	0x1000b0c8
10000784:	1000a624 	.word	0x1000a624
10000788:	1000a5d0 	.word	0x1000a5d0
1000078c:	1000a650 	.word	0x1000a650
10000790:	0000840f 	.word	0x0000840f
10000794:	1000a65c 	.word	0x1000a65c
10000798:	20002d18 	.word	0x20002d18
1000079c:	0007a120 	.word	0x0007a120
100007a0:	20002d10 	.word	0x20002d10
100007a4:	1000a5c4 	.word	0x1000a5c4
100007a8:	1000a62c 	.word	0x1000a62c
100007ac:	2000515c 	.word	0x2000515c
100007b0:	20005800 	.word	0x20005800
100007b4:	2000f06f 	.word	0x2000f06f
100007b8:	ffffc305 	.word	0xffffc305
100007bc:	1000a804 	.word	0x1000a804
100007c0:	1000a858 	.word	0x1000a858
100007c4:	1000a688 	.word	0x1000a688
100007c8:	1000a738 	.word	0x1000a738
100007cc:	1000a5e4 	.word	0x1000a5e4
100007d0:	ffffc105 	.word	0xffffc105
100007d4:	1000a5cc 	.word	0x1000a5cc
100007d8:	1000a6d8 	.word	0x1000a6d8
100007dc:	1000a714 	.word	0x1000a714
100007e0:	1000a85c 	.word	0x1000a85c
100007e4:	1000a6b4 	.word	0x1000a6b4
100007e8:	1000af10 	.word	0x1000af10
100007ec:	1000a640 	.word	0x1000a640
100007f0:	001e8480 	.word	0x001e8480
100007f4:	7fffffff 	.word	0x7fffffff
100007f8:	2105      	movs	r1, #5
100007fa:	2000      	movs	r0, #0
100007fc:	f000 fcc2 	bl	10001184 <cec_poll>
10000800:	2800      	cmp	r0, #0
10000802:	d022      	beq.n	1000084a <arc_task+0x40a>
10000804:	492c      	ldr	r1, [pc, #176]	@ (100008b8 <arc_task+0x478>)
10000806:	003b      	movs	r3, r7
10000808:	002a      	movs	r2, r5
1000080a:	482c      	ldr	r0, [pc, #176]	@ (100008bc <arc_task+0x47c>)
1000080c:	f006 fcba 	bl	10007184 <__wrap_printf>
10000810:	2303      	movs	r3, #3
10000812:	6832      	ldr	r2, [r6, #0]
10000814:	3201      	adds	r2, #1
10000816:	4013      	ands	r3, r2
10000818:	6033      	str	r3, [r6, #0]
1000081a:	f003 fc8f 	bl	1000413c <time_us_64>
1000081e:	2300      	movs	r3, #0
10000820:	4a27      	ldr	r2, [pc, #156]	@ (100008c0 <arc_task+0x480>)
10000822:	1880      	adds	r0, r0, r2
10000824:	4159      	adcs	r1, r3
10000826:	0002      	movs	r2, r0
10000828:	1e0b      	subs	r3, r1, #0
1000082a:	da02      	bge.n	10000832 <arc_task+0x3f2>
1000082c:	2201      	movs	r2, #1
1000082e:	4b25      	ldr	r3, [pc, #148]	@ (100008c4 <arc_task+0x484>)
10000830:	4252      	negs	r2, r2
10000832:	c40c      	stmia	r4!, {r2, r3}
10000834:	e6b9      	b.n	100005aa <arc_task+0x16a>
10000836:	003a      	movs	r2, r7
10000838:	0029      	movs	r1, r5
1000083a:	4823      	ldr	r0, [pc, #140]	@ (100008c8 <arc_task+0x488>)
1000083c:	f006 fca2 	bl	10007184 <__wrap_printf>
10000840:	e7e6      	b.n	10000810 <arc_task+0x3d0>
10000842:	4922      	ldr	r1, [pc, #136]	@ (100008cc <arc_task+0x48c>)
10000844:	e784      	b.n	10000750 <arc_task+0x310>
10000846:	4a1c      	ldr	r2, [pc, #112]	@ (100008b8 <arc_task+0x478>)
10000848:	e6d4      	b.n	100005f4 <arc_task+0x1b4>
1000084a:	4921      	ldr	r1, [pc, #132]	@ (100008d0 <arc_task+0x490>)
1000084c:	e7db      	b.n	10000806 <arc_task+0x3c6>
1000084e:	491a      	ldr	r1, [pc, #104]	@ (100008b8 <arc_task+0x478>)
10000850:	e679      	b.n	10000546 <arc_task+0x106>
10000852:	4919      	ldr	r1, [pc, #100]	@ (100008b8 <arc_task+0x478>)
10000854:	e718      	b.n	10000688 <arc_task+0x248>
10000856:	4918      	ldr	r1, [pc, #96]	@ (100008b8 <arc_task+0x478>)
10000858:	e76b      	b.n	10000732 <arc_task+0x2f2>
1000085a:	4917      	ldr	r1, [pc, #92]	@ (100008b8 <arc_task+0x478>)
1000085c:	e646      	b.n	100004ec <arc_task+0xac>
1000085e:	466a      	mov	r2, sp
10000860:	4b1c      	ldr	r3, [pc, #112]	@ (100008d4 <arc_task+0x494>)
10000862:	2102      	movs	r1, #2
10000864:	8013      	strh	r3, [r2, #0]
10000866:	4668      	mov	r0, sp
10000868:	2202      	movs	r2, #2
1000086a:	f000 fc75 	bl	10001158 <cec_send_with_retry>
1000086e:	2800      	cmp	r0, #0
10000870:	d01d      	beq.n	100008ae <arc_task+0x46e>
10000872:	4911      	ldr	r1, [pc, #68]	@ (100008b8 <arc_task+0x478>)
10000874:	003b      	movs	r3, r7
10000876:	002a      	movs	r2, r5
10000878:	4817      	ldr	r0, [pc, #92]	@ (100008d8 <arc_task+0x498>)
1000087a:	f006 fc83 	bl	10007184 <__wrap_printf>
1000087e:	e7c7      	b.n	10000810 <arc_task+0x3d0>
10000880:	490d      	ldr	r1, [pc, #52]	@ (100008b8 <arc_task+0x478>)
10000882:	e6e9      	b.n	10000658 <arc_task+0x218>
10000884:	4b15      	ldr	r3, [pc, #84]	@ (100008dc <arc_task+0x49c>)
10000886:	466a      	mov	r2, sp
10000888:	9300      	str	r3, [sp, #0]
1000088a:	2300      	movs	r3, #0
1000088c:	2105      	movs	r1, #5
1000088e:	7113      	strb	r3, [r2, #4]
10000890:	4668      	mov	r0, sp
10000892:	2202      	movs	r2, #2
10000894:	f000 fc60 	bl	10001158 <cec_send_with_retry>
10000898:	2800      	cmp	r0, #0
1000089a:	d00a      	beq.n	100008b2 <arc_task+0x472>
1000089c:	4906      	ldr	r1, [pc, #24]	@ (100008b8 <arc_task+0x478>)
1000089e:	003b      	movs	r3, r7
100008a0:	002a      	movs	r2, r5
100008a2:	480f      	ldr	r0, [pc, #60]	@ (100008e0 <arc_task+0x4a0>)
100008a4:	f006 fc6e 	bl	10007184 <__wrap_printf>
100008a8:	e7b2      	b.n	10000810 <arc_task+0x3d0>
100008aa:	4909      	ldr	r1, [pc, #36]	@ (100008d0 <arc_task+0x490>)
100008ac:	e724      	b.n	100006f8 <arc_task+0x2b8>
100008ae:	4908      	ldr	r1, [pc, #32]	@ (100008d0 <arc_task+0x490>)
100008b0:	e7e0      	b.n	10000874 <arc_task+0x434>
100008b2:	4907      	ldr	r1, [pc, #28]	@ (100008d0 <arc_task+0x490>)
100008b4:	e7f3      	b.n	1000089e <arc_task+0x45e>
100008b6:	46c0      	nop			@ (mov r8, r8)
100008b8:	1000a5cc 	.word	0x1000a5cc
100008bc:	1000a760 	.word	0x1000a760
100008c0:	001e8480 	.word	0x001e8480
100008c4:	7fffffff 	.word	0x7fffffff
100008c8:	1000a838 	.word	0x1000a838
100008cc:	1000a5c4 	.word	0x1000a5c4
100008d0:	1000a5d0 	.word	0x1000a5d0
100008d4:	ffff8f05 	.word	0xffff8f05
100008d8:	1000a790 	.word	0x1000a790
100008dc:	0000840f 	.word	0x0000840f
100008e0:	1000a7c8 	.word	0x1000a7c8

100008e4 <cec_gpio_irq>:
100008e4:	b570      	push	{r4, r5, r6, lr}
100008e6:	4b18      	ldr	r3, [pc, #96]	@ (10000948 <cec_gpio_irq+0x64>)
100008e8:	b082      	sub	sp, #8
100008ea:	681b      	ldr	r3, [r3, #0]
100008ec:	4283      	cmp	r3, r0
100008ee:	d129      	bne.n	10000944 <cec_gpio_irq+0x60>
100008f0:	220c      	movs	r2, #12
100008f2:	420a      	tst	r2, r1
100008f4:	d026      	beq.n	10000944 <cec_gpio_irq+0x60>
100008f6:	4a15      	ldr	r2, [pc, #84]	@ (1000094c <cec_gpio_irq+0x68>)
100008f8:	4815      	ldr	r0, [pc, #84]	@ (10000950 <cec_gpio_irq+0x6c>)
100008fa:	4694      	mov	ip, r2
100008fc:	6812      	ldr	r2, [r2, #0]
100008fe:	6801      	ldr	r1, [r0, #0]
10000900:	0016      	movs	r6, r2
10000902:	3201      	adds	r2, #1
10000904:	05d2      	lsls	r2, r2, #23
10000906:	0dd2      	lsrs	r2, r2, #23
10000908:	4291      	cmp	r1, r2
1000090a:	d104      	bne.n	10000916 <cec_gpio_irq+0x32>
1000090c:	6801      	ldr	r1, [r0, #0]
1000090e:	3101      	adds	r1, #1
10000910:	05c9      	lsls	r1, r1, #23
10000912:	0dc9      	lsrs	r1, r1, #23
10000914:	6001      	str	r1, [r0, #0]
10000916:	490f      	ldr	r1, [pc, #60]	@ (10000954 <cec_gpio_irq+0x70>)
10000918:	2500      	movs	r5, #0
1000091a:	6a8c      	ldr	r4, [r1, #40]	@ 0x28
1000091c:	21d0      	movs	r1, #208	@ 0xd0
1000091e:	0609      	lsls	r1, r1, #24
10000920:	6848      	ldr	r0, [r1, #4]
10000922:	9400      	str	r4, [sp, #0]
10000924:	2401      	movs	r4, #1
10000926:	409c      	lsls	r4, r3
10000928:	0023      	movs	r3, r4
1000092a:	4003      	ands	r3, r0
1000092c:	1e58      	subs	r0, r3, #1
1000092e:	4183      	sbcs	r3, r0
10000930:	4669      	mov	r1, sp
10000932:	9501      	str	r5, [sp, #4]
10000934:	710b      	strb	r3, [r1, #4]
10000936:	4b08      	ldr	r3, [pc, #32]	@ (10000958 <cec_gpio_irq+0x74>)
10000938:	00f0      	lsls	r0, r6, #3
1000093a:	181b      	adds	r3, r3, r0
1000093c:	c911      	ldmia	r1!, {r0, r4}
1000093e:	c311      	stmia	r3!, {r0, r4}
10000940:	4663      	mov	r3, ip
10000942:	601a      	str	r2, [r3, #0]
10000944:	b002      	add	sp, #8
10000946:	bd70      	pop	{r4, r5, r6, pc}
10000948:	20004a48 	.word	0x20004a48
1000094c:	20003a44 	.word	0x20003a44
10000950:	20003a40 	.word	0x20003a40
10000954:	40054000 	.word	0x40054000
10000958:	20003a48 	.word	0x20003a48

1000095c <tx_start_symbols.part.0.constprop.0>:
1000095c:	b5f0      	push	{r4, r5, r6, r7, lr}
1000095e:	4657      	mov	r7, sl
10000960:	464e      	mov	r6, r9
10000962:	46de      	mov	lr, fp
10000964:	4645      	mov	r5, r8
10000966:	b5e0      	push	{r5, r6, r7, lr}
10000968:	4b41      	ldr	r3, [pc, #260]	@ (10000a70 <tx_start_symbols.part.0.constprop.0+0x114>)
1000096a:	4e42      	ldr	r6, [pc, #264]	@ (10000a74 <tx_start_symbols.part.0.constprop.0+0x118>)
1000096c:	4699      	mov	r9, r3
1000096e:	6835      	ldr	r5, [r6, #0]
10000970:	6873      	ldr	r3, [r6, #4]
10000972:	4682      	mov	sl, r0
10000974:	468b      	mov	fp, r1
10000976:	4c40      	ldr	r4, [pc, #256]	@ (10000a78 <tx_start_symbols.part.0.constprop.0+0x11c>)
10000978:	4f40      	ldr	r7, [pc, #256]	@ (10000a7c <tx_start_symbols.part.0.constprop.0+0x120>)
1000097a:	b083      	sub	sp, #12
1000097c:	431d      	orrs	r5, r3
1000097e:	d024      	beq.n	100009ca <tx_start_symbols.part.0.constprop.0+0x6e>
10000980:	f003 fbdc 	bl	1000413c <time_us_64>
10000984:	6873      	ldr	r3, [r6, #4]
10000986:	428b      	cmp	r3, r1
10000988:	d8fa      	bhi.n	10000980 <tx_start_symbols.part.0.constprop.0+0x24>
1000098a:	d102      	bne.n	10000992 <tx_start_symbols.part.0.constprop.0+0x36>
1000098c:	6833      	ldr	r3, [r6, #0]
1000098e:	4283      	cmp	r3, r0
10000990:	d8f6      	bhi.n	10000980 <tx_start_symbols.part.0.constprop.0+0x24>
10000992:	2501      	movs	r5, #1
10000994:	0028      	movs	r0, r5
10000996:	2200      	movs	r2, #0
10000998:	2300      	movs	r3, #0
1000099a:	6839      	ldr	r1, [r7, #0]
1000099c:	6032      	str	r2, [r6, #0]
1000099e:	6073      	str	r3, [r6, #4]
100009a0:	4088      	lsls	r0, r1
100009a2:	6822      	ldr	r2, [r4, #0]
100009a4:	2105      	movs	r1, #5
100009a6:	6813      	ldr	r3, [r2, #0]
100009a8:	4383      	bics	r3, r0
100009aa:	6013      	str	r3, [r2, #0]
100009ac:	464b      	mov	r3, r9
100009ae:	6818      	ldr	r0, [r3, #0]
100009b0:	f002 fb44 	bl	1000303c <gpio_set_function>
100009b4:	464b      	mov	r3, r9
100009b6:	681b      	ldr	r3, [r3, #0]
100009b8:	22d0      	movs	r2, #208	@ 0xd0
100009ba:	409d      	lsls	r5, r3
100009bc:	0612      	lsls	r2, r2, #24
100009be:	6195      	str	r5, [r2, #24]
100009c0:	6873      	ldr	r3, [r6, #4]
100009c2:	6295      	str	r5, [r2, #40]	@ 0x28
100009c4:	6835      	ldr	r5, [r6, #0]
100009c6:	431d      	orrs	r5, r3
100009c8:	d1da      	bne.n	10000980 <tx_start_symbols.part.0.constprop.0+0x24>
100009ca:	464b      	mov	r3, r9
100009cc:	2107      	movs	r1, #7
100009ce:	6818      	ldr	r0, [r3, #0]
100009d0:	f002 fb34 	bl	1000303c <gpio_set_function>
100009d4:	6839      	ldr	r1, [r7, #0]
100009d6:	6820      	ldr	r0, [r4, #0]
100009d8:	2200      	movs	r2, #0
100009da:	f009 fc21 	bl	1000a220 <pio_sm_set_pins>
100009de:	464b      	mov	r3, r9
100009e0:	6839      	ldr	r1, [r7, #0]
100009e2:	681a      	ldr	r2, [r3, #0]
100009e4:	6820      	ldr	r0, [r4, #0]
100009e6:	2301      	movs	r3, #1
100009e8:	9500      	str	r5, [sp, #0]
100009ea:	f009 fc61 	bl	1000a2b0 <pio_sm_set_consecutive_pindirs>
100009ee:	2001      	movs	r0, #1
100009f0:	6839      	ldr	r1, [r7, #0]
100009f2:	4684      	mov	ip, r0
100009f4:	4088      	lsls	r0, r1
100009f6:	6822      	ldr	r2, [r4, #0]
100009f8:	4d21      	ldr	r5, [pc, #132]	@ (10000a80 <tx_start_symbols.part.0.constprop.0+0x124>)
100009fa:	6813      	ldr	r3, [r2, #0]
100009fc:	4383      	bics	r3, r0
100009fe:	6013      	str	r3, [r2, #0]
10000a00:	004b      	lsls	r3, r1, #1
10000a02:	185b      	adds	r3, r3, r1
10000a04:	00db      	lsls	r3, r3, #3
10000a06:	18d3      	adds	r3, r2, r3
10000a08:	195b      	adds	r3, r3, r5
10000a0a:	2580      	movs	r5, #128	@ 0x80
10000a0c:	062d      	lsls	r5, r5, #24
10000a0e:	601d      	str	r5, [r3, #0]
10000a10:	601d      	str	r5, [r3, #0]
10000a12:	4663      	mov	r3, ip
10000a14:	3104      	adds	r1, #4
10000a16:	408b      	lsls	r3, r1
10000a18:	2180      	movs	r1, #128	@ 0x80
10000a1a:	0189      	lsls	r1, r1, #6
10000a1c:	1851      	adds	r1, r2, r1
10000a1e:	600b      	str	r3, [r1, #0]
10000a20:	6813      	ldr	r3, [r2, #0]
10000a22:	2500      	movs	r5, #0
10000a24:	4318      	orrs	r0, r3
10000a26:	6010      	str	r0, [r2, #0]
10000a28:	f003 fb88 	bl	1000413c <time_us_64>
10000a2c:	6822      	ldr	r2, [r4, #0]
10000a2e:	24a0      	movs	r4, #160	@ 0xa0
10000a30:	683b      	ldr	r3, [r7, #0]
10000a32:	05e4      	lsls	r4, r4, #23
10000a34:	3304      	adds	r3, #4
10000a36:	009b      	lsls	r3, r3, #2
10000a38:	18d2      	adds	r2, r2, r3
10000a3a:	4b12      	ldr	r3, [pc, #72]	@ (10000a84 <tx_start_symbols.part.0.constprop.0+0x128>)
10000a3c:	681b      	ldr	r3, [r3, #0]
10000a3e:	019b      	lsls	r3, r3, #6
10000a40:	191b      	adds	r3, r3, r4
10000a42:	4c11      	ldr	r4, [pc, #68]	@ (10000a88 <tx_start_symbols.part.0.constprop.0+0x12c>)
10000a44:	601c      	str	r4, [r3, #0]
10000a46:	605a      	str	r2, [r3, #4]
10000a48:	4652      	mov	r2, sl
10000a4a:	609a      	str	r2, [r3, #8]
10000a4c:	4a0f      	ldr	r2, [pc, #60]	@ (10000a8c <tx_start_symbols.part.0.constprop.0+0x130>)
10000a4e:	2414      	movs	r4, #20
10000a50:	6812      	ldr	r2, [r2, #0]
10000a52:	60da      	str	r2, [r3, #12]
10000a54:	465a      	mov	r2, fp
10000a56:	2300      	movs	r3, #0
10000a58:	1912      	adds	r2, r2, r4
10000a5a:	416b      	adcs	r3, r5
10000a5c:	1812      	adds	r2, r2, r0
10000a5e:	414b      	adcs	r3, r1
10000a60:	c60c      	stmia	r6!, {r2, r3}
10000a62:	b003      	add	sp, #12
10000a64:	bcf0      	pop	{r4, r5, r6, r7}
10000a66:	46bb      	mov	fp, r7
10000a68:	46b2      	mov	sl, r6
10000a6a:	46a9      	mov	r9, r5
10000a6c:	46a0      	mov	r8, r4
10000a6e:	bdf0      	pop	{r4, r5, r6, r7, pc}
10000a70:	20004a48 	.word	0x20004a48
10000a74:	20001320 	.word	0x20001320
10000a78:	20004a54 	.word	0x20004a54
10000a7c:	20004a58 	.word	0x20004a58
10000a80:	000010d0 	.word	0x000010d0
10000a84:	20004a4c 	.word	0x20004a4c
10000a88:	20001328 	.word	0x20001328
10000a8c:	20004a50 	.word	0x20004a50

10000a90 <cec_init>:
10000a90:	b5f0      	push	{r4, r5, r6, r7, lr}
10000a92:	46ce      	mov	lr, r9
10000a94:	4647      	mov	r7, r8
10000a96:	b580      	push	{r7, lr}
10000a98:	4f4d      	ldr	r7, [pc, #308]	@ (10000bd0 <cec_init+0x140>)
10000a9a:	b089      	sub	sp, #36	@ 0x24
10000a9c:	6038      	str	r0, [r7, #0]
10000a9e:	f002 fb67 	bl	10003170 <gpio_init>
10000aa2:	2301      	movs	r3, #1
10000aa4:	6838      	ldr	r0, [r7, #0]
10000aa6:	22d0      	movs	r2, #208	@ 0xd0
10000aa8:	4083      	lsls	r3, r0
10000aaa:	0612      	lsls	r2, r2, #24
10000aac:	6193      	str	r3, [r2, #24]
10000aae:	210c      	movs	r1, #12
10000ab0:	6293      	str	r3, [r2, #40]	@ 0x28
10000ab2:	2201      	movs	r2, #1
10000ab4:	4b47      	ldr	r3, [pc, #284]	@ (10000bd4 <cec_init+0x144>)
10000ab6:	f002 fb03 	bl	100030c0 <gpio_set_irq_enabled_with_callback>
10000aba:	4e47      	ldr	r6, [pc, #284]	@ (10000bd8 <cec_init+0x148>)
10000abc:	4847      	ldr	r0, [pc, #284]	@ (10000bdc <cec_init+0x14c>)
10000abe:	2101      	movs	r1, #1
10000ac0:	6030      	str	r0, [r6, #0]
10000ac2:	f009 fb15 	bl	1000a0f0 <pio_claim_unused_sm>
10000ac6:	4d46      	ldr	r5, [pc, #280]	@ (10000be0 <cec_init+0x150>)
10000ac8:	4946      	ldr	r1, [pc, #280]	@ (10000be4 <cec_init+0x154>)
10000aca:	6028      	str	r0, [r5, #0]
10000acc:	6830      	ldr	r0, [r6, #0]
10000ace:	f009 fb2b 	bl	1000a128 <pio_add_program>
10000ad2:	2300      	movs	r3, #0
10000ad4:	2280      	movs	r2, #128	@ 0x80
10000ad6:	9303      	str	r3, [sp, #12]
10000ad8:	23f8      	movs	r3, #248	@ 0xf8
10000ada:	0252      	lsls	r2, r2, #9
10000adc:	025b      	lsls	r3, r3, #9
10000ade:	9200      	str	r2, [sp, #0]
10000ae0:	9301      	str	r3, [sp, #4]
10000ae2:	23c0      	movs	r3, #192	@ 0xc0
10000ae4:	0004      	movs	r4, r0
10000ae6:	031b      	lsls	r3, r3, #12
10000ae8:	2210      	movs	r2, #16
10000aea:	4669      	mov	r1, sp
10000aec:	4681      	mov	r9, r0
10000aee:	a804      	add	r0, sp, #16
10000af0:	9302      	str	r3, [sp, #8]
10000af2:	f004 fd81 	bl	100055f8 <__wrap___aeabi_memcpy>
10000af6:	1de3      	adds	r3, r4, #7
10000af8:	01e2      	lsls	r2, r4, #7
10000afa:	031b      	lsls	r3, r3, #12
10000afc:	4313      	orrs	r3, r2
10000afe:	a904      	add	r1, sp, #16
10000b00:	2210      	movs	r2, #16
10000b02:	4668      	mov	r0, sp
10000b04:	9305      	str	r3, [sp, #20]
10000b06:	f004 fd77 	bl	100055f8 <__wrap___aeabi_memcpy>
10000b0a:	22f8      	movs	r2, #248	@ 0xf8
10000b0c:	683b      	ldr	r3, [r7, #0]
10000b0e:	0092      	lsls	r2, r2, #2
10000b10:	015b      	lsls	r3, r3, #5
10000b12:	4013      	ands	r3, r2
10000b14:	2280      	movs	r2, #128	@ 0x80
10000b16:	04d2      	lsls	r2, r2, #19
10000b18:	4313      	orrs	r3, r2
10000b1a:	9303      	str	r3, [sp, #12]
10000b1c:	4b32      	ldr	r3, [pc, #200]	@ (10000be8 <cec_init+0x158>)
10000b1e:	2005      	movs	r0, #5
10000b20:	9302      	str	r3, [sp, #8]
10000b22:	f003 fc0b 	bl	1000433c <clock_get_hz>
10000b26:	f004 fce1 	bl	100054ec <__wrap___aeabi_ui2f>
10000b2a:	4930      	ldr	r1, [pc, #192]	@ (10000bec <cec_init+0x15c>)
10000b2c:	f004 fcc3 	bl	100054b6 <__wrap___aeabi_fdiv>
10000b30:	21ec      	movs	r1, #236	@ 0xec
10000b32:	0589      	lsls	r1, r1, #22
10000b34:	f004 fcbc 	bl	100054b0 <__wrap___aeabi_fadd>
10000b38:	4680      	mov	r8, r0
10000b3a:	f004 fcff 	bl	1000553c <__wrap___aeabi_f2uiz>
10000b3e:	b284      	uxth	r4, r0
10000b40:	2000      	movs	r0, #0
10000b42:	2c00      	cmp	r4, #0
10000b44:	d00e      	beq.n	10000b64 <cec_init+0xd4>
10000b46:	0020      	movs	r0, r4
10000b48:	f004 fcd0 	bl	100054ec <__wrap___aeabi_ui2f>
10000b4c:	1c01      	adds	r1, r0, #0
10000b4e:	4640      	mov	r0, r8
10000b50:	f004 fcab 	bl	100054aa <__wrap___aeabi_fsub>
10000b54:	2187      	movs	r1, #135	@ 0x87
10000b56:	05c9      	lsls	r1, r1, #23
10000b58:	f004 fcc1 	bl	100054de <__wrap___aeabi_fmul>
10000b5c:	f004 fcee 	bl	1000553c <__wrap___aeabi_f2uiz>
10000b60:	b2c0      	uxtb	r0, r0
10000b62:	0200      	lsls	r0, r0, #8
10000b64:	0424      	lsls	r4, r4, #16
10000b66:	4304      	orrs	r4, r0
10000b68:	9400      	str	r4, [sp, #0]
10000b6a:	2401      	movs	r4, #1
10000b6c:	466b      	mov	r3, sp
10000b6e:	464a      	mov	r2, r9
10000b70:	6829      	ldr	r1, [r5, #0]
10000b72:	6830      	ldr	r0, [r6, #0]
10000b74:	f009 fbf4 	bl	1000a360 <pio_sm_init>
10000b78:	0020      	movs	r0, r4
10000b7a:	6829      	ldr	r1, [r5, #0]
10000b7c:	6832      	ldr	r2, [r6, #0]
10000b7e:	4088      	lsls	r0, r1
10000b80:	6813      	ldr	r3, [r2, #0]
10000b82:	2105      	movs	r1, #5
10000b84:	4383      	bics	r3, r0
10000b86:	6013      	str	r3, [r2, #0]
10000b88:	6838      	ldr	r0, [r7, #0]
10000b8a:	f002 fa57 	bl	1000303c <gpio_set_function>
10000b8e:	683b      	ldr	r3, [r7, #0]
10000b90:	2001      	movs	r0, #1
10000b92:	409c      	lsls	r4, r3
10000b94:	23d0      	movs	r3, #208	@ 0xd0
10000b96:	061b      	lsls	r3, r3, #24
10000b98:	619c      	str	r4, [r3, #24]
10000b9a:	629c      	str	r4, [r3, #40]	@ 0x28
10000b9c:	f009 fa98 	bl	1000a0d0 <dma_claim_unused_channel>
10000ba0:	4b13      	ldr	r3, [pc, #76]	@ (10000bf0 <cec_init+0x160>)
10000ba2:	4914      	ldr	r1, [pc, #80]	@ (10000bf4 <cec_init+0x164>)
10000ba4:	6018      	str	r0, [r3, #0]
10000ba6:	6833      	ldr	r3, [r6, #0]
10000ba8:	02c0      	lsls	r0, r0, #11
10000baa:	185b      	adds	r3, r3, r1
10000bac:	0d1b      	lsrs	r3, r3, #20
10000bae:	6829      	ldr	r1, [r5, #0]
10000bb0:	00db      	lsls	r3, r3, #3
10000bb2:	185b      	adds	r3, r3, r1
10000bb4:	4910      	ldr	r1, [pc, #64]	@ (10000bf8 <cec_init+0x168>)
10000bb6:	03db      	lsls	r3, r3, #15
10000bb8:	4008      	ands	r0, r1
10000bba:	2119      	movs	r1, #25
10000bbc:	4a0f      	ldr	r2, [pc, #60]	@ (10000bfc <cec_init+0x16c>)
10000bbe:	4303      	orrs	r3, r0
10000bc0:	430b      	orrs	r3, r1
10000bc2:	6013      	str	r3, [r2, #0]
10000bc4:	b009      	add	sp, #36	@ 0x24
10000bc6:	bcc0      	pop	{r6, r7}
10000bc8:	46b9      	mov	r9, r7
10000bca:	46b0      	mov	r8, r6
10000bcc:	bdf0      	pop	{r4, r5, r6, r7, pc}
10000bce:	46c0      	nop			@ (mov r8, r8)
10000bd0:	20004a48 	.word	0x20004a48
10000bd4:	100008e5 	.word	0x100008e5
10000bd8:	20004a54 	.word	0x20004a54
10000bdc:	50300000 	.word	0x50300000
10000be0:	20004a58 	.word	0x20004a58
10000be4:	1000b308 	.word	0x1000b308
10000be8:	400c0000 	.word	0x400c0000
10000bec:	49742400 	.word	0x49742400
10000bf0:	20004a4c 	.word	0x20004a4c
10000bf4:	afe00000 	.word	0xafe00000
10000bf8:	ff007fff 	.word	0xff007fff
10000bfc:	20004a50 	.word	0x20004a50

10000c00 <cec_bus_is_high>:
10000c00:	23d0      	movs	r3, #208	@ 0xd0
10000c02:	061b      	lsls	r3, r3, #24
10000c04:	6858      	ldr	r0, [r3, #4]
10000c06:	4b04      	ldr	r3, [pc, #16]	@ (10000c18 <cec_bus_is_high+0x18>)
10000c08:	681a      	ldr	r2, [r3, #0]
10000c0a:	2301      	movs	r3, #1
10000c0c:	4093      	lsls	r3, r2
10000c0e:	4018      	ands	r0, r3
10000c10:	1e43      	subs	r3, r0, #1
10000c12:	4198      	sbcs	r0, r3
10000c14:	b2c0      	uxtb	r0, r0
10000c16:	4770      	bx	lr
10000c18:	20004a48 	.word	0x20004a48

10000c1c <cec_set_logical_address>:
10000c1c:	220f      	movs	r2, #15
10000c1e:	4b02      	ldr	r3, [pc, #8]	@ (10000c28 <cec_set_logical_address+0xc>)
10000c20:	4002      	ands	r2, r0
10000c22:	701a      	strb	r2, [r3, #0]
10000c24:	4770      	bx	lr
10000c26:	46c0      	nop			@ (mov r8, r8)
10000c28:	2000f074 	.word	0x2000f074

10000c2c <cec_send_frame>:
10000c2c:	b5f0      	push	{r4, r5, r6, r7, lr}
10000c2e:	4657      	mov	r7, sl
10000c30:	46de      	mov	lr, fp
10000c32:	464e      	mov	r6, r9
10000c34:	4645      	mov	r5, r8
10000c36:	b5e0      	push	{r5, r6, r7, lr}
10000c38:	1e4b      	subs	r3, r1, #1
10000c3a:	b085      	sub	sp, #20
10000c3c:	4682      	mov	sl, r0
10000c3e:	9101      	str	r1, [sp, #4]
10000c40:	9300      	str	r3, [sp, #0]
10000c42:	2b0f      	cmp	r3, #15
10000c44:	d909      	bls.n	10000c5a <cec_send_frame+0x2e>
10000c46:	2300      	movs	r3, #0
10000c48:	469b      	mov	fp, r3
10000c4a:	4658      	mov	r0, fp
10000c4c:	b005      	add	sp, #20
10000c4e:	bcf0      	pop	{r4, r5, r6, r7}
10000c50:	46bb      	mov	fp, r7
10000c52:	46b2      	mov	sl, r6
10000c54:	46a9      	mov	r9, r5
10000c56:	46a0      	mov	r8, r4
10000c58:	bdf0      	pop	{r4, r5, r6, r7, pc}
10000c5a:	f003 fa6f 	bl	1000413c <time_us_64>
10000c5e:	23d0      	movs	r3, #208	@ 0xd0
10000c60:	2700      	movs	r7, #0
10000c62:	061b      	lsls	r3, r3, #24
10000c64:	4699      	mov	r9, r3
10000c66:	4e04      	ldr	r6, [pc, #16]	@ (10000c78 <cec_send_frame+0x4c>)
10000c68:	4b04      	ldr	r3, [pc, #16]	@ (10000c7c <cec_send_frame+0x50>)
10000c6a:	1836      	adds	r6, r6, r0
10000c6c:	414f      	adcs	r7, r1
10000c6e:	2400      	movs	r4, #0
10000c70:	2500      	movs	r5, #0
10000c72:	4698      	mov	r8, r3
10000c74:	e00c      	b.n	10000c90 <cec_send_frame+0x64>
10000c76:	46c0      	nop			@ (mov r8, r8)
10000c78:	000186a0 	.word	0x000186a0
10000c7c:	20004a48 	.word	0x20004a48
10000c80:	f003 fa5c 	bl	1000413c <time_us_64>
10000c84:	0004      	movs	r4, r0
10000c86:	000d      	movs	r5, r1
10000c88:	2032      	movs	r0, #50	@ 0x32
10000c8a:	2100      	movs	r1, #0
10000c8c:	f003 f8d0 	bl	10003e30 <sleep_us>
10000c90:	f003 fa54 	bl	1000413c <time_us_64>
10000c94:	428f      	cmp	r7, r1
10000c96:	d800      	bhi.n	10000c9a <cec_send_frame+0x6e>
10000c98:	e1b5      	b.n	10001006 <cec_send_frame+0x3da>
10000c9a:	464b      	mov	r3, r9
10000c9c:	685a      	ldr	r2, [r3, #4]
10000c9e:	4643      	mov	r3, r8
10000ca0:	6819      	ldr	r1, [r3, #0]
10000ca2:	2301      	movs	r3, #1
10000ca4:	408b      	lsls	r3, r1
10000ca6:	421a      	tst	r2, r3
10000ca8:	d100      	bne.n	10000cac <cec_send_frame+0x80>
10000caa:	e1a9      	b.n	10001000 <cec_send_frame+0x3d4>
10000cac:	0023      	movs	r3, r4
10000cae:	432b      	orrs	r3, r5
10000cb0:	d0e6      	beq.n	10000c80 <cec_send_frame+0x54>
10000cb2:	f003 fa43 	bl	1000413c <time_us_64>
10000cb6:	1b00      	subs	r0, r0, r4
10000cb8:	41a9      	sbcs	r1, r5
10000cba:	2900      	cmp	r1, #0
10000cbc:	d102      	bne.n	10000cc4 <cec_send_frame+0x98>
10000cbe:	4bd5      	ldr	r3, [pc, #852]	@ (10001014 <cec_send_frame+0x3e8>)
10000cc0:	4298      	cmp	r0, r3
10000cc2:	d9e1      	bls.n	10000c88 <cec_send_frame+0x5c>
10000cc4:	4643      	mov	r3, r8
10000cc6:	2200      	movs	r2, #0
10000cc8:	210c      	movs	r1, #12
10000cca:	6818      	ldr	r0, [r3, #0]
10000ccc:	f002 f9ce 	bl	1000306c <gpio_set_irq_enabled>
10000cd0:	4651      	mov	r1, sl
10000cd2:	220f      	movs	r2, #15
10000cd4:	780b      	ldrb	r3, [r1, #0]
10000cd6:	4cd0      	ldr	r4, [pc, #832]	@ (10001018 <cec_send_frame+0x3ec>)
10000cd8:	401a      	ands	r2, r3
10000cda:	4693      	mov	fp, r2
10000cdc:	4bcf      	ldr	r3, [pc, #828]	@ (1000101c <cec_send_frame+0x3f0>)
10000cde:	4ad0      	ldr	r2, [pc, #832]	@ (10001020 <cec_send_frame+0x3f4>)
10000ce0:	6022      	str	r2, [r4, #0]
10000ce2:	6063      	str	r3, [r4, #4]
10000ce4:	780b      	ldrb	r3, [r1, #0]
10000ce6:	11db      	asrs	r3, r3, #7
10000ce8:	d000      	beq.n	10000cec <cec_send_frame+0xc0>
10000cea:	e1c1      	b.n	10001070 <cec_send_frame+0x444>
10000cec:	4bcd      	ldr	r3, [pc, #820]	@ (10001024 <cec_send_frame+0x3f8>)
10000cee:	4ace      	ldr	r2, [pc, #824]	@ (10001028 <cec_send_frame+0x3fc>)
10000cf0:	60a2      	str	r2, [r4, #8]
10000cf2:	60e3      	str	r3, [r4, #12]
10000cf4:	4653      	mov	r3, sl
10000cf6:	781b      	ldrb	r3, [r3, #0]
10000cf8:	065b      	lsls	r3, r3, #25
10000cfa:	d400      	bmi.n	10000cfe <cec_send_frame+0xd2>
10000cfc:	e1c1      	b.n	10001082 <cec_send_frame+0x456>
10000cfe:	4bcb      	ldr	r3, [pc, #812]	@ (1000102c <cec_send_frame+0x400>)
10000d00:	4acb      	ldr	r2, [pc, #812]	@ (10001030 <cec_send_frame+0x404>)
10000d02:	6122      	str	r2, [r4, #16]
10000d04:	6163      	str	r3, [r4, #20]
10000d06:	4653      	mov	r3, sl
10000d08:	781b      	ldrb	r3, [r3, #0]
10000d0a:	069b      	lsls	r3, r3, #26
10000d0c:	d400      	bmi.n	10000d10 <cec_send_frame+0xe4>
10000d0e:	e1c1      	b.n	10001094 <cec_send_frame+0x468>
10000d10:	4bc6      	ldr	r3, [pc, #792]	@ (1000102c <cec_send_frame+0x400>)
10000d12:	4ac7      	ldr	r2, [pc, #796]	@ (10001030 <cec_send_frame+0x404>)
10000d14:	61a2      	str	r2, [r4, #24]
10000d16:	61e3      	str	r3, [r4, #28]
10000d18:	4653      	mov	r3, sl
10000d1a:	781b      	ldrb	r3, [r3, #0]
10000d1c:	06db      	lsls	r3, r3, #27
10000d1e:	d400      	bmi.n	10000d22 <cec_send_frame+0xf6>
10000d20:	e1c1      	b.n	100010a6 <cec_send_frame+0x47a>
10000d22:	4bc2      	ldr	r3, [pc, #776]	@ (1000102c <cec_send_frame+0x400>)
10000d24:	4ac2      	ldr	r2, [pc, #776]	@ (10001030 <cec_send_frame+0x404>)
10000d26:	6222      	str	r2, [r4, #32]
10000d28:	6263      	str	r3, [r4, #36]	@ 0x24
10000d2a:	4653      	mov	r3, sl
10000d2c:	781b      	ldrb	r3, [r3, #0]
10000d2e:	071b      	lsls	r3, r3, #28
10000d30:	d400      	bmi.n	10000d34 <cec_send_frame+0x108>
10000d32:	e1c1      	b.n	100010b8 <cec_send_frame+0x48c>
10000d34:	4bbd      	ldr	r3, [pc, #756]	@ (1000102c <cec_send_frame+0x400>)
10000d36:	4abe      	ldr	r2, [pc, #760]	@ (10001030 <cec_send_frame+0x404>)
10000d38:	62a2      	str	r2, [r4, #40]	@ 0x28
10000d3a:	62e3      	str	r3, [r4, #44]	@ 0x2c
10000d3c:	4653      	mov	r3, sl
10000d3e:	781b      	ldrb	r3, [r3, #0]
10000d40:	075b      	lsls	r3, r3, #29
10000d42:	d400      	bmi.n	10000d46 <cec_send_frame+0x11a>
10000d44:	e1c1      	b.n	100010ca <cec_send_frame+0x49e>
10000d46:	4bb9      	ldr	r3, [pc, #740]	@ (1000102c <cec_send_frame+0x400>)
10000d48:	4ab9      	ldr	r2, [pc, #740]	@ (10001030 <cec_send_frame+0x404>)
10000d4a:	6322      	str	r2, [r4, #48]	@ 0x30
10000d4c:	6363      	str	r3, [r4, #52]	@ 0x34
10000d4e:	4653      	mov	r3, sl
10000d50:	781b      	ldrb	r3, [r3, #0]
10000d52:	079b      	lsls	r3, r3, #30
10000d54:	d400      	bmi.n	10000d58 <cec_send_frame+0x12c>
10000d56:	e1c1      	b.n	100010dc <cec_send_frame+0x4b0>
10000d58:	4bb4      	ldr	r3, [pc, #720]	@ (1000102c <cec_send_frame+0x400>)
10000d5a:	4ab5      	ldr	r2, [pc, #724]	@ (10001030 <cec_send_frame+0x404>)
10000d5c:	63a2      	str	r2, [r4, #56]	@ 0x38
10000d5e:	63e3      	str	r3, [r4, #60]	@ 0x3c
10000d60:	4653      	mov	r3, sl
10000d62:	781b      	ldrb	r3, [r3, #0]
10000d64:	07db      	lsls	r3, r3, #31
10000d66:	d400      	bmi.n	10000d6a <cec_send_frame+0x13e>
10000d68:	e1c1      	b.n	100010ee <cec_send_frame+0x4c2>
10000d6a:	4bb0      	ldr	r3, [pc, #704]	@ (1000102c <cec_send_frame+0x400>)
10000d6c:	4ab0      	ldr	r2, [pc, #704]	@ (10001030 <cec_send_frame+0x404>)
10000d6e:	6422      	str	r2, [r4, #64]	@ 0x40
10000d70:	6463      	str	r3, [r4, #68]	@ 0x44
10000d72:	9b00      	ldr	r3, [sp, #0]
10000d74:	2b00      	cmp	r3, #0
10000d76:	d000      	beq.n	10000d7a <cec_send_frame+0x14e>
10000d78:	e1c1      	b.n	100010fe <cec_send_frame+0x4d2>
10000d7a:	4aad      	ldr	r2, [pc, #692]	@ (10001030 <cec_send_frame+0x404>)
10000d7c:	4bab      	ldr	r3, [pc, #684]	@ (1000102c <cec_send_frame+0x400>)
10000d7e:	2014      	movs	r0, #20
10000d80:	49ac      	ldr	r1, [pc, #688]	@ (10001034 <cec_send_frame+0x408>)
10000d82:	64a2      	str	r2, [r4, #72]	@ 0x48
10000d84:	64e3      	str	r3, [r4, #76]	@ 0x4c
10000d86:	f7ff fde9 	bl	1000095c <tx_start_symbols.part.0.constprop.0>
10000d8a:	4dab      	ldr	r5, [pc, #684]	@ (10001038 <cec_send_frame+0x40c>)
10000d8c:	4647      	mov	r7, r8
10000d8e:	682b      	ldr	r3, [r5, #0]
10000d90:	686a      	ldr	r2, [r5, #4]
10000d92:	4313      	orrs	r3, r2
10000d94:	d024      	beq.n	10000de0 <cec_send_frame+0x1b4>
10000d96:	f003 f9d1 	bl	1000413c <time_us_64>
10000d9a:	686b      	ldr	r3, [r5, #4]
10000d9c:	428b      	cmp	r3, r1
10000d9e:	d8fa      	bhi.n	10000d96 <cec_send_frame+0x16a>
10000da0:	d102      	bne.n	10000da8 <cec_send_frame+0x17c>
10000da2:	682b      	ldr	r3, [r5, #0]
10000da4:	4283      	cmp	r3, r0
10000da6:	d8f6      	bhi.n	10000d96 <cec_send_frame+0x16a>
10000da8:	2601      	movs	r6, #1
10000daa:	2200      	movs	r2, #0
10000dac:	2300      	movs	r3, #0
10000dae:	0030      	movs	r0, r6
10000db0:	602a      	str	r2, [r5, #0]
10000db2:	606b      	str	r3, [r5, #4]
10000db4:	4aa1      	ldr	r2, [pc, #644]	@ (1000103c <cec_send_frame+0x410>)
10000db6:	4ba2      	ldr	r3, [pc, #648]	@ (10001040 <cec_send_frame+0x414>)
10000db8:	6812      	ldr	r2, [r2, #0]
10000dba:	6819      	ldr	r1, [r3, #0]
10000dbc:	4090      	lsls	r0, r2
10000dbe:	680b      	ldr	r3, [r1, #0]
10000dc0:	4383      	bics	r3, r0
10000dc2:	600b      	str	r3, [r1, #0]
10000dc4:	6838      	ldr	r0, [r7, #0]
10000dc6:	2105      	movs	r1, #5
10000dc8:	f002 f938 	bl	1000303c <gpio_set_function>
10000dcc:	683b      	ldr	r3, [r7, #0]
10000dce:	686a      	ldr	r2, [r5, #4]
10000dd0:	409e      	lsls	r6, r3
10000dd2:	23d0      	movs	r3, #208	@ 0xd0
10000dd4:	061b      	lsls	r3, r3, #24
10000dd6:	619e      	str	r6, [r3, #24]
10000dd8:	629e      	str	r6, [r3, #40]	@ 0x28
10000dda:	682b      	ldr	r3, [r5, #0]
10000ddc:	4313      	orrs	r3, r2
10000dde:	d1da      	bne.n	10000d96 <cec_send_frame+0x16a>
10000de0:	46b8      	mov	r8, r7
10000de2:	2701      	movs	r7, #1
10000de4:	4643      	mov	r3, r8
10000de6:	003a      	movs	r2, r7
10000de8:	681b      	ldr	r3, [r3, #0]
10000dea:	26d0      	movs	r6, #208	@ 0xd0
10000dec:	409a      	lsls	r2, r3
10000dee:	2096      	movs	r0, #150	@ 0x96
10000df0:	0636      	lsls	r6, r6, #24
10000df2:	61b2      	str	r2, [r6, #24]
10000df4:	2100      	movs	r1, #0
10000df6:	6272      	str	r2, [r6, #36]	@ 0x24
10000df8:	0080      	lsls	r0, r0, #2
10000dfa:	f003 f819 	bl	10003e30 <sleep_us>
10000dfe:	4643      	mov	r3, r8
10000e00:	003a      	movs	r2, r7
10000e02:	681b      	ldr	r3, [r3, #0]
10000e04:	20e1      	movs	r0, #225	@ 0xe1
10000e06:	409a      	lsls	r2, r3
10000e08:	2100      	movs	r1, #0
10000e0a:	62b2      	str	r2, [r6, #40]	@ 0x28
10000e0c:	0040      	lsls	r0, r0, #1
10000e0e:	f003 f80f 	bl	10003e30 <sleep_us>
10000e12:	4643      	mov	r3, r8
10000e14:	681b      	ldr	r3, [r3, #0]
10000e16:	2100      	movs	r1, #0
10000e18:	4699      	mov	r9, r3
10000e1a:	488a      	ldr	r0, [pc, #552]	@ (10001044 <cec_send_frame+0x418>)
10000e1c:	6876      	ldr	r6, [r6, #4]
10000e1e:	f003 f807 	bl	10003e30 <sleep_us>
10000e22:	464b      	mov	r3, r9
10000e24:	465a      	mov	r2, fp
10000e26:	409f      	lsls	r7, r3
10000e28:	3a0f      	subs	r2, #15
10000e2a:	403e      	ands	r6, r7
10000e2c:	4273      	negs	r3, r6
10000e2e:	415e      	adcs	r6, r3
10000e30:	4253      	negs	r3, r2
10000e32:	4153      	adcs	r3, r2
10000e34:	9901      	ldr	r1, [sp, #4]
10000e36:	405e      	eors	r6, r3
10000e38:	46b3      	mov	fp, r6
10000e3a:	2901      	cmp	r1, #1
10000e3c:	d100      	bne.n	10000e40 <cec_send_frame+0x214>
10000e3e:	e0bf      	b.n	10000fc0 <cec_send_frame+0x394>
10000e40:	4657      	mov	r7, sl
10000e42:	468c      	mov	ip, r1
10000e44:	1e7b      	subs	r3, r7, #1
10000e46:	2601      	movs	r6, #1
10000e48:	449c      	add	ip, r3
10000e4a:	46e2      	mov	sl, ip
10000e4c:	1bf3      	subs	r3, r6, r7
10000e4e:	9302      	str	r3, [sp, #8]
10000e50:	9203      	str	r2, [sp, #12]
10000e52:	787b      	ldrb	r3, [r7, #1]
10000e54:	11db      	asrs	r3, r3, #7
10000e56:	d000      	beq.n	10000e5a <cec_send_frame+0x22e>
10000e58:	e169      	b.n	1000112e <cec_send_frame+0x502>
10000e5a:	4b72      	ldr	r3, [pc, #456]	@ (10001024 <cec_send_frame+0x3f8>)
10000e5c:	4a72      	ldr	r2, [pc, #456]	@ (10001028 <cec_send_frame+0x3fc>)
10000e5e:	6022      	str	r2, [r4, #0]
10000e60:	6063      	str	r3, [r4, #4]
10000e62:	787b      	ldrb	r3, [r7, #1]
10000e64:	119b      	asrs	r3, r3, #6
10000e66:	421e      	tst	r6, r3
10000e68:	d000      	beq.n	10000e6c <cec_send_frame+0x240>
10000e6a:	e169      	b.n	10001140 <cec_send_frame+0x514>
10000e6c:	4a6e      	ldr	r2, [pc, #440]	@ (10001028 <cec_send_frame+0x3fc>)
10000e6e:	4b6d      	ldr	r3, [pc, #436]	@ (10001024 <cec_send_frame+0x3f8>)
10000e70:	60a2      	str	r2, [r4, #8]
10000e72:	60e3      	str	r3, [r4, #12]
10000e74:	787b      	ldrb	r3, [r7, #1]
10000e76:	115b      	asrs	r3, r3, #5
10000e78:	421e      	tst	r6, r3
10000e7a:	d000      	beq.n	10000e7e <cec_send_frame+0x252>
10000e7c:	e154      	b.n	10001128 <cec_send_frame+0x4fc>
10000e7e:	4a6a      	ldr	r2, [pc, #424]	@ (10001028 <cec_send_frame+0x3fc>)
10000e80:	4b68      	ldr	r3, [pc, #416]	@ (10001024 <cec_send_frame+0x3f8>)
10000e82:	6122      	str	r2, [r4, #16]
10000e84:	6163      	str	r3, [r4, #20]
10000e86:	787b      	ldrb	r3, [r7, #1]
10000e88:	111b      	asrs	r3, r3, #4
10000e8a:	421e      	tst	r6, r3
10000e8c:	d000      	beq.n	10000e90 <cec_send_frame+0x264>
10000e8e:	e148      	b.n	10001122 <cec_send_frame+0x4f6>
10000e90:	4a65      	ldr	r2, [pc, #404]	@ (10001028 <cec_send_frame+0x3fc>)
10000e92:	4b64      	ldr	r3, [pc, #400]	@ (10001024 <cec_send_frame+0x3f8>)
10000e94:	61a2      	str	r2, [r4, #24]
10000e96:	61e3      	str	r3, [r4, #28]
10000e98:	787b      	ldrb	r3, [r7, #1]
10000e9a:	10db      	asrs	r3, r3, #3
10000e9c:	421e      	tst	r6, r3
10000e9e:	d000      	beq.n	10000ea2 <cec_send_frame+0x276>
10000ea0:	e13c      	b.n	1000111c <cec_send_frame+0x4f0>
10000ea2:	4a61      	ldr	r2, [pc, #388]	@ (10001028 <cec_send_frame+0x3fc>)
10000ea4:	4b5f      	ldr	r3, [pc, #380]	@ (10001024 <cec_send_frame+0x3f8>)
10000ea6:	6222      	str	r2, [r4, #32]
10000ea8:	6263      	str	r3, [r4, #36]	@ 0x24
10000eaa:	787b      	ldrb	r3, [r7, #1]
10000eac:	109b      	asrs	r3, r3, #2
10000eae:	421e      	tst	r6, r3
10000eb0:	d000      	beq.n	10000eb4 <cec_send_frame+0x288>
10000eb2:	e130      	b.n	10001116 <cec_send_frame+0x4ea>
10000eb4:	4a5c      	ldr	r2, [pc, #368]	@ (10001028 <cec_send_frame+0x3fc>)
10000eb6:	4b5b      	ldr	r3, [pc, #364]	@ (10001024 <cec_send_frame+0x3f8>)
10000eb8:	62a2      	str	r2, [r4, #40]	@ 0x28
10000eba:	62e3      	str	r3, [r4, #44]	@ 0x2c
10000ebc:	787b      	ldrb	r3, [r7, #1]
10000ebe:	105b      	asrs	r3, r3, #1
10000ec0:	421e      	tst	r6, r3
10000ec2:	d000      	beq.n	10000ec6 <cec_send_frame+0x29a>
10000ec4:	e124      	b.n	10001110 <cec_send_frame+0x4e4>
10000ec6:	4a58      	ldr	r2, [pc, #352]	@ (10001028 <cec_send_frame+0x3fc>)
10000ec8:	4b56      	ldr	r3, [pc, #344]	@ (10001024 <cec_send_frame+0x3f8>)
10000eca:	6322      	str	r2, [r4, #48]	@ 0x30
10000ecc:	6363      	str	r3, [r4, #52]	@ 0x34
10000ece:	787b      	ldrb	r3, [r7, #1]
10000ed0:	421e      	tst	r6, r3
10000ed2:	d000      	beq.n	10000ed6 <cec_send_frame+0x2aa>
10000ed4:	e119      	b.n	1000110a <cec_send_frame+0x4de>
10000ed6:	4a54      	ldr	r2, [pc, #336]	@ (10001028 <cec_send_frame+0x3fc>)
10000ed8:	4b52      	ldr	r3, [pc, #328]	@ (10001024 <cec_send_frame+0x3f8>)
10000eda:	63a2      	str	r2, [r4, #56]	@ 0x38
10000edc:	63e3      	str	r3, [r4, #60]	@ 0x3c
10000ede:	9b02      	ldr	r3, [sp, #8]
10000ee0:	9a00      	ldr	r2, [sp, #0]
10000ee2:	19db      	adds	r3, r3, r7
10000ee4:	429a      	cmp	r2, r3
10000ee6:	d100      	bne.n	10000eea <cec_send_frame+0x2be>
10000ee8:	e10c      	b.n	10001104 <cec_send_frame+0x4d8>
10000eea:	4a4f      	ldr	r2, [pc, #316]	@ (10001028 <cec_send_frame+0x3fc>)
10000eec:	4b4d      	ldr	r3, [pc, #308]	@ (10001024 <cec_send_frame+0x3f8>)
10000eee:	2012      	movs	r0, #18
10000ef0:	4955      	ldr	r1, [pc, #340]	@ (10001048 <cec_send_frame+0x41c>)
10000ef2:	6422      	str	r2, [r4, #64]	@ 0x40
10000ef4:	6463      	str	r3, [r4, #68]	@ 0x44
10000ef6:	f7ff fd31 	bl	1000095c <tx_start_symbols.part.0.constprop.0>
10000efa:	682b      	ldr	r3, [r5, #0]
10000efc:	686a      	ldr	r2, [r5, #4]
10000efe:	4313      	orrs	r3, r2
10000f00:	d026      	beq.n	10000f50 <cec_send_frame+0x324>
10000f02:	f003 f91b 	bl	1000413c <time_us_64>
10000f06:	686b      	ldr	r3, [r5, #4]
10000f08:	428b      	cmp	r3, r1
10000f0a:	d8fa      	bhi.n	10000f02 <cec_send_frame+0x2d6>
10000f0c:	d102      	bne.n	10000f14 <cec_send_frame+0x2e8>
10000f0e:	682b      	ldr	r3, [r5, #0]
10000f10:	4283      	cmp	r3, r0
10000f12:	d8f6      	bhi.n	10000f02 <cec_send_frame+0x2d6>
10000f14:	0030      	movs	r0, r6
10000f16:	2200      	movs	r2, #0
10000f18:	2300      	movs	r3, #0
10000f1a:	4948      	ldr	r1, [pc, #288]	@ (1000103c <cec_send_frame+0x410>)
10000f1c:	602a      	str	r2, [r5, #0]
10000f1e:	606b      	str	r3, [r5, #4]
10000f20:	6809      	ldr	r1, [r1, #0]
10000f22:	4b47      	ldr	r3, [pc, #284]	@ (10001040 <cec_send_frame+0x414>)
10000f24:	4088      	lsls	r0, r1
10000f26:	681a      	ldr	r2, [r3, #0]
10000f28:	2105      	movs	r1, #5
10000f2a:	6813      	ldr	r3, [r2, #0]
10000f2c:	4383      	bics	r3, r0
10000f2e:	6013      	str	r3, [r2, #0]
10000f30:	4643      	mov	r3, r8
10000f32:	6818      	ldr	r0, [r3, #0]
10000f34:	f002 f882 	bl	1000303c <gpio_set_function>
10000f38:	4643      	mov	r3, r8
10000f3a:	0032      	movs	r2, r6
10000f3c:	681b      	ldr	r3, [r3, #0]
10000f3e:	409a      	lsls	r2, r3
10000f40:	23d0      	movs	r3, #208	@ 0xd0
10000f42:	061b      	lsls	r3, r3, #24
10000f44:	619a      	str	r2, [r3, #24]
10000f46:	629a      	str	r2, [r3, #40]	@ 0x28
10000f48:	682b      	ldr	r3, [r5, #0]
10000f4a:	686a      	ldr	r2, [r5, #4]
10000f4c:	4313      	orrs	r3, r2
10000f4e:	d1d8      	bne.n	10000f02 <cec_send_frame+0x2d6>
10000f50:	4643      	mov	r3, r8
10000f52:	0032      	movs	r2, r6
10000f54:	681b      	ldr	r3, [r3, #0]
10000f56:	2096      	movs	r0, #150	@ 0x96
10000f58:	409a      	lsls	r2, r3
10000f5a:	0013      	movs	r3, r2
10000f5c:	22d0      	movs	r2, #208	@ 0xd0
10000f5e:	0612      	lsls	r2, r2, #24
10000f60:	6193      	str	r3, [r2, #24]
10000f62:	2100      	movs	r1, #0
10000f64:	6253      	str	r3, [r2, #36]	@ 0x24
10000f66:	0080      	lsls	r0, r0, #2
10000f68:	4691      	mov	r9, r2
10000f6a:	f002 ff61 	bl	10003e30 <sleep_us>
10000f6e:	4643      	mov	r3, r8
10000f70:	0032      	movs	r2, r6
10000f72:	681b      	ldr	r3, [r3, #0]
10000f74:	20e1      	movs	r0, #225	@ 0xe1
10000f76:	409a      	lsls	r2, r3
10000f78:	0013      	movs	r3, r2
10000f7a:	464a      	mov	r2, r9
10000f7c:	2100      	movs	r1, #0
10000f7e:	6293      	str	r3, [r2, #40]	@ 0x28
10000f80:	0040      	lsls	r0, r0, #1
10000f82:	f002 ff55 	bl	10003e30 <sleep_us>
10000f86:	4643      	mov	r3, r8
10000f88:	681b      	ldr	r3, [r3, #0]
10000f8a:	2100      	movs	r1, #0
10000f8c:	9301      	str	r3, [sp, #4]
10000f8e:	464b      	mov	r3, r9
10000f90:	685b      	ldr	r3, [r3, #4]
10000f92:	482c      	ldr	r0, [pc, #176]	@ (10001044 <cec_send_frame+0x418>)
10000f94:	4699      	mov	r9, r3
10000f96:	f002 ff4b 	bl	10003e30 <sleep_us>
10000f9a:	465b      	mov	r3, fp
10000f9c:	2b00      	cmp	r3, #0
10000f9e:	d00b      	beq.n	10000fb8 <cec_send_frame+0x38c>
10000fa0:	0031      	movs	r1, r6
10000fa2:	9a01      	ldr	r2, [sp, #4]
10000fa4:	4091      	lsls	r1, r2
10000fa6:	464a      	mov	r2, r9
10000fa8:	400a      	ands	r2, r1
10000faa:	9903      	ldr	r1, [sp, #12]
10000fac:	4253      	negs	r3, r2
10000fae:	4153      	adcs	r3, r2
10000fb0:	424a      	negs	r2, r1
10000fb2:	414a      	adcs	r2, r1
10000fb4:	4053      	eors	r3, r2
10000fb6:	469b      	mov	fp, r3
10000fb8:	3701      	adds	r7, #1
10000fba:	45ba      	cmp	sl, r7
10000fbc:	d000      	beq.n	10000fc0 <cec_send_frame+0x394>
10000fbe:	e748      	b.n	10000e52 <cec_send_frame+0x226>
10000fc0:	4643      	mov	r3, r8
10000fc2:	6818      	ldr	r0, [r3, #0]
10000fc4:	2301      	movs	r3, #1
10000fc6:	22d0      	movs	r2, #208	@ 0xd0
10000fc8:	4083      	lsls	r3, r0
10000fca:	0612      	lsls	r2, r2, #24
10000fcc:	6293      	str	r3, [r2, #40]	@ 0x28
10000fce:	4b1f      	ldr	r3, [pc, #124]	@ (1000104c <cec_send_frame+0x420>)
10000fd0:	210c      	movs	r1, #12
10000fd2:	681a      	ldr	r2, [r3, #0]
10000fd4:	4b1e      	ldr	r3, [pc, #120]	@ (10001050 <cec_send_frame+0x424>)
10000fd6:	601a      	str	r2, [r3, #0]
10000fd8:	2300      	movs	r3, #0
10000fda:	4a1e      	ldr	r2, [pc, #120]	@ (10001054 <cec_send_frame+0x428>)
10000fdc:	7013      	strb	r3, [r2, #0]
10000fde:	4a1e      	ldr	r2, [pc, #120]	@ (10001058 <cec_send_frame+0x42c>)
10000fe0:	6113      	str	r3, [r2, #16]
10000fe2:	7513      	strb	r3, [r2, #20]
10000fe4:	4a1d      	ldr	r2, [pc, #116]	@ (1000105c <cec_send_frame+0x430>)
10000fe6:	7013      	strb	r3, [r2, #0]
10000fe8:	4a1d      	ldr	r2, [pc, #116]	@ (10001060 <cec_send_frame+0x434>)
10000fea:	6013      	str	r3, [r2, #0]
10000fec:	4a1d      	ldr	r2, [pc, #116]	@ (10001064 <cec_send_frame+0x438>)
10000fee:	7013      	strb	r3, [r2, #0]
10000ff0:	4a1d      	ldr	r2, [pc, #116]	@ (10001068 <cec_send_frame+0x43c>)
10000ff2:	7013      	strb	r3, [r2, #0]
10000ff4:	4a1d      	ldr	r2, [pc, #116]	@ (1000106c <cec_send_frame+0x440>)
10000ff6:	7013      	strb	r3, [r2, #0]
10000ff8:	2201      	movs	r2, #1
10000ffa:	f002 f837 	bl	1000306c <gpio_set_irq_enabled>
10000ffe:	e624      	b.n	10000c4a <cec_send_frame+0x1e>
10001000:	2400      	movs	r4, #0
10001002:	2500      	movs	r5, #0
10001004:	e640      	b.n	10000c88 <cec_send_frame+0x5c>
10001006:	428f      	cmp	r7, r1
10001008:	d000      	beq.n	1000100c <cec_send_frame+0x3e0>
1000100a:	e61c      	b.n	10000c46 <cec_send_frame+0x1a>
1000100c:	4286      	cmp	r6, r0
1000100e:	d900      	bls.n	10001012 <cec_send_frame+0x3e6>
10001010:	e643      	b.n	10000c9a <cec_send_frame+0x6e>
10001012:	e618      	b.n	10000c46 <cec_send_frame+0x1a>
10001014:	00001387 	.word	0x00001387
10001018:	20001328 	.word	0x20001328
1000101c:	0000031e 	.word	0x0000031e
10001020:	00000e72 	.word	0x00000e72
10001024:	00000382 	.word	0x00000382
10001028:	000005da 	.word	0x000005da
1000102c:	00000706 	.word	0x00000706
10001030:	00000256 	.word	0x00000256
10001034:	000065f4 	.word	0x000065f4
10001038:	20001320 	.word	0x20001320
1000103c:	20004a58 	.word	0x20004a58
10001040:	20004a54 	.word	0x20004a54
10001044:	00000546 	.word	0x00000546
10001048:	00005460 	.word	0x00005460
1000104c:	20003a44 	.word	0x20003a44
10001050:	20003a40 	.word	0x20003a40
10001054:	2000f079 	.word	0x2000f079
10001058:	20005654 	.word	0x20005654
1000105c:	2000f075 	.word	0x2000f075
10001060:	2000564c 	.word	0x2000564c
10001064:	2000f077 	.word	0x2000f077
10001068:	2000f078 	.word	0x2000f078
1000106c:	2000f076 	.word	0x2000f076
10001070:	4b35      	ldr	r3, [pc, #212]	@ (10001148 <cec_send_frame+0x51c>)
10001072:	4a36      	ldr	r2, [pc, #216]	@ (1000114c <cec_send_frame+0x520>)
10001074:	60a2      	str	r2, [r4, #8]
10001076:	60e3      	str	r3, [r4, #12]
10001078:	4653      	mov	r3, sl
1000107a:	781b      	ldrb	r3, [r3, #0]
1000107c:	065b      	lsls	r3, r3, #25
1000107e:	d500      	bpl.n	10001082 <cec_send_frame+0x456>
10001080:	e63d      	b.n	10000cfe <cec_send_frame+0xd2>
10001082:	4b33      	ldr	r3, [pc, #204]	@ (10001150 <cec_send_frame+0x524>)
10001084:	4a33      	ldr	r2, [pc, #204]	@ (10001154 <cec_send_frame+0x528>)
10001086:	6122      	str	r2, [r4, #16]
10001088:	6163      	str	r3, [r4, #20]
1000108a:	4653      	mov	r3, sl
1000108c:	781b      	ldrb	r3, [r3, #0]
1000108e:	069b      	lsls	r3, r3, #26
10001090:	d500      	bpl.n	10001094 <cec_send_frame+0x468>
10001092:	e63d      	b.n	10000d10 <cec_send_frame+0xe4>
10001094:	4b2e      	ldr	r3, [pc, #184]	@ (10001150 <cec_send_frame+0x524>)
10001096:	4a2f      	ldr	r2, [pc, #188]	@ (10001154 <cec_send_frame+0x528>)
10001098:	61a2      	str	r2, [r4, #24]
1000109a:	61e3      	str	r3, [r4, #28]
1000109c:	4653      	mov	r3, sl
1000109e:	781b      	ldrb	r3, [r3, #0]
100010a0:	06db      	lsls	r3, r3, #27
100010a2:	d500      	bpl.n	100010a6 <cec_send_frame+0x47a>
100010a4:	e63d      	b.n	10000d22 <cec_send_frame+0xf6>
100010a6:	4b2a      	ldr	r3, [pc, #168]	@ (10001150 <cec_send_frame+0x524>)
100010a8:	4a2a      	ldr	r2, [pc, #168]	@ (10001154 <cec_send_frame+0x528>)
100010aa:	6222      	str	r2, [r4, #32]
100010ac:	6263      	str	r3, [r4, #36]	@ 0x24
100010ae:	4653      	mov	r3, sl
100010b0:	781b      	ldrb	r3, [r3, #0]
100010b2:	071b      	lsls	r3, r3, #28
100010b4:	d500      	bpl.n	100010b8 <cec_send_frame+0x48c>
100010b6:	e63d      	b.n	10000d34 <cec_send_frame+0x108>
100010b8:	4b25      	ldr	r3, [pc, #148]	@ (10001150 <cec_send_frame+0x524>)
100010ba:	4a26      	ldr	r2, [pc, #152]	@ (10001154 <cec_send_frame+0x528>)
100010bc:	62a2      	str	r2, [r4, #40]	@ 0x28
100010be:	62e3      	str	r3, [r4, #44]	@ 0x2c
100010c0:	4653      	mov	r3, sl
100010c2:	781b      	ldrb	r3, [r3, #0]
100010c4:	075b      	lsls	r3, r3, #29
100010c6:	d500      	bpl.n	100010ca <cec_send_frame+0x49e>
100010c8:	e63d      	b.n	10000d46 <cec_send_frame+0x11a>
100010ca:	4b21      	ldr	r3, [pc, #132]	@ (10001150 <cec_send_frame+0x524>)
100010cc:	4a21      	ldr	r2, [pc, #132]	@ (10001154 <cec_send_frame+0x528>)
100010ce:	6322      	str	r2, [r4, #48]	@ 0x30
100010d0:	6363      	str	r3, [r4, #52]	@ 0x34
100010d2:	4653      	mov	r3, sl
100010d4:	781b      	ldrb	r3, [r3, #0]
100010d6:	079b      	lsls	r3, r3, #30
100010d8:	d500      	bpl.n	100010dc <cec_send_frame+0x4b0>
100010da:	e63d      	b.n	10000d58 <cec_send_frame+0x12c>
100010dc:	4b1c      	ldr	r3, [pc, #112]	@ (10001150 <cec_send_frame+0x524>)
100010de:	4a1d      	ldr	r2, [pc, #116]	@ (10001154 <cec_send_frame+0x528>)
100010e0:	63a2      	str	r2, [r4, #56]	@ 0x38
100010e2:	63e3      	str	r3, [r4, #60]	@ 0x3c
100010e4:	4653      	mov	r3, sl
100010e6:	781b      	ldrb	r3, [r3, #0]
100010e8:	07db      	lsls	r3, r3, #31
100010ea:	d500      	bpl.n	100010ee <cec_send_frame+0x4c2>
100010ec:	e63d      	b.n	10000d6a <cec_send_frame+0x13e>
100010ee:	4b18      	ldr	r3, [pc, #96]	@ (10001150 <cec_send_frame+0x524>)
100010f0:	4a18      	ldr	r2, [pc, #96]	@ (10001154 <cec_send_frame+0x528>)
100010f2:	6422      	str	r2, [r4, #64]	@ 0x40
100010f4:	6463      	str	r3, [r4, #68]	@ 0x44
100010f6:	9b00      	ldr	r3, [sp, #0]
100010f8:	2b00      	cmp	r3, #0
100010fa:	d100      	bne.n	100010fe <cec_send_frame+0x4d2>
100010fc:	e63d      	b.n	10000d7a <cec_send_frame+0x14e>
100010fe:	4a15      	ldr	r2, [pc, #84]	@ (10001154 <cec_send_frame+0x528>)
10001100:	4b13      	ldr	r3, [pc, #76]	@ (10001150 <cec_send_frame+0x524>)
10001102:	e63c      	b.n	10000d7e <cec_send_frame+0x152>
10001104:	4a11      	ldr	r2, [pc, #68]	@ (1000114c <cec_send_frame+0x520>)
10001106:	4b10      	ldr	r3, [pc, #64]	@ (10001148 <cec_send_frame+0x51c>)
10001108:	e6f1      	b.n	10000eee <cec_send_frame+0x2c2>
1000110a:	4a10      	ldr	r2, [pc, #64]	@ (1000114c <cec_send_frame+0x520>)
1000110c:	4b0e      	ldr	r3, [pc, #56]	@ (10001148 <cec_send_frame+0x51c>)
1000110e:	e6e4      	b.n	10000eda <cec_send_frame+0x2ae>
10001110:	4a0e      	ldr	r2, [pc, #56]	@ (1000114c <cec_send_frame+0x520>)
10001112:	4b0d      	ldr	r3, [pc, #52]	@ (10001148 <cec_send_frame+0x51c>)
10001114:	e6d9      	b.n	10000eca <cec_send_frame+0x29e>
10001116:	4a0d      	ldr	r2, [pc, #52]	@ (1000114c <cec_send_frame+0x520>)
10001118:	4b0b      	ldr	r3, [pc, #44]	@ (10001148 <cec_send_frame+0x51c>)
1000111a:	e6cd      	b.n	10000eb8 <cec_send_frame+0x28c>
1000111c:	4a0b      	ldr	r2, [pc, #44]	@ (1000114c <cec_send_frame+0x520>)
1000111e:	4b0a      	ldr	r3, [pc, #40]	@ (10001148 <cec_send_frame+0x51c>)
10001120:	e6c1      	b.n	10000ea6 <cec_send_frame+0x27a>
10001122:	4a0a      	ldr	r2, [pc, #40]	@ (1000114c <cec_send_frame+0x520>)
10001124:	4b08      	ldr	r3, [pc, #32]	@ (10001148 <cec_send_frame+0x51c>)
10001126:	e6b5      	b.n	10000e94 <cec_send_frame+0x268>
10001128:	4a08      	ldr	r2, [pc, #32]	@ (1000114c <cec_send_frame+0x520>)
1000112a:	4b07      	ldr	r3, [pc, #28]	@ (10001148 <cec_send_frame+0x51c>)
1000112c:	e6a9      	b.n	10000e82 <cec_send_frame+0x256>
1000112e:	4b06      	ldr	r3, [pc, #24]	@ (10001148 <cec_send_frame+0x51c>)
10001130:	4a06      	ldr	r2, [pc, #24]	@ (1000114c <cec_send_frame+0x520>)
10001132:	6022      	str	r2, [r4, #0]
10001134:	6063      	str	r3, [r4, #4]
10001136:	787b      	ldrb	r3, [r7, #1]
10001138:	119b      	asrs	r3, r3, #6
1000113a:	421e      	tst	r6, r3
1000113c:	d100      	bne.n	10001140 <cec_send_frame+0x514>
1000113e:	e695      	b.n	10000e6c <cec_send_frame+0x240>
10001140:	4a02      	ldr	r2, [pc, #8]	@ (1000114c <cec_send_frame+0x520>)
10001142:	4b01      	ldr	r3, [pc, #4]	@ (10001148 <cec_send_frame+0x51c>)
10001144:	e694      	b.n	10000e70 <cec_send_frame+0x244>
10001146:	46c0      	nop			@ (mov r8, r8)
10001148:	00000706 	.word	0x00000706
1000114c:	00000256 	.word	0x00000256
10001150:	00000382 	.word	0x00000382
10001154:	000005da 	.word	0x000005da

10001158 <cec_send_with_retry>:
10001158:	b5f8      	push	{r3, r4, r5, r6, r7, lr}
1000115a:	0006      	movs	r6, r0
1000115c:	000f      	movs	r7, r1
1000115e:	1e15      	subs	r5, r2, #0
10001160:	d00e      	beq.n	10001180 <cec_send_with_retry+0x28>
10001162:	2400      	movs	r4, #0
10001164:	e005      	b.n	10001172 <cec_send_with_retry+0x1a>
10001166:	3032      	adds	r0, #50	@ 0x32
10001168:	3401      	adds	r4, #1
1000116a:	f002 fed7 	bl	10003f1c <sleep_ms>
1000116e:	42a5      	cmp	r5, r4
10001170:	d006      	beq.n	10001180 <cec_send_with_retry+0x28>
10001172:	0039      	movs	r1, r7
10001174:	0030      	movs	r0, r6
10001176:	f7ff fd59 	bl	10000c2c <cec_send_frame>
1000117a:	2800      	cmp	r0, #0
1000117c:	d0f3      	beq.n	10001166 <cec_send_with_retry+0xe>
1000117e:	bdf8      	pop	{r3, r4, r5, r6, r7, pc}
10001180:	2000      	movs	r0, #0
10001182:	e7fc      	b.n	1000117e <cec_send_with_retry+0x26>

10001184 <cec_poll>:
10001184:	b5f8      	push	{r3, r4, r5, r6, r7, lr}
10001186:	46de      	mov	lr, fp
10001188:	4657      	mov	r7, sl
1000118a:	464e      	mov	r6, r9
1000118c:	4645      	mov	r5, r8
1000118e:	b5e0      	push	{r5, r6, r7, lr}
10001190:	4682      	mov	sl, r0
10001192:	468b      	mov	fp, r1
10001194:	f002 ffd2 	bl	1000413c <time_us_64>
10001198:	23d0      	movs	r3, #208	@ 0xd0
1000119a:	2700      	movs	r7, #0
1000119c:	061b      	lsls	r3, r3, #24
1000119e:	4699      	mov	r9, r3
100011a0:	4e8d      	ldr	r6, [pc, #564]	@ (100013d8 <cec_poll+0x254>)
100011a2:	4b8e      	ldr	r3, [pc, #568]	@ (100013dc <cec_poll+0x258>)
100011a4:	1836      	adds	r6, r6, r0
100011a6:	414f      	adcs	r7, r1
100011a8:	2400      	movs	r4, #0
100011aa:	2500      	movs	r5, #0
100011ac:	4698      	mov	r8, r3
100011ae:	e007      	b.n	100011c0 <cec_poll+0x3c>
100011b0:	f002 ffc4 	bl	1000413c <time_us_64>
100011b4:	0004      	movs	r4, r0
100011b6:	000d      	movs	r5, r1
100011b8:	2032      	movs	r0, #50	@ 0x32
100011ba:	2100      	movs	r1, #0
100011bc:	f002 fe38 	bl	10003e30 <sleep_us>
100011c0:	f002 ffbc 	bl	1000413c <time_us_64>
100011c4:	428f      	cmp	r7, r1
100011c6:	d800      	bhi.n	100011ca <cec_poll+0x46>
100011c8:	e0e0      	b.n	1000138c <cec_poll+0x208>
100011ca:	464b      	mov	r3, r9
100011cc:	685a      	ldr	r2, [r3, #4]
100011ce:	4643      	mov	r3, r8
100011d0:	6819      	ldr	r1, [r3, #0]
100011d2:	2301      	movs	r3, #1
100011d4:	408b      	lsls	r3, r1
100011d6:	421a      	tst	r2, r3
100011d8:	d100      	bne.n	100011dc <cec_poll+0x58>
100011da:	e0d4      	b.n	10001386 <cec_poll+0x202>
100011dc:	0023      	movs	r3, r4
100011de:	432b      	orrs	r3, r5
100011e0:	d0e6      	beq.n	100011b0 <cec_poll+0x2c>
100011e2:	f002 ffab 	bl	1000413c <time_us_64>
100011e6:	1b00      	subs	r0, r0, r4
100011e8:	41a9      	sbcs	r1, r5
100011ea:	2900      	cmp	r1, #0
100011ec:	d102      	bne.n	100011f4 <cec_poll+0x70>
100011ee:	4b7c      	ldr	r3, [pc, #496]	@ (100013e0 <cec_poll+0x25c>)
100011f0:	4298      	cmp	r0, r3
100011f2:	d9e1      	bls.n	100011b8 <cec_poll+0x34>
100011f4:	260f      	movs	r6, #15
100011f6:	465c      	mov	r4, fp
100011f8:	4653      	mov	r3, sl
100011fa:	4034      	ands	r4, r6
100011fc:	011b      	lsls	r3, r3, #4
100011fe:	431c      	orrs	r4, r3
10001200:	4643      	mov	r3, r8
10001202:	2200      	movs	r2, #0
10001204:	6818      	ldr	r0, [r3, #0]
10001206:	210c      	movs	r1, #12
10001208:	f001 ff30 	bl	1000306c <gpio_set_irq_enabled>
1000120c:	4b75      	ldr	r3, [pc, #468]	@ (100013e4 <cec_poll+0x260>)
1000120e:	4876      	ldr	r0, [pc, #472]	@ (100013e8 <cec_poll+0x264>)
10001210:	4976      	ldr	r1, [pc, #472]	@ (100013ec <cec_poll+0x268>)
10001212:	b2e4      	uxtb	r4, r4
10001214:	6018      	str	r0, [r3, #0]
10001216:	6059      	str	r1, [r3, #4]
10001218:	4026      	ands	r6, r4
1000121a:	11e2      	asrs	r2, r4, #7
1000121c:	d000      	beq.n	10001220 <cec_poll+0x9c>
1000121e:	e0d7      	b.n	100013d0 <cec_poll+0x24c>
10001220:	4873      	ldr	r0, [pc, #460]	@ (100013f0 <cec_poll+0x26c>)
10001222:	4974      	ldr	r1, [pc, #464]	@ (100013f4 <cec_poll+0x270>)
10001224:	6098      	str	r0, [r3, #8]
10001226:	60d9      	str	r1, [r3, #12]
10001228:	0662      	lsls	r2, r4, #25
1000122a:	d400      	bmi.n	1000122e <cec_poll+0xaa>
1000122c:	e0cd      	b.n	100013ca <cec_poll+0x246>
1000122e:	4872      	ldr	r0, [pc, #456]	@ (100013f8 <cec_poll+0x274>)
10001230:	4972      	ldr	r1, [pc, #456]	@ (100013fc <cec_poll+0x278>)
10001232:	6118      	str	r0, [r3, #16]
10001234:	6159      	str	r1, [r3, #20]
10001236:	06a2      	lsls	r2, r4, #26
10001238:	d400      	bmi.n	1000123c <cec_poll+0xb8>
1000123a:	e0c3      	b.n	100013c4 <cec_poll+0x240>
1000123c:	486e      	ldr	r0, [pc, #440]	@ (100013f8 <cec_poll+0x274>)
1000123e:	496f      	ldr	r1, [pc, #444]	@ (100013fc <cec_poll+0x278>)
10001240:	6198      	str	r0, [r3, #24]
10001242:	61d9      	str	r1, [r3, #28]
10001244:	06e2      	lsls	r2, r4, #27
10001246:	d400      	bmi.n	1000124a <cec_poll+0xc6>
10001248:	e0b9      	b.n	100013be <cec_poll+0x23a>
1000124a:	486b      	ldr	r0, [pc, #428]	@ (100013f8 <cec_poll+0x274>)
1000124c:	496b      	ldr	r1, [pc, #428]	@ (100013fc <cec_poll+0x278>)
1000124e:	6218      	str	r0, [r3, #32]
10001250:	6259      	str	r1, [r3, #36]	@ 0x24
10001252:	0722      	lsls	r2, r4, #28
10001254:	d400      	bmi.n	10001258 <cec_poll+0xd4>
10001256:	e0af      	b.n	100013b8 <cec_poll+0x234>
10001258:	4867      	ldr	r0, [pc, #412]	@ (100013f8 <cec_poll+0x274>)
1000125a:	4968      	ldr	r1, [pc, #416]	@ (100013fc <cec_poll+0x278>)
1000125c:	6298      	str	r0, [r3, #40]	@ 0x28
1000125e:	62d9      	str	r1, [r3, #44]	@ 0x2c
10001260:	0762      	lsls	r2, r4, #29
10001262:	d400      	bmi.n	10001266 <cec_poll+0xe2>
10001264:	e0a5      	b.n	100013b2 <cec_poll+0x22e>
10001266:	4864      	ldr	r0, [pc, #400]	@ (100013f8 <cec_poll+0x274>)
10001268:	4964      	ldr	r1, [pc, #400]	@ (100013fc <cec_poll+0x278>)
1000126a:	6318      	str	r0, [r3, #48]	@ 0x30
1000126c:	6359      	str	r1, [r3, #52]	@ 0x34
1000126e:	07a2      	lsls	r2, r4, #30
10001270:	d400      	bmi.n	10001274 <cec_poll+0xf0>
10001272:	e09b      	b.n	100013ac <cec_poll+0x228>
10001274:	4860      	ldr	r0, [pc, #384]	@ (100013f8 <cec_poll+0x274>)
10001276:	4961      	ldr	r1, [pc, #388]	@ (100013fc <cec_poll+0x278>)
10001278:	6398      	str	r0, [r3, #56]	@ 0x38
1000127a:	63d9      	str	r1, [r3, #60]	@ 0x3c
1000127c:	07e4      	lsls	r4, r4, #31
1000127e:	d400      	bmi.n	10001282 <cec_poll+0xfe>
10001280:	e091      	b.n	100013a6 <cec_poll+0x222>
10001282:	485d      	ldr	r0, [pc, #372]	@ (100013f8 <cec_poll+0x274>)
10001284:	495d      	ldr	r1, [pc, #372]	@ (100013fc <cec_poll+0x278>)
10001286:	6418      	str	r0, [r3, #64]	@ 0x40
10001288:	6459      	str	r1, [r3, #68]	@ 0x44
1000128a:	485b      	ldr	r0, [pc, #364]	@ (100013f8 <cec_poll+0x274>)
1000128c:	495b      	ldr	r1, [pc, #364]	@ (100013fc <cec_poll+0x278>)
1000128e:	6498      	str	r0, [r3, #72]	@ 0x48
10001290:	64d9      	str	r1, [r3, #76]	@ 0x4c
10001292:	2014      	movs	r0, #20
10001294:	495a      	ldr	r1, [pc, #360]	@ (10001400 <cec_poll+0x27c>)
10001296:	f7ff fb61 	bl	1000095c <tx_start_symbols.part.0.constprop.0>
1000129a:	4c5a      	ldr	r4, [pc, #360]	@ (10001404 <cec_poll+0x280>)
1000129c:	6825      	ldr	r5, [r4, #0]
1000129e:	6863      	ldr	r3, [r4, #4]
100012a0:	431d      	orrs	r5, r3
100012a2:	d026      	beq.n	100012f2 <cec_poll+0x16e>
100012a4:	f002 ff4a 	bl	1000413c <time_us_64>
100012a8:	6863      	ldr	r3, [r4, #4]
100012aa:	428b      	cmp	r3, r1
100012ac:	d8fa      	bhi.n	100012a4 <cec_poll+0x120>
100012ae:	d102      	bne.n	100012b6 <cec_poll+0x132>
100012b0:	6823      	ldr	r3, [r4, #0]
100012b2:	4283      	cmp	r3, r0
100012b4:	d8f6      	bhi.n	100012a4 <cec_poll+0x120>
100012b6:	2501      	movs	r5, #1
100012b8:	2200      	movs	r2, #0
100012ba:	2300      	movs	r3, #0
100012bc:	0028      	movs	r0, r5
100012be:	6022      	str	r2, [r4, #0]
100012c0:	6063      	str	r3, [r4, #4]
100012c2:	4a51      	ldr	r2, [pc, #324]	@ (10001408 <cec_poll+0x284>)
100012c4:	4b51      	ldr	r3, [pc, #324]	@ (1000140c <cec_poll+0x288>)
100012c6:	6812      	ldr	r2, [r2, #0]
100012c8:	6819      	ldr	r1, [r3, #0]
100012ca:	4090      	lsls	r0, r2
100012cc:	680b      	ldr	r3, [r1, #0]
100012ce:	4383      	bics	r3, r0
100012d0:	600b      	str	r3, [r1, #0]
100012d2:	4643      	mov	r3, r8
100012d4:	2105      	movs	r1, #5
100012d6:	6818      	ldr	r0, [r3, #0]
100012d8:	f001 feb0 	bl	1000303c <gpio_set_function>
100012dc:	4643      	mov	r3, r8
100012de:	681b      	ldr	r3, [r3, #0]
100012e0:	22d0      	movs	r2, #208	@ 0xd0
100012e2:	409d      	lsls	r5, r3
100012e4:	0612      	lsls	r2, r2, #24
100012e6:	6195      	str	r5, [r2, #24]
100012e8:	6863      	ldr	r3, [r4, #4]
100012ea:	6295      	str	r5, [r2, #40]	@ 0x28
100012ec:	6825      	ldr	r5, [r4, #0]
100012ee:	431d      	orrs	r5, r3
100012f0:	d1d8      	bne.n	100012a4 <cec_poll+0x120>
100012f2:	2701      	movs	r7, #1
100012f4:	4643      	mov	r3, r8
100012f6:	003a      	movs	r2, r7
100012f8:	681b      	ldr	r3, [r3, #0]
100012fa:	2096      	movs	r0, #150	@ 0x96
100012fc:	409a      	lsls	r2, r3
100012fe:	0013      	movs	r3, r2
10001300:	22d0      	movs	r2, #208	@ 0xd0
10001302:	0612      	lsls	r2, r2, #24
10001304:	6193      	str	r3, [r2, #24]
10001306:	2100      	movs	r1, #0
10001308:	6253      	str	r3, [r2, #36]	@ 0x24
1000130a:	0080      	lsls	r0, r0, #2
1000130c:	4691      	mov	r9, r2
1000130e:	f002 fd8f 	bl	10003e30 <sleep_us>
10001312:	4643      	mov	r3, r8
10001314:	003a      	movs	r2, r7
10001316:	681b      	ldr	r3, [r3, #0]
10001318:	20e1      	movs	r0, #225	@ 0xe1
1000131a:	409a      	lsls	r2, r3
1000131c:	0013      	movs	r3, r2
1000131e:	464a      	mov	r2, r9
10001320:	2100      	movs	r1, #0
10001322:	6293      	str	r3, [r2, #40]	@ 0x28
10001324:	0040      	lsls	r0, r0, #1
10001326:	f002 fd83 	bl	10003e30 <sleep_us>
1000132a:	464b      	mov	r3, r9
1000132c:	685c      	ldr	r4, [r3, #4]
1000132e:	4643      	mov	r3, r8
10001330:	003a      	movs	r2, r7
10001332:	681b      	ldr	r3, [r3, #0]
10001334:	2100      	movs	r1, #0
10001336:	409a      	lsls	r2, r3
10001338:	4835      	ldr	r0, [pc, #212]	@ (10001410 <cec_poll+0x28c>)
1000133a:	3e0f      	subs	r6, #15
1000133c:	4014      	ands	r4, r2
1000133e:	4273      	negs	r3, r6
10001340:	415e      	adcs	r6, r3
10001342:	f002 fd75 	bl	10003e30 <sleep_us>
10001346:	4643      	mov	r3, r8
10001348:	6818      	ldr	r0, [r3, #0]
1000134a:	464b      	mov	r3, r9
1000134c:	4087      	lsls	r7, r0
1000134e:	4262      	negs	r2, r4
10001350:	4154      	adcs	r4, r2
10001352:	629f      	str	r7, [r3, #40]	@ 0x28
10001354:	4b2f      	ldr	r3, [pc, #188]	@ (10001414 <cec_poll+0x290>)
10001356:	210c      	movs	r1, #12
10001358:	681a      	ldr	r2, [r3, #0]
1000135a:	4b2f      	ldr	r3, [pc, #188]	@ (10001418 <cec_poll+0x294>)
1000135c:	4066      	eors	r6, r4
1000135e:	601a      	str	r2, [r3, #0]
10001360:	4b2e      	ldr	r3, [pc, #184]	@ (1000141c <cec_poll+0x298>)
10001362:	2201      	movs	r2, #1
10001364:	701d      	strb	r5, [r3, #0]
10001366:	4b2e      	ldr	r3, [pc, #184]	@ (10001420 <cec_poll+0x29c>)
10001368:	611d      	str	r5, [r3, #16]
1000136a:	751d      	strb	r5, [r3, #20]
1000136c:	4b2d      	ldr	r3, [pc, #180]	@ (10001424 <cec_poll+0x2a0>)
1000136e:	701d      	strb	r5, [r3, #0]
10001370:	4b2d      	ldr	r3, [pc, #180]	@ (10001428 <cec_poll+0x2a4>)
10001372:	601d      	str	r5, [r3, #0]
10001374:	4b2d      	ldr	r3, [pc, #180]	@ (1000142c <cec_poll+0x2a8>)
10001376:	701d      	strb	r5, [r3, #0]
10001378:	4b2d      	ldr	r3, [pc, #180]	@ (10001430 <cec_poll+0x2ac>)
1000137a:	701d      	strb	r5, [r3, #0]
1000137c:	4b2d      	ldr	r3, [pc, #180]	@ (10001434 <cec_poll+0x2b0>)
1000137e:	701d      	strb	r5, [r3, #0]
10001380:	f001 fe74 	bl	1000306c <gpio_set_irq_enabled>
10001384:	e008      	b.n	10001398 <cec_poll+0x214>
10001386:	2400      	movs	r4, #0
10001388:	2500      	movs	r5, #0
1000138a:	e715      	b.n	100011b8 <cec_poll+0x34>
1000138c:	428f      	cmp	r7, r1
1000138e:	d102      	bne.n	10001396 <cec_poll+0x212>
10001390:	4286      	cmp	r6, r0
10001392:	d900      	bls.n	10001396 <cec_poll+0x212>
10001394:	e719      	b.n	100011ca <cec_poll+0x46>
10001396:	2600      	movs	r6, #0
10001398:	0030      	movs	r0, r6
1000139a:	bcf0      	pop	{r4, r5, r6, r7}
1000139c:	46bb      	mov	fp, r7
1000139e:	46b2      	mov	sl, r6
100013a0:	46a9      	mov	r9, r5
100013a2:	46a0      	mov	r8, r4
100013a4:	bdf8      	pop	{r3, r4, r5, r6, r7, pc}
100013a6:	4812      	ldr	r0, [pc, #72]	@ (100013f0 <cec_poll+0x26c>)
100013a8:	4912      	ldr	r1, [pc, #72]	@ (100013f4 <cec_poll+0x270>)
100013aa:	e76c      	b.n	10001286 <cec_poll+0x102>
100013ac:	4810      	ldr	r0, [pc, #64]	@ (100013f0 <cec_poll+0x26c>)
100013ae:	4911      	ldr	r1, [pc, #68]	@ (100013f4 <cec_poll+0x270>)
100013b0:	e762      	b.n	10001278 <cec_poll+0xf4>
100013b2:	480f      	ldr	r0, [pc, #60]	@ (100013f0 <cec_poll+0x26c>)
100013b4:	490f      	ldr	r1, [pc, #60]	@ (100013f4 <cec_poll+0x270>)
100013b6:	e758      	b.n	1000126a <cec_poll+0xe6>
100013b8:	480d      	ldr	r0, [pc, #52]	@ (100013f0 <cec_poll+0x26c>)
100013ba:	490e      	ldr	r1, [pc, #56]	@ (100013f4 <cec_poll+0x270>)
100013bc:	e74e      	b.n	1000125c <cec_poll+0xd8>
100013be:	480c      	ldr	r0, [pc, #48]	@ (100013f0 <cec_poll+0x26c>)
100013c0:	490c      	ldr	r1, [pc, #48]	@ (100013f4 <cec_poll+0x270>)
100013c2:	e744      	b.n	1000124e <cec_poll+0xca>
100013c4:	480a      	ldr	r0, [pc, #40]	@ (100013f0 <cec_poll+0x26c>)
100013c6:	490b      	ldr	r1, [pc, #44]	@ (100013f4 <cec_poll+0x270>)
100013c8:	e73a      	b.n	10001240 <cec_poll+0xbc>
100013ca:	4809      	ldr	r0, [pc, #36]	@ (100013f0 <cec_poll+0x26c>)
100013cc:	4909      	ldr	r1, [pc, #36]	@ (100013f4 <cec_poll+0x270>)
100013ce:	e730      	b.n	10001232 <cec_poll+0xae>
100013d0:	4809      	ldr	r0, [pc, #36]	@ (100013f8 <cec_poll+0x274>)
100013d2:	490a      	ldr	r1, [pc, #40]	@ (100013fc <cec_poll+0x278>)
100013d4:	e726      	b.n	10001224 <cec_poll+0xa0>
100013d6:	46c0      	nop			@ (mov r8, r8)
100013d8:	000186a0 	.word	0x000186a0
100013dc:	20004a48 	.word	0x20004a48
100013e0:	00001387 	.word	0x00001387
100013e4:	20001328 	.word	0x20001328
100013e8:	00000e72 	.word	0x00000e72
100013ec:	0000031e 	.word	0x0000031e
100013f0:	000005da 	.word	0x000005da
100013f4:	00000382 	.word	0x00000382
100013f8:	00000256 	.word	0x00000256
100013fc:	00000706 	.word	0x00000706
10001400:	000065f4 	.word	0x000065f4
10001404:	20001320 	.word	0x20001320
10001408:	20004a58 	.word	0x20004a58
1000140c:	20004a54 	.word	0x20004a54
10001410:	00000546 	.word	0x00000546
10001414:	20003a44 	.word	0x20003a44
10001418:	20003a40 	.word	0x20003a40
1000141c:	2000f079 	.word	0x2000f079
10001420:	20005654 	.word	0x20005654
10001424:	2000f075 	.word	0x2000f075
10001428:	2000564c 	.word	0x2000564c
1000142c:	2000f077 	.word	0x2000f077
10001430:	2000f078 	.word	0x2000f078
10001434:	2000f076 	.word	0x2000f076

10001438 <cec_passive_reset>:
10001438:	4b0a      	ldr	r3, [pc, #40]	@ (10001464 <cec_passive_reset+0x2c>)
1000143a:	681a      	ldr	r2, [r3, #0]
1000143c:	4b0a      	ldr	r3, [pc, #40]	@ (10001468 <cec_passive_reset+0x30>)
1000143e:	601a      	str	r2, [r3, #0]
10001440:	2300      	movs	r3, #0
10001442:	4a0a      	ldr	r2, [pc, #40]	@ (1000146c <cec_passive_reset+0x34>)
10001444:	7013      	strb	r3, [r2, #0]
10001446:	4a0a      	ldr	r2, [pc, #40]	@ (10001470 <cec_passive_reset+0x38>)
10001448:	6113      	str	r3, [r2, #16]
1000144a:	7513      	strb	r3, [r2, #20]
1000144c:	4a09      	ldr	r2, [pc, #36]	@ (10001474 <cec_passive_reset+0x3c>)
1000144e:	7013      	strb	r3, [r2, #0]
10001450:	4a09      	ldr	r2, [pc, #36]	@ (10001478 <cec_passive_reset+0x40>)
10001452:	6013      	str	r3, [r2, #0]
10001454:	4a09      	ldr	r2, [pc, #36]	@ (1000147c <cec_passive_reset+0x44>)
10001456:	7013      	strb	r3, [r2, #0]
10001458:	4a09      	ldr	r2, [pc, #36]	@ (10001480 <cec_passive_reset+0x48>)
1000145a:	7013      	strb	r3, [r2, #0]
1000145c:	4a09      	ldr	r2, [pc, #36]	@ (10001484 <cec_passive_reset+0x4c>)
1000145e:	7013      	strb	r3, [r2, #0]
10001460:	4770      	bx	lr
10001462:	46c0      	nop			@ (mov r8, r8)
10001464:	20003a44 	.word	0x20003a44
10001468:	20003a40 	.word	0x20003a40
1000146c:	2000f079 	.word	0x2000f079
10001470:	20005654 	.word	0x20005654
10001474:	2000f075 	.word	0x2000f075
10001478:	2000564c 	.word	0x2000564c
1000147c:	2000f077 	.word	0x2000f077
10001480:	2000f078 	.word	0x2000f078
10001484:	2000f076 	.word	0x2000f076

10001488 <cec_receive_frame_passive>:
10001488:	b5f0      	push	{r4, r5, r6, r7, lr}
1000148a:	4645      	mov	r5, r8
1000148c:	46de      	mov	lr, fp
1000148e:	4657      	mov	r7, sl
10001490:	464e      	mov	r6, r9
10001492:	b5e0      	push	{r5, r6, r7, lr}
10001494:	4c82      	ldr	r4, [pc, #520]	@ (100016a0 <cec_receive_frame_passive+0x218>)
10001496:	4680      	mov	r8, r0
10001498:	6823      	ldr	r3, [r4, #0]
1000149a:	6862      	ldr	r2, [r4, #4]
1000149c:	b085      	sub	sp, #20
1000149e:	4313      	orrs	r3, r2
100014a0:	d000      	beq.n	100014a4 <cec_receive_frame_passive+0x1c>
100014a2:	e079      	b.n	10001598 <cec_receive_frame_passive+0x110>
100014a4:	4d7f      	ldr	r5, [pc, #508]	@ (100016a4 <cec_receive_frame_passive+0x21c>)
100014a6:	4f80      	ldr	r7, [pc, #512]	@ (100016a8 <cec_receive_frame_passive+0x220>)
100014a8:	682b      	ldr	r3, [r5, #0]
100014aa:	683a      	ldr	r2, [r7, #0]
100014ac:	4293      	cmp	r3, r2
100014ae:	d01f      	beq.n	100014f0 <cec_receive_frame_passive+0x68>
100014b0:	4a7e      	ldr	r2, [pc, #504]	@ (100016ac <cec_receive_frame_passive+0x224>)
100014b2:	46c3      	mov	fp, r8
100014b4:	4692      	mov	sl, r2
100014b6:	46b8      	mov	r8, r7
100014b8:	4e7d      	ldr	r6, [pc, #500]	@ (100016b0 <cec_receive_frame_passive+0x228>)
100014ba:	ac02      	add	r4, sp, #8
100014bc:	0021      	movs	r1, r4
100014be:	00da      	lsls	r2, r3, #3
100014c0:	4452      	add	r2, sl
100014c2:	ca81      	ldmia	r2!, {r0, r7}
100014c4:	c181      	stmia	r1!, {r0, r7}
100014c6:	3301      	adds	r3, #1
100014c8:	05db      	lsls	r3, r3, #23
100014ca:	0ddb      	lsrs	r3, r3, #23
100014cc:	602b      	str	r3, [r5, #0]
100014ce:	7833      	ldrb	r3, [r6, #0]
100014d0:	6827      	ldr	r7, [r4, #0]
100014d2:	7922      	ldrb	r2, [r4, #4]
100014d4:	2b02      	cmp	r3, #2
100014d6:	d024      	beq.n	10001522 <cec_receive_frame_passive+0x9a>
100014d8:	d812      	bhi.n	10001500 <cec_receive_frame_passive+0x78>
100014da:	2b00      	cmp	r3, #0
100014dc:	d039      	beq.n	10001552 <cec_receive_frame_passive+0xca>
100014de:	4b75      	ldr	r3, [pc, #468]	@ (100016b4 <cec_receive_frame_passive+0x22c>)
100014e0:	2a00      	cmp	r2, #0
100014e2:	d13f      	bne.n	10001564 <cec_receive_frame_passive+0xdc>
100014e4:	601f      	str	r7, [r3, #0]
100014e6:	4642      	mov	r2, r8
100014e8:	682b      	ldr	r3, [r5, #0]
100014ea:	6812      	ldr	r2, [r2, #0]
100014ec:	4293      	cmp	r3, r2
100014ee:	d1e5      	bne.n	100014bc <cec_receive_frame_passive+0x34>
100014f0:	2000      	movs	r0, #0
100014f2:	b005      	add	sp, #20
100014f4:	bcf0      	pop	{r4, r5, r6, r7}
100014f6:	46bb      	mov	fp, r7
100014f8:	46b2      	mov	sl, r6
100014fa:	46a9      	mov	r9, r5
100014fc:	46a0      	mov	r8, r4
100014fe:	bdf0      	pop	{r4, r5, r6, r7, pc}
10001500:	2b03      	cmp	r3, #3
10001502:	d1f0      	bne.n	100014e6 <cec_receive_frame_passive+0x5e>
10001504:	4b6b      	ldr	r3, [pc, #428]	@ (100016b4 <cec_receive_frame_passive+0x22c>)
10001506:	2a00      	cmp	r2, #0
10001508:	d0ec      	beq.n	100014e4 <cec_receive_frame_passive+0x5c>
1000150a:	6819      	ldr	r1, [r3, #0]
1000150c:	4b6a      	ldr	r3, [pc, #424]	@ (100016b8 <cec_receive_frame_passive+0x230>)
1000150e:	1a79      	subs	r1, r7, r1
10001510:	601f      	str	r7, [r3, #0]
10001512:	2302      	movs	r3, #2
10001514:	7033      	strb	r3, [r6, #0]
10001516:	4b69      	ldr	r3, [pc, #420]	@ (100016bc <cec_receive_frame_passive+0x234>)
10001518:	4299      	cmp	r1, r3
1000151a:	d967      	bls.n	100015ec <cec_receive_frame_passive+0x164>
1000151c:	2300      	movs	r3, #0
1000151e:	7033      	strb	r3, [r6, #0]
10001520:	e7e1      	b.n	100014e6 <cec_receive_frame_passive+0x5e>
10001522:	2a00      	cmp	r2, #0
10001524:	d1df      	bne.n	100014e6 <cec_receive_frame_passive+0x5e>
10001526:	4b64      	ldr	r3, [pc, #400]	@ (100016b8 <cec_receive_frame_passive+0x230>)
10001528:	4a65      	ldr	r2, [pc, #404]	@ (100016c0 <cec_receive_frame_passive+0x238>)
1000152a:	4699      	mov	r9, r3
1000152c:	681b      	ldr	r3, [r3, #0]
1000152e:	1afb      	subs	r3, r7, r3
10001530:	4293      	cmp	r3, r2
10001532:	d855      	bhi.n	100015e0 <cec_receive_frame_passive+0x158>
10001534:	4b5f      	ldr	r3, [pc, #380]	@ (100016b4 <cec_receive_frame_passive+0x22c>)
10001536:	601f      	str	r7, [r3, #0]
10001538:	2303      	movs	r3, #3
1000153a:	7033      	strb	r3, [r6, #0]
1000153c:	4b61      	ldr	r3, [pc, #388]	@ (100016c4 <cec_receive_frame_passive+0x23c>)
1000153e:	781b      	ldrb	r3, [r3, #0]
10001540:	2b00      	cmp	r3, #0
10001542:	d004      	beq.n	1000154e <cec_receive_frame_passive+0xc6>
10001544:	4b60      	ldr	r3, [pc, #384]	@ (100016c8 <cec_receive_frame_passive+0x240>)
10001546:	781b      	ldrb	r3, [r3, #0]
10001548:	2b00      	cmp	r3, #0
1000154a:	d000      	beq.n	1000154e <cec_receive_frame_passive+0xc6>
1000154c:	e093      	b.n	10001676 <cec_receive_frame_passive+0x1ee>
1000154e:	464b      	mov	r3, r9
10001550:	e7c8      	b.n	100014e4 <cec_receive_frame_passive+0x5c>
10001552:	2a00      	cmp	r2, #0
10001554:	d1c7      	bne.n	100014e6 <cec_receive_frame_passive+0x5e>
10001556:	4b57      	ldr	r3, [pc, #348]	@ (100016b4 <cec_receive_frame_passive+0x22c>)
10001558:	601f      	str	r7, [r3, #0]
1000155a:	4b57      	ldr	r3, [pc, #348]	@ (100016b8 <cec_receive_frame_passive+0x230>)
1000155c:	601f      	str	r7, [r3, #0]
1000155e:	2301      	movs	r3, #1
10001560:	7033      	strb	r3, [r6, #0]
10001562:	e7c0      	b.n	100014e6 <cec_receive_frame_passive+0x5e>
10001564:	681a      	ldr	r2, [r3, #0]
10001566:	4b54      	ldr	r3, [pc, #336]	@ (100016b8 <cec_receive_frame_passive+0x230>)
10001568:	601f      	str	r7, [r3, #0]
1000156a:	4b58      	ldr	r3, [pc, #352]	@ (100016cc <cec_receive_frame_passive+0x244>)
1000156c:	18fb      	adds	r3, r7, r3
1000156e:	1a9b      	subs	r3, r3, r2
10001570:	4a57      	ldr	r2, [pc, #348]	@ (100016d0 <cec_receive_frame_passive+0x248>)
10001572:	4293      	cmp	r3, r2
10001574:	d8d2      	bhi.n	1000151c <cec_receive_frame_passive+0x94>
10001576:	2200      	movs	r2, #0
10001578:	4b56      	ldr	r3, [pc, #344]	@ (100016d4 <cec_receive_frame_passive+0x24c>)
1000157a:	611a      	str	r2, [r3, #16]
1000157c:	751a      	strb	r2, [r3, #20]
1000157e:	4b56      	ldr	r3, [pc, #344]	@ (100016d8 <cec_receive_frame_passive+0x250>)
10001580:	701a      	strb	r2, [r3, #0]
10001582:	4b56      	ldr	r3, [pc, #344]	@ (100016dc <cec_receive_frame_passive+0x254>)
10001584:	601a      	str	r2, [r3, #0]
10001586:	4b4f      	ldr	r3, [pc, #316]	@ (100016c4 <cec_receive_frame_passive+0x23c>)
10001588:	701a      	strb	r2, [r3, #0]
1000158a:	4b4f      	ldr	r3, [pc, #316]	@ (100016c8 <cec_receive_frame_passive+0x240>)
1000158c:	701a      	strb	r2, [r3, #0]
1000158e:	4b54      	ldr	r3, [pc, #336]	@ (100016e0 <cec_receive_frame_passive+0x258>)
10001590:	701a      	strb	r2, [r3, #0]
10001592:	2302      	movs	r3, #2
10001594:	7033      	strb	r3, [r6, #0]
10001596:	e7a6      	b.n	100014e6 <cec_receive_frame_passive+0x5e>
10001598:	f002 fdd0 	bl	1000413c <time_us_64>
1000159c:	6863      	ldr	r3, [r4, #4]
1000159e:	428b      	cmp	r3, r1
100015a0:	d900      	bls.n	100015a4 <cec_receive_frame_passive+0x11c>
100015a2:	e77f      	b.n	100014a4 <cec_receive_frame_passive+0x1c>
100015a4:	d103      	bne.n	100015ae <cec_receive_frame_passive+0x126>
100015a6:	6823      	ldr	r3, [r4, #0]
100015a8:	4283      	cmp	r3, r0
100015aa:	d900      	bls.n	100015ae <cec_receive_frame_passive+0x126>
100015ac:	e77a      	b.n	100014a4 <cec_receive_frame_passive+0x1c>
100015ae:	2200      	movs	r2, #0
100015b0:	2300      	movs	r3, #0
100015b2:	c40c      	stmia	r4!, {r2, r3}
100015b4:	2401      	movs	r4, #1
100015b6:	0020      	movs	r0, r4
100015b8:	4a4a      	ldr	r2, [pc, #296]	@ (100016e4 <cec_receive_frame_passive+0x25c>)
100015ba:	4b4b      	ldr	r3, [pc, #300]	@ (100016e8 <cec_receive_frame_passive+0x260>)
100015bc:	6812      	ldr	r2, [r2, #0]
100015be:	6819      	ldr	r1, [r3, #0]
100015c0:	4090      	lsls	r0, r2
100015c2:	680b      	ldr	r3, [r1, #0]
100015c4:	4d49      	ldr	r5, [pc, #292]	@ (100016ec <cec_receive_frame_passive+0x264>)
100015c6:	4383      	bics	r3, r0
100015c8:	600b      	str	r3, [r1, #0]
100015ca:	6828      	ldr	r0, [r5, #0]
100015cc:	2105      	movs	r1, #5
100015ce:	f001 fd35 	bl	1000303c <gpio_set_function>
100015d2:	682b      	ldr	r3, [r5, #0]
100015d4:	409c      	lsls	r4, r3
100015d6:	23d0      	movs	r3, #208	@ 0xd0
100015d8:	061b      	lsls	r3, r3, #24
100015da:	619c      	str	r4, [r3, #24]
100015dc:	629c      	str	r4, [r3, #40]	@ 0x28
100015de:	e761      	b.n	100014a4 <cec_receive_frame_passive+0x1c>
100015e0:	4b34      	ldr	r3, [pc, #208]	@ (100016b4 <cec_receive_frame_passive+0x22c>)
100015e2:	601f      	str	r7, [r3, #0]
100015e4:	2301      	movs	r3, #1
100015e6:	7033      	strb	r3, [r6, #0]
100015e8:	464b      	mov	r3, r9
100015ea:	e77b      	b.n	100014e4 <cec_receive_frame_passive+0x5c>
100015ec:	4a35      	ldr	r2, [pc, #212]	@ (100016c4 <cec_receive_frame_passive+0x23c>)
100015ee:	7813      	ldrb	r3, [r2, #0]
100015f0:	2b00      	cmp	r3, #0
100015f2:	d010      	beq.n	10001616 <cec_receive_frame_passive+0x18e>
100015f4:	2100      	movs	r1, #0
100015f6:	4b3a      	ldr	r3, [pc, #232]	@ (100016e0 <cec_receive_frame_passive+0x258>)
100015f8:	7011      	strb	r1, [r2, #0]
100015fa:	7818      	ldrb	r0, [r3, #0]
100015fc:	2800      	cmp	r0, #0
100015fe:	d100      	bne.n	10001602 <cec_receive_frame_passive+0x17a>
10001600:	e771      	b.n	100014e6 <cec_receive_frame_passive+0x5e>
10001602:	2201      	movs	r2, #1
10001604:	4b33      	ldr	r3, [pc, #204]	@ (100016d4 <cec_receive_frame_passive+0x24c>)
10001606:	751a      	strb	r2, [r3, #20]
10001608:	465a      	mov	r2, fp
1000160a:	cbb0      	ldmia	r3!, {r4, r5, r7}
1000160c:	c2b0      	stmia	r2!, {r4, r5, r7}
1000160e:	cbb0      	ldmia	r3!, {r4, r5, r7}
10001610:	c2b0      	stmia	r2!, {r4, r5, r7}
10001612:	7031      	strb	r1, [r6, #0]
10001614:	e76d      	b.n	100014f2 <cec_receive_frame_passive+0x6a>
10001616:	001f      	movs	r7, r3
10001618:	4835      	ldr	r0, [pc, #212]	@ (100016f0 <cec_receive_frame_passive+0x268>)
1000161a:	4288      	cmp	r0, r1
1000161c:	415f      	adcs	r7, r3
1000161e:	492f      	ldr	r1, [pc, #188]	@ (100016dc <cec_receive_frame_passive+0x254>)
10001620:	9700      	str	r7, [sp, #0]
10001622:	6808      	ldr	r0, [r1, #0]
10001624:	9101      	str	r1, [sp, #4]
10001626:	2807      	cmp	r0, #7
10001628:	d930      	bls.n	1000168c <cec_receive_frame_passive+0x204>
1000162a:	482a      	ldr	r0, [pc, #168]	@ (100016d4 <cec_receive_frame_passive+0x24c>)
1000162c:	6907      	ldr	r7, [r0, #16]
1000162e:	46bc      	mov	ip, r7
10001630:	2f0f      	cmp	r7, #15
10001632:	d900      	bls.n	10001636 <cec_receive_frame_passive+0x1ae>
10001634:	e772      	b.n	1000151c <cec_receive_frame_passive+0x94>
10001636:	2701      	movs	r7, #1
10001638:	4467      	add	r7, ip
1000163a:	6107      	str	r7, [r0, #16]
1000163c:	4f26      	ldr	r7, [pc, #152]	@ (100016d8 <cec_receive_frame_passive+0x250>)
1000163e:	4661      	mov	r1, ip
10001640:	46b9      	mov	r9, r7
10001642:	783f      	ldrb	r7, [r7, #0]
10001644:	5447      	strb	r7, [r0, r1]
10001646:	4649      	mov	r1, r9
10001648:	700b      	strb	r3, [r1, #0]
1000164a:	9901      	ldr	r1, [sp, #4]
1000164c:	600b      	str	r3, [r1, #0]
1000164e:	2301      	movs	r3, #1
10001650:	4928      	ldr	r1, [pc, #160]	@ (100016f4 <cec_receive_frame_passive+0x26c>)
10001652:	7013      	strb	r3, [r2, #0]
10001654:	7802      	ldrb	r2, [r0, #0]
10001656:	7809      	ldrb	r1, [r1, #0]
10001658:	330e      	adds	r3, #14
1000165a:	4013      	ands	r3, r2
1000165c:	1ac9      	subs	r1, r1, r3
1000165e:	3b0f      	subs	r3, #15
10001660:	4248      	negs	r0, r1
10001662:	4141      	adcs	r1, r0
10001664:	1e58      	subs	r0, r3, #1
10001666:	4183      	sbcs	r3, r0
10001668:	4a17      	ldr	r2, [pc, #92]	@ (100016c8 <cec_receive_frame_passive+0x240>)
1000166a:	400b      	ands	r3, r1
1000166c:	7013      	strb	r3, [r2, #0]
1000166e:	4b1c      	ldr	r3, [pc, #112]	@ (100016e0 <cec_receive_frame_passive+0x258>)
10001670:	9a00      	ldr	r2, [sp, #0]
10001672:	701a      	strb	r2, [r3, #0]
10001674:	e737      	b.n	100014e6 <cec_receive_frame_passive+0x5e>
10001676:	4b20      	ldr	r3, [pc, #128]	@ (100016f8 <cec_receive_frame_passive+0x270>)
10001678:	4820      	ldr	r0, [pc, #128]	@ (100016fc <cec_receive_frame_passive+0x274>)
1000167a:	4921      	ldr	r1, [pc, #132]	@ (10001700 <cec_receive_frame_passive+0x278>)
1000167c:	c303      	stmia	r3!, {r0, r1}
1000167e:	2196      	movs	r1, #150	@ 0x96
10001680:	2002      	movs	r0, #2
10001682:	0109      	lsls	r1, r1, #4
10001684:	f7ff f96a 	bl	1000095c <tx_start_symbols.part.0.constprop.0>
10001688:	464b      	mov	r3, r9
1000168a:	e72b      	b.n	100014e4 <cec_receive_frame_passive+0x5c>
1000168c:	4a12      	ldr	r2, [pc, #72]	@ (100016d8 <cec_receive_frame_passive+0x250>)
1000168e:	3001      	adds	r0, #1
10001690:	7813      	ldrb	r3, [r2, #0]
10001692:	005b      	lsls	r3, r3, #1
10001694:	433b      	orrs	r3, r7
10001696:	7013      	strb	r3, [r2, #0]
10001698:	9b01      	ldr	r3, [sp, #4]
1000169a:	6018      	str	r0, [r3, #0]
1000169c:	e723      	b.n	100014e6 <cec_receive_frame_passive+0x5e>
1000169e:	46c0      	nop			@ (mov r8, r8)
100016a0:	20001320 	.word	0x20001320
100016a4:	20003a40 	.word	0x20003a40
100016a8:	20003a44 	.word	0x20003a44
100016ac:	20003a48 	.word	0x20003a48
100016b0:	2000f079 	.word	0x2000f079
100016b4:	20005650 	.word	0x20005650
100016b8:	2000566c 	.word	0x2000566c
100016bc:	00001770 	.word	0x00001770
100016c0:	00002710 	.word	0x00002710
100016c4:	2000f077 	.word	0x2000f077
100016c8:	2000f078 	.word	0x2000f078
100016cc:	fffff380 	.word	0xfffff380
100016d0:	0000044c 	.word	0x0000044c
100016d4:	20005654 	.word	0x20005654
100016d8:	2000f075 	.word	0x2000f075
100016dc:	2000564c 	.word	0x2000564c
100016e0:	2000f076 	.word	0x2000f076
100016e4:	20004a58 	.word	0x20004a58
100016e8:	20004a54 	.word	0x20004a54
100016ec:	20004a48 	.word	0x20004a48
100016f0:	00000419 	.word	0x00000419
100016f4:	2000f074 	.word	0x2000f074
100016f8:	20001328 	.word	0x20001328
100016fc:	000005da 	.word	0x000005da
10001700:	00000382 	.word	0x00000382

10001704 <append_bmc_bit>:
10001704:	491e      	ldr	r1, [pc, #120]	@ (10001780 <append_bmc_bit+0x7c>)
10001706:	b5f0      	push	{r4, r5, r6, r7, lr}
10001708:	680a      	ldr	r2, [r1, #0]
1000170a:	46ce      	mov	lr, r9
1000170c:	0013      	movs	r3, r2
1000170e:	4681      	mov	r9, r0
10001710:	2001      	movs	r0, #1
10001712:	4647      	mov	r7, r8
10001714:	4c1b      	ldr	r4, [pc, #108]	@ (10001784 <append_bmc_bit+0x80>)
10001716:	4043      	eors	r3, r0
10001718:	b580      	push	{r7, lr}
1000171a:	600b      	str	r3, [r1, #0]
1000171c:	6823      	ldr	r3, [r4, #0]
1000171e:	2a01      	cmp	r2, #1
10001720:	d022      	beq.n	10001768 <append_bmc_bit+0x64>
10001722:	4d19      	ldr	r5, [pc, #100]	@ (10001788 <append_bmc_bit+0x84>)
10001724:	095f      	lsrs	r7, r3, #5
10001726:	682e      	ldr	r6, [r5, #0]
10001728:	00bf      	lsls	r7, r7, #2
1000172a:	46b0      	mov	r8, r6
1000172c:	46bc      	mov	ip, r7
1000172e:	261f      	movs	r6, #31
10001730:	44c4      	add	ip, r8
10001732:	401e      	ands	r6, r3
10001734:	40b0      	lsls	r0, r6
10001736:	4666      	mov	r6, ip
10001738:	6836      	ldr	r6, [r6, #0]
1000173a:	4330      	orrs	r0, r6
1000173c:	4666      	mov	r6, ip
1000173e:	6030      	str	r0, [r6, #0]
10001740:	4648      	mov	r0, r9
10001742:	2800      	cmp	r0, #0
10001744:	d118      	bne.n	10001778 <append_bmc_bit+0x74>
10001746:	211f      	movs	r1, #31
10001748:	1c58      	adds	r0, r3, #1
1000174a:	4001      	ands	r1, r0
1000174c:	0942      	lsrs	r2, r0, #5
1000174e:	2001      	movs	r0, #1
10001750:	4088      	lsls	r0, r1
10001752:	0092      	lsls	r2, r2, #2
10001754:	4442      	add	r2, r8
10001756:	6811      	ldr	r1, [r2, #0]
10001758:	4301      	orrs	r1, r0
1000175a:	6011      	str	r1, [r2, #0]
1000175c:	3302      	adds	r3, #2
1000175e:	6023      	str	r3, [r4, #0]
10001760:	bcc0      	pop	{r6, r7}
10001762:	46b9      	mov	r9, r7
10001764:	46b0      	mov	r8, r6
10001766:	bdf0      	pop	{r4, r5, r6, r7, pc}
10001768:	4648      	mov	r0, r9
1000176a:	2800      	cmp	r0, #0
1000176c:	d0f6      	beq.n	1000175c <append_bmc_bit+0x58>
1000176e:	4d06      	ldr	r5, [pc, #24]	@ (10001788 <append_bmc_bit+0x84>)
10001770:	600a      	str	r2, [r1, #0]
10001772:	682a      	ldr	r2, [r5, #0]
10001774:	4690      	mov	r8, r2
10001776:	e7e6      	b.n	10001746 <append_bmc_bit+0x42>
10001778:	600a      	str	r2, [r1, #0]
1000177a:	2a00      	cmp	r2, #0
1000177c:	d0ee      	beq.n	1000175c <append_bmc_bit+0x58>
1000177e:	e7f8      	b.n	10001772 <append_bmc_bit+0x6e>
10001780:	20004ad8 	.word	0x20004ad8
10001784:	20006444 	.word	0x20006444
10001788:	20003a34 	.word	0x20003a34

1000178c <encode_subframe_fast>:
1000178c:	b5f0      	push	{r4, r5, r6, r7, lr}
1000178e:	46c6      	mov	lr, r8
10001790:	b500      	push	{lr}
10001792:	4698      	mov	r8, r3
10001794:	4684      	mov	ip, r0
10001796:	2300      	movs	r3, #0
10001798:	b082      	sub	sp, #8
1000179a:	2902      	cmp	r1, #2
1000179c:	d801      	bhi.n	100017a2 <encode_subframe_fast+0x16>
1000179e:	4b2f      	ldr	r3, [pc, #188]	@ (1000185c <encode_subframe_fast+0xd0>)
100017a0:	5c5b      	ldrb	r3, [r3, r1]
100017a2:	4641      	mov	r1, r8
100017a4:	6809      	ldr	r1, [r1, #0]
100017a6:	1e48      	subs	r0, r1, #1
100017a8:	4181      	sbcs	r1, r0
100017aa:	4249      	negs	r1, r1
100017ac:	404b      	eors	r3, r1
100017ae:	b2d9      	uxtb	r1, r3
100017b0:	061b      	lsls	r3, r3, #24
100017b2:	d444      	bmi.n	1000183e <encode_subframe_fast+0xb2>
100017b4:	2700      	movs	r7, #0
100017b6:	110b      	asrs	r3, r1, #4
100017b8:	d14b      	bne.n	10001852 <encode_subframe_fast+0xc6>
100017ba:	074b      	lsls	r3, r1, #29
100017bc:	d501      	bpl.n	100017c2 <encode_subframe_fast+0x36>
100017be:	2320      	movs	r3, #32
100017c0:	431f      	orrs	r7, r3
100017c2:	078b      	lsls	r3, r1, #30
100017c4:	d501      	bpl.n	100017ca <encode_subframe_fast+0x3e>
100017c6:	2340      	movs	r3, #64	@ 0x40
100017c8:	431f      	orrs	r7, r3
100017ca:	2001      	movs	r0, #1
100017cc:	25ff      	movs	r5, #255	@ 0xff
100017ce:	4b24      	ldr	r3, [pc, #144]	@ (10001860 <encode_subframe_fast+0xd4>)
100017d0:	4008      	ands	r0, r1
100017d2:	0286      	lsls	r6, r0, #10
100017d4:	1999      	adds	r1, r3, r6
100017d6:	9100      	str	r1, [sp, #0]
100017d8:	7889      	ldrb	r1, [r1, #2]
100017da:	4015      	ands	r5, r2
100017dc:	0209      	lsls	r1, r1, #8
100017de:	1949      	adds	r1, r1, r5
100017e0:	0089      	lsls	r1, r1, #2
100017e2:	5acd      	ldrh	r5, [r1, r3]
100017e4:	5af6      	ldrh	r6, [r6, r3]
100017e6:	1859      	adds	r1, r3, r1
100017e8:	0236      	lsls	r6, r6, #8
100017ea:	062c      	lsls	r4, r5, #24
100017ec:	4334      	orrs	r4, r6
100017ee:	01c6      	lsls	r6, r0, #7
100017f0:	7888      	ldrb	r0, [r1, #2]
100017f2:	b292      	uxth	r2, r2
100017f4:	0200      	lsls	r0, r0, #8
100017f6:	0a12      	lsrs	r2, r2, #8
100017f8:	1882      	adds	r2, r0, r2
100017fa:	0092      	lsls	r2, r2, #2
100017fc:	1898      	adds	r0, r3, r2
100017fe:	433e      	orrs	r6, r7
10001800:	7887      	ldrb	r7, [r0, #2]
10001802:	4334      	orrs	r4, r6
10001804:	9401      	str	r4, [sp, #4]
10001806:	003c      	movs	r4, r7
10001808:	5ad2      	ldrh	r2, [r2, r3]
1000180a:	4643      	mov	r3, r8
1000180c:	9f00      	ldr	r7, [sp, #0]
1000180e:	78c9      	ldrb	r1, [r1, #3]
10001810:	78ff      	ldrb	r7, [r7, #3]
10001812:	4e14      	ldr	r6, [pc, #80]	@ (10001864 <encode_subframe_fast+0xd8>)
10001814:	4079      	eors	r1, r7
10001816:	78c7      	ldrb	r7, [r0, #3]
10001818:	0a2d      	lsrs	r5, r5, #8
1000181a:	4079      	eors	r1, r7
1000181c:	0067      	lsls	r7, r4, #1
1000181e:	19f6      	adds	r6, r6, r7
10001820:	5c71      	ldrb	r1, [r6, r1]
10001822:	0212      	lsls	r2, r2, #8
10001824:	0609      	lsls	r1, r1, #24
10001826:	432a      	orrs	r2, r5
10001828:	430a      	orrs	r2, r1
1000182a:	0fc9      	lsrs	r1, r1, #31
1000182c:	6019      	str	r1, [r3, #0]
1000182e:	4663      	mov	r3, ip
10001830:	9c01      	ldr	r4, [sp, #4]
10001832:	605a      	str	r2, [r3, #4]
10001834:	601c      	str	r4, [r3, #0]
10001836:	b002      	add	sp, #8
10001838:	bc80      	pop	{r7}
1000183a:	46b8      	mov	r8, r7
1000183c:	bdf0      	pop	{r4, r5, r6, r7, pc}
1000183e:	2707      	movs	r7, #7
10001840:	2007      	movs	r0, #7
10001842:	110b      	asrs	r3, r1, #4
10001844:	2b0e      	cmp	r3, #14
10001846:	d105      	bne.n	10001854 <encode_subframe_fast+0xc8>
10001848:	070b      	lsls	r3, r1, #28
1000184a:	d5b6      	bpl.n	100017ba <encode_subframe_fast+0x2e>
1000184c:	2310      	movs	r3, #16
1000184e:	431f      	orrs	r7, r3
10001850:	e7b3      	b.n	100017ba <encode_subframe_fast+0x2e>
10001852:	2000      	movs	r0, #0
10001854:	2708      	movs	r7, #8
10001856:	4307      	orrs	r7, r0
10001858:	e7f6      	b.n	10001848 <encode_subframe_fast+0xbc>
1000185a:	46c0      	nop			@ (mov r8, r8)
1000185c:	1000b32c 	.word	0x1000b32c
10001860:	20003130 	.word	0x20003130
10001864:	20003930 	.word	0x20003930

10001868 <audio_core_main>:
10001868:	b5f0      	push	{r4, r5, r6, r7, lr}
1000186a:	46de      	mov	lr, fp
1000186c:	4657      	mov	r7, sl
1000186e:	464e      	mov	r6, r9
10001870:	4645      	mov	r5, r8
10001872:	2300      	movs	r3, #0
10001874:	b5e0      	push	{r5, r6, r7, lr}
10001876:	b095      	sub	sp, #84	@ 0x54
10001878:	9313      	str	r3, [sp, #76]	@ 0x4c
1000187a:	4bc4      	ldr	r3, [pc, #784]	@ (10001b8c <audio_core_main+0x324>)
1000187c:	930c      	str	r3, [sp, #48]	@ 0x30
1000187e:	781b      	ldrb	r3, [r3, #0]
10001880:	b2da      	uxtb	r2, r3
10001882:	2b02      	cmp	r3, #2
10001884:	d100      	bne.n	10001888 <audio_core_main+0x20>
10001886:	e11f      	b.n	10001ac8 <audio_core_main+0x260>
10001888:	2a01      	cmp	r2, #1
1000188a:	d100      	bne.n	1000188e <audio_core_main+0x26>
1000188c:	e16d      	b.n	10001b6a <audio_core_main+0x302>
1000188e:	4bc0      	ldr	r3, [pc, #768]	@ (10001b90 <audio_core_main+0x328>)
10001890:	001a      	movs	r2, r3
10001892:	930a      	str	r3, [sp, #40]	@ 0x28
10001894:	4bbf      	ldr	r3, [pc, #764]	@ (10001b94 <audio_core_main+0x32c>)
10001896:	930e      	str	r3, [sp, #56]	@ 0x38
10001898:	4cbf      	ldr	r4, [pc, #764]	@ (10001b98 <audio_core_main+0x330>)
1000189a:	0010      	movs	r0, r2
1000189c:	1f23      	subs	r3, r4, #4
1000189e:	0021      	movs	r1, r4
100018a0:	9409      	str	r4, [sp, #36]	@ 0x24
100018a2:	4293      	cmp	r3, r2
100018a4:	d100      	bne.n	100018a8 <audio_core_main+0x40>
100018a6:	e166      	b.n	10001b76 <audio_core_main+0x30e>
100018a8:	0753      	lsls	r3, r2, #29
100018aa:	d500      	bpl.n	100018ae <audio_core_main+0x46>
100018ac:	e163      	b.n	10001b76 <audio_core_main+0x30e>
100018ae:	23c0      	movs	r3, #192	@ 0xc0
100018b0:	011b      	lsls	r3, r3, #4
100018b2:	18e4      	adds	r4, r4, r3
100018b4:	c80c      	ldmia	r0!, {r2, r3}
100018b6:	c10c      	stmia	r1!, {r2, r3}
100018b8:	428c      	cmp	r4, r1
100018ba:	d1fb      	bne.n	100018b4 <audio_core_main+0x4c>
100018bc:	4bb7      	ldr	r3, [pc, #732]	@ (10001b9c <audio_core_main+0x334>)
100018be:	2700      	movs	r7, #0
100018c0:	4699      	mov	r9, r3
100018c2:	4bb7      	ldr	r3, [pc, #732]	@ (10001ba0 <audio_core_main+0x338>)
100018c4:	4eb7      	ldr	r6, [pc, #732]	@ (10001ba4 <audio_core_main+0x33c>)
100018c6:	9305      	str	r3, [sp, #20]
100018c8:	ab13      	add	r3, sp, #76	@ 0x4c
100018ca:	9302      	str	r3, [sp, #8]
100018cc:	4bb6      	ldr	r3, [pc, #728]	@ (10001ba8 <audio_core_main+0x340>)
100018ce:	4698      	mov	r8, r3
100018d0:	4bb6      	ldr	r3, [pc, #728]	@ (10001bac <audio_core_main+0x344>)
100018d2:	6819      	ldr	r1, [r3, #0]
100018d4:	930b      	str	r3, [sp, #44]	@ 0x2c
100018d6:	4bb6      	ldr	r3, [pc, #728]	@ (10001bb0 <audio_core_main+0x348>)
100018d8:	469b      	mov	fp, r3
100018da:	465a      	mov	r2, fp
100018dc:	4bb5      	ldr	r3, [pc, #724]	@ (10001bb4 <audio_core_main+0x34c>)
100018de:	6812      	ldr	r2, [r2, #0]
100018e0:	469c      	mov	ip, r3
100018e2:	681b      	ldr	r3, [r3, #0]
100018e4:	3304      	adds	r3, #4
100018e6:	009b      	lsls	r3, r3, #2
100018e8:	18d2      	adds	r2, r2, r3
100018ea:	018b      	lsls	r3, r1, #6
100018ec:	21a0      	movs	r1, #160	@ 0xa0
100018ee:	05c9      	lsls	r1, r1, #23
100018f0:	9308      	str	r3, [sp, #32]
100018f2:	18cb      	adds	r3, r1, r3
100018f4:	9909      	ldr	r1, [sp, #36]	@ 0x24
100018f6:	6019      	str	r1, [r3, #0]
100018f8:	605a      	str	r2, [r3, #4]
100018fa:	22c0      	movs	r2, #192	@ 0xc0
100018fc:	0092      	lsls	r2, r2, #2
100018fe:	609a      	str	r2, [r3, #8]
10001900:	4aad      	ldr	r2, [pc, #692]	@ (10001bb8 <audio_core_main+0x350>)
10001902:	4692      	mov	sl, r2
10001904:	6812      	ldr	r2, [r2, #0]
10001906:	60da      	str	r2, [r3, #12]
10001908:	2301      	movs	r3, #1
1000190a:	9307      	str	r3, [sp, #28]
1000190c:	4bab      	ldr	r3, [pc, #684]	@ (10001bbc <audio_core_main+0x354>)
1000190e:	9304      	str	r3, [sp, #16]
10001910:	4643      	mov	r3, r8
10001912:	9306      	str	r3, [sp, #24]
10001914:	465b      	mov	r3, fp
10001916:	46b3      	mov	fp, r6
10001918:	930d      	str	r3, [sp, #52]	@ 0x34
1000191a:	4ea9      	ldr	r6, [pc, #676]	@ (10001bc0 <audio_core_main+0x358>)
1000191c:	9b07      	ldr	r3, [sp, #28]
1000191e:	22c0      	movs	r2, #192	@ 0xc0
10001920:	425b      	negs	r3, r3
10001922:	0112      	lsls	r2, r2, #4
10001924:	4013      	ands	r3, r2
10001926:	9a09      	ldr	r2, [sp, #36]	@ 0x24
10001928:	18d5      	adds	r5, r2, r3
1000192a:	9a0c      	ldr	r2, [sp, #48]	@ 0x30
1000192c:	7811      	ldrb	r1, [r2, #0]
1000192e:	b2ca      	uxtb	r2, r1
10001930:	2902      	cmp	r1, #2
10001932:	d041      	beq.n	100019b8 <audio_core_main+0x150>
10001934:	990a      	ldr	r1, [sp, #40]	@ 0x28
10001936:	2a01      	cmp	r2, #1
10001938:	d100      	bne.n	1000193c <audio_core_main+0xd4>
1000193a:	990e      	ldr	r1, [sp, #56]	@ 0x38
1000193c:	4aa1      	ldr	r2, [pc, #644]	@ (10001bc4 <audio_core_main+0x35c>)
1000193e:	0008      	movs	r0, r1
10001940:	189b      	adds	r3, r3, r2
10001942:	428b      	cmp	r3, r1
10001944:	d100      	bne.n	10001948 <audio_core_main+0xe0>
10001946:	e0b4      	b.n	10001ab2 <audio_core_main+0x24a>
10001948:	000b      	movs	r3, r1
1000194a:	432b      	orrs	r3, r5
1000194c:	075b      	lsls	r3, r3, #29
1000194e:	d500      	bpl.n	10001952 <audio_core_main+0xea>
10001950:	e0af      	b.n	10001ab2 <audio_core_main+0x24a>
10001952:	23c0      	movs	r3, #192	@ 0xc0
10001954:	011b      	lsls	r3, r3, #4
10001956:	18ec      	adds	r4, r5, r3
10001958:	9b06      	ldr	r3, [sp, #24]
1000195a:	0029      	movs	r1, r5
1000195c:	4698      	mov	r8, r3
1000195e:	c80c      	ldmia	r0!, {r2, r3}
10001960:	c10c      	stmia	r1!, {r2, r3}
10001962:	42a1      	cmp	r1, r4
10001964:	d1fb      	bne.n	1000195e <audio_core_main+0xf6>
10001966:	4643      	mov	r3, r8
10001968:	9306      	str	r3, [sp, #24]
1000196a:	4b97      	ldr	r3, [pc, #604]	@ (10001bc8 <audio_core_main+0x360>)
1000196c:	9908      	ldr	r1, [sp, #32]
1000196e:	2280      	movs	r2, #128	@ 0x80
10001970:	18c9      	adds	r1, r1, r3
10001972:	9b06      	ldr	r3, [sp, #24]
10001974:	0452      	lsls	r2, r2, #17
10001976:	4698      	mov	r8, r3
10001978:	680b      	ldr	r3, [r1, #0]
1000197a:	4213      	tst	r3, r2
1000197c:	d1fc      	bne.n	10001978 <audio_core_main+0x110>
1000197e:	4643      	mov	r3, r8
10001980:	9306      	str	r3, [sp, #24]
10001982:	9b0b      	ldr	r3, [sp, #44]	@ 0x2c
10001984:	990d      	ldr	r1, [sp, #52]	@ 0x34
10001986:	681a      	ldr	r2, [r3, #0]
10001988:	4663      	mov	r3, ip
1000198a:	681b      	ldr	r3, [r3, #0]
1000198c:	6809      	ldr	r1, [r1, #0]
1000198e:	3304      	adds	r3, #4
10001990:	009b      	lsls	r3, r3, #2
10001992:	18cb      	adds	r3, r1, r3
10001994:	0191      	lsls	r1, r2, #6
10001996:	22a0      	movs	r2, #160	@ 0xa0
10001998:	05d2      	lsls	r2, r2, #23
1000199a:	1852      	adds	r2, r2, r1
1000199c:	6015      	str	r5, [r2, #0]
1000199e:	6053      	str	r3, [r2, #4]
100019a0:	23c0      	movs	r3, #192	@ 0xc0
100019a2:	009b      	lsls	r3, r3, #2
100019a4:	6093      	str	r3, [r2, #8]
100019a6:	4653      	mov	r3, sl
100019a8:	681b      	ldr	r3, [r3, #0]
100019aa:	9108      	str	r1, [sp, #32]
100019ac:	60d3      	str	r3, [r2, #12]
100019ae:	2201      	movs	r2, #1
100019b0:	9b07      	ldr	r3, [sp, #28]
100019b2:	4053      	eors	r3, r2
100019b4:	9307      	str	r3, [sp, #28]
100019b6:	e7b2      	b.n	1000191e <audio_core_main+0xb6>
100019b8:	23c0      	movs	r3, #192	@ 0xc0
100019ba:	011b      	lsls	r3, r3, #4
100019bc:	4698      	mov	r8, r3
100019be:	44a8      	add	r8, r5
100019c0:	4643      	mov	r3, r8
100019c2:	9303      	str	r3, [sp, #12]
100019c4:	465b      	mov	r3, fp
100019c6:	9301      	str	r3, [sp, #4]
100019c8:	9b06      	ldr	r3, [sp, #24]
100019ca:	002c      	movs	r4, r5
100019cc:	4698      	mov	r8, r3
100019ce:	4663      	mov	r3, ip
100019d0:	9310      	str	r3, [sp, #64]	@ 0x40
100019d2:	4653      	mov	r3, sl
100019d4:	950f      	str	r5, [sp, #60]	@ 0x3c
100019d6:	9311      	str	r3, [sp, #68]	@ 0x44
100019d8:	e052      	b.n	10001a80 <audio_core_main+0x218>
100019da:	4642      	mov	r2, r8
100019dc:	0099      	lsls	r1, r3, #2
100019de:	5e52      	ldrsh	r2, [r2, r1]
100019e0:	3301      	adds	r3, #1
100019e2:	4441      	add	r1, r8
100019e4:	2002      	movs	r0, #2
100019e6:	5e09      	ldrsh	r1, [r1, r0]
100019e8:	04db      	lsls	r3, r3, #19
100019ea:	9801      	ldr	r0, [sp, #4]
100019ec:	0cdb      	lsrs	r3, r3, #19
100019ee:	6003      	str	r3, [r0, #0]
100019f0:	23ff      	movs	r3, #255	@ 0xff
100019f2:	400b      	ands	r3, r1
100019f4:	b289      	uxth	r1, r1
100019f6:	469b      	mov	fp, r3
100019f8:	0a0b      	lsrs	r3, r1, #8
100019fa:	469a      	mov	sl, r3
100019fc:	0039      	movs	r1, r7
100019fe:	1e4b      	subs	r3, r1, #1
10001a00:	4199      	sbcs	r1, r3
10001a02:	0020      	movs	r0, r4
10001a04:	9b02      	ldr	r3, [sp, #8]
10001a06:	b2c9      	uxtb	r1, r1
10001a08:	f7ff fec0 	bl	1000178c <encode_subframe_fast>
10001a0c:	9a13      	ldr	r2, [sp, #76]	@ 0x4c
10001a0e:	2027      	movs	r0, #39	@ 0x27
10001a10:	2a00      	cmp	r2, #0
10001a12:	d001      	beq.n	10001a18 <audio_core_main+0x1b0>
10001a14:	2201      	movs	r2, #1
10001a16:	30b1      	adds	r0, #177	@ 0xb1
10001a18:	0292      	lsls	r2, r2, #10
10001a1a:	18b3      	adds	r3, r6, r2
10001a1c:	78dd      	ldrb	r5, [r3, #3]
10001a1e:	789b      	ldrb	r3, [r3, #2]
10001a20:	021b      	lsls	r3, r3, #8
10001a22:	445b      	add	r3, fp
10001a24:	009b      	lsls	r3, r3, #2
10001a26:	5af1      	ldrh	r1, [r6, r3]
10001a28:	18f3      	adds	r3, r6, r3
10001a2a:	468b      	mov	fp, r1
10001a2c:	5ab1      	ldrh	r1, [r6, r2]
10001a2e:	465a      	mov	r2, fp
10001a30:	0209      	lsls	r1, r1, #8
10001a32:	4301      	orrs	r1, r0
10001a34:	0612      	lsls	r2, r2, #24
10001a36:	4311      	orrs	r1, r2
10001a38:	789a      	ldrb	r2, [r3, #2]
10001a3a:	78db      	ldrb	r3, [r3, #3]
10001a3c:	0212      	lsls	r2, r2, #8
10001a3e:	4452      	add	r2, sl
10001a40:	0092      	lsls	r2, r2, #2
10001a42:	18b0      	adds	r0, r6, r2
10001a44:	4682      	mov	sl, r0
10001a46:	406b      	eors	r3, r5
10001a48:	4655      	mov	r5, sl
10001a4a:	78ed      	ldrb	r5, [r5, #3]
10001a4c:	7880      	ldrb	r0, [r0, #2]
10001a4e:	406b      	eors	r3, r5
10001a50:	9d04      	ldr	r5, [sp, #16]
10001a52:	0040      	lsls	r0, r0, #1
10001a54:	1828      	adds	r0, r5, r0
10001a56:	5cc0      	ldrb	r0, [r0, r3]
10001a58:	5ab3      	ldrh	r3, [r6, r2]
10001a5a:	465a      	mov	r2, fp
10001a5c:	021b      	lsls	r3, r3, #8
10001a5e:	0a12      	lsrs	r2, r2, #8
10001a60:	0600      	lsls	r0, r0, #24
10001a62:	4313      	orrs	r3, r2
10001a64:	4303      	orrs	r3, r0
10001a66:	0fc0      	lsrs	r0, r0, #31
10001a68:	9013      	str	r0, [sp, #76]	@ 0x4c
10001a6a:	60a1      	str	r1, [r4, #8]
10001a6c:	60e3      	str	r3, [r4, #12]
10001a6e:	1c78      	adds	r0, r7, #1
10001a70:	21c0      	movs	r1, #192	@ 0xc0
10001a72:	f002 fed9 	bl	10004828 <__wrap___aeabi_uidiv>
10001a76:	9b03      	ldr	r3, [sp, #12]
10001a78:	3410      	adds	r4, #16
10001a7a:	000f      	movs	r7, r1
10001a7c:	42a3      	cmp	r3, r4
10001a7e:	d00e      	beq.n	10001a9e <audio_core_main+0x236>
10001a80:	464a      	mov	r2, r9
10001a82:	9b01      	ldr	r3, [sp, #4]
10001a84:	681b      	ldr	r3, [r3, #0]
10001a86:	6812      	ldr	r2, [r2, #0]
10001a88:	4293      	cmp	r3, r2
10001a8a:	d1a6      	bne.n	100019da <audio_core_main+0x172>
10001a8c:	9a05      	ldr	r2, [sp, #20]
10001a8e:	6813      	ldr	r3, [r2, #0]
10001a90:	3301      	adds	r3, #1
10001a92:	6013      	str	r3, [r2, #0]
10001a94:	2300      	movs	r3, #0
10001a96:	2200      	movs	r2, #0
10001a98:	469a      	mov	sl, r3
10001a9a:	469b      	mov	fp, r3
10001a9c:	e7ae      	b.n	100019fc <audio_core_main+0x194>
10001a9e:	9b01      	ldr	r3, [sp, #4]
10001aa0:	9d0f      	ldr	r5, [sp, #60]	@ 0x3c
10001aa2:	469b      	mov	fp, r3
10001aa4:	4643      	mov	r3, r8
10001aa6:	9306      	str	r3, [sp, #24]
10001aa8:	9b10      	ldr	r3, [sp, #64]	@ 0x40
10001aaa:	469c      	mov	ip, r3
10001aac:	9b11      	ldr	r3, [sp, #68]	@ 0x44
10001aae:	469a      	mov	sl, r3
10001ab0:	e75b      	b.n	1000196a <audio_core_main+0x102>
10001ab2:	9a06      	ldr	r2, [sp, #24]
10001ab4:	20c0      	movs	r0, #192	@ 0xc0
10001ab6:	2300      	movs	r3, #0
10001ab8:	4690      	mov	r8, r2
10001aba:	0100      	lsls	r0, r0, #4
10001abc:	58ca      	ldr	r2, [r1, r3]
10001abe:	50ea      	str	r2, [r5, r3]
10001ac0:	3304      	adds	r3, #4
10001ac2:	4283      	cmp	r3, r0
10001ac4:	d1fa      	bne.n	10001abc <audio_core_main+0x254>
10001ac6:	e74e      	b.n	10001966 <audio_core_main+0xfe>
10001ac8:	25c0      	movs	r5, #192	@ 0xc0
10001aca:	4b33      	ldr	r3, [pc, #204]	@ (10001b98 <audio_core_main+0x330>)
10001acc:	012d      	lsls	r5, r5, #4
10001ace:	001c      	movs	r4, r3
10001ad0:	9309      	str	r3, [sp, #36]	@ 0x24
10001ad2:	18ed      	adds	r5, r5, r3
10001ad4:	4b31      	ldr	r3, [pc, #196]	@ (10001b9c <audio_core_main+0x334>)
10001ad6:	2700      	movs	r7, #0
10001ad8:	4699      	mov	r9, r3
10001ada:	4b31      	ldr	r3, [pc, #196]	@ (10001ba0 <audio_core_main+0x338>)
10001adc:	4e31      	ldr	r6, [pc, #196]	@ (10001ba4 <audio_core_main+0x33c>)
10001ade:	9305      	str	r3, [sp, #20]
10001ae0:	ab13      	add	r3, sp, #76	@ 0x4c
10001ae2:	9302      	str	r3, [sp, #8]
10001ae4:	4b30      	ldr	r3, [pc, #192]	@ (10001ba8 <audio_core_main+0x340>)
10001ae6:	4698      	mov	r8, r3
10001ae8:	e022      	b.n	10001b30 <audio_core_main+0x2c8>
10001aea:	4642      	mov	r2, r8
10001aec:	0099      	lsls	r1, r3, #2
10001aee:	5e52      	ldrsh	r2, [r2, r1]
10001af0:	4441      	add	r1, r8
10001af2:	2002      	movs	r0, #2
10001af4:	5e09      	ldrsh	r1, [r1, r0]
10001af6:	3301      	adds	r3, #1
10001af8:	468a      	mov	sl, r1
10001afa:	0039      	movs	r1, r7
10001afc:	04db      	lsls	r3, r3, #19
10001afe:	0cdb      	lsrs	r3, r3, #19
10001b00:	6033      	str	r3, [r6, #0]
10001b02:	1e4b      	subs	r3, r1, #1
10001b04:	4199      	sbcs	r1, r3
10001b06:	9b02      	ldr	r3, [sp, #8]
10001b08:	0020      	movs	r0, r4
10001b0a:	469b      	mov	fp, r3
10001b0c:	b2c9      	uxtb	r1, r1
10001b0e:	f7ff fe3d 	bl	1000178c <encode_subframe_fast>
10001b12:	0020      	movs	r0, r4
10001b14:	465b      	mov	r3, fp
10001b16:	4652      	mov	r2, sl
10001b18:	3008      	adds	r0, #8
10001b1a:	2102      	movs	r1, #2
10001b1c:	f7ff fe36 	bl	1000178c <encode_subframe_fast>
10001b20:	1c78      	adds	r0, r7, #1
10001b22:	21c0      	movs	r1, #192	@ 0xc0
10001b24:	f002 fe80 	bl	10004828 <__wrap___aeabi_uidiv>
10001b28:	3410      	adds	r4, #16
10001b2a:	000f      	movs	r7, r1
10001b2c:	42a5      	cmp	r5, r4
10001b2e:	d017      	beq.n	10001b60 <audio_core_main+0x2f8>
10001b30:	464a      	mov	r2, r9
10001b32:	6833      	ldr	r3, [r6, #0]
10001b34:	6812      	ldr	r2, [r2, #0]
10001b36:	4293      	cmp	r3, r2
10001b38:	d1d7      	bne.n	10001aea <audio_core_main+0x282>
10001b3a:	0039      	movs	r1, r7
10001b3c:	9a05      	ldr	r2, [sp, #20]
10001b3e:	0020      	movs	r0, r4
10001b40:	6813      	ldr	r3, [r2, #0]
10001b42:	3301      	adds	r3, #1
10001b44:	6013      	str	r3, [r2, #0]
10001b46:	1e4b      	subs	r3, r1, #1
10001b48:	4199      	sbcs	r1, r3
10001b4a:	9b02      	ldr	r3, [sp, #8]
10001b4c:	2200      	movs	r2, #0
10001b4e:	b2c9      	uxtb	r1, r1
10001b50:	469a      	mov	sl, r3
10001b52:	f7ff fe1b 	bl	1000178c <encode_subframe_fast>
10001b56:	0020      	movs	r0, r4
10001b58:	4653      	mov	r3, sl
10001b5a:	2200      	movs	r2, #0
10001b5c:	3008      	adds	r0, #8
10001b5e:	e7dc      	b.n	10001b1a <audio_core_main+0x2b2>
10001b60:	4b0c      	ldr	r3, [pc, #48]	@ (10001b94 <audio_core_main+0x32c>)
10001b62:	930e      	str	r3, [sp, #56]	@ 0x38
10001b64:	4b0a      	ldr	r3, [pc, #40]	@ (10001b90 <audio_core_main+0x328>)
10001b66:	930a      	str	r3, [sp, #40]	@ 0x28
10001b68:	e6b2      	b.n	100018d0 <audio_core_main+0x68>
10001b6a:	4b0a      	ldr	r3, [pc, #40]	@ (10001b94 <audio_core_main+0x32c>)
10001b6c:	001a      	movs	r2, r3
10001b6e:	930e      	str	r3, [sp, #56]	@ 0x38
10001b70:	4b07      	ldr	r3, [pc, #28]	@ (10001b90 <audio_core_main+0x328>)
10001b72:	930a      	str	r3, [sp, #40]	@ 0x28
10001b74:	e690      	b.n	10001898 <audio_core_main+0x30>
10001b76:	21c0      	movs	r1, #192	@ 0xc0
10001b78:	2300      	movs	r3, #0
10001b7a:	0109      	lsls	r1, r1, #4
10001b7c:	58d0      	ldr	r0, [r2, r3]
10001b7e:	9c09      	ldr	r4, [sp, #36]	@ 0x24
10001b80:	50e0      	str	r0, [r4, r3]
10001b82:	3304      	adds	r3, #4
10001b84:	428b      	cmp	r3, r1
10001b86:	d1f9      	bne.n	10001b7c <audio_core_main+0x314>
10001b88:	e698      	b.n	100018bc <audio_core_main+0x54>
10001b8a:	46c0      	nop			@ (mov r8, r8)
10001b8c:	20000fa8 	.word	0x20000fa8
10001b90:	20005830 	.word	0x20005830
10001b94:	20006454 	.word	0x20006454
10001b98:	200014f8 	.word	0x200014f8
10001b9c:	2000f05c 	.word	0x2000f05c
10001ba0:	2000f060 	.word	0x2000f060
10001ba4:	2000f058 	.word	0x2000f058
10001ba8:	20007058 	.word	0x20007058
10001bac:	20006434 	.word	0x20006434
10001bb0:	2000643c 	.word	0x2000643c
10001bb4:	20006440 	.word	0x20006440
10001bb8:	20006438 	.word	0x20006438
10001bbc:	20003930 	.word	0x20003930
10001bc0:	20003130 	.word	0x20003130
10001bc4:	200014f4 	.word	0x200014f4
10001bc8:	50000010 	.word	0x50000010

10001bcc <spdif_start>:
10001bcc:	4a4f      	ldr	r2, [pc, #316]	@ (10001d0c <spdif_start+0x140>)
10001bce:	b5f0      	push	{r4, r5, r6, r7, lr}
10001bd0:	4694      	mov	ip, r2
10001bd2:	2280      	movs	r2, #128	@ 0x80
10001bd4:	4645      	mov	r5, r8
10001bd6:	46de      	mov	lr, fp
10001bd8:	4657      	mov	r7, sl
10001bda:	464e      	mov	r6, r9
10001bdc:	01d2      	lsls	r2, r2, #7
10001bde:	4692      	mov	sl, r2
10001be0:	4a4b      	ldr	r2, [pc, #300]	@ (10001d10 <spdif_start+0x144>)
10001be2:	b5e0      	push	{r5, r6, r7, lr}
10001be4:	4691      	mov	r9, r2
10001be6:	2280      	movs	r2, #128	@ 0x80
10001be8:	2580      	movs	r5, #128	@ 0x80
10001bea:	4b4a      	ldr	r3, [pc, #296]	@ (10001d14 <spdif_start+0x148>)
10001bec:	b091      	sub	sp, #68	@ 0x44
10001bee:	0192      	lsls	r2, r2, #6
10001bf0:	9006      	str	r0, [sp, #24]
10001bf2:	001c      	movs	r4, r3
10001bf4:	2100      	movs	r1, #0
10001bf6:	2001      	movs	r0, #1
10001bf8:	4690      	mov	r8, r2
10001bfa:	469b      	mov	fp, r3
10001bfc:	006d      	lsls	r5, r5, #1
10001bfe:	e039      	b.n	10001c74 <spdif_start+0xa8>
10001c00:	2603      	movs	r6, #3
10001c02:	4013      	ands	r3, r2
10001c04:	4210      	tst	r0, r2
10001c06:	d100      	bne.n	10001c0a <spdif_start+0x3e>
10001c08:	e229      	b.n	1000205e <spdif_start+0x492>
10001c0a:	2708      	movs	r7, #8
10001c0c:	2203      	movs	r2, #3
10001c0e:	433a      	orrs	r2, r7
10001c10:	088f      	lsrs	r7, r1, #2
10001c12:	4007      	ands	r7, r0
10001c14:	407b      	eors	r3, r7
10001c16:	2f00      	cmp	r7, #0
10001c18:	d03c      	beq.n	10001c94 <spdif_start+0xc8>
10001c1a:	2720      	movs	r7, #32
10001c1c:	433a      	orrs	r2, r7
10001c1e:	08cf      	lsrs	r7, r1, #3
10001c20:	4007      	ands	r7, r0
10001c22:	407b      	eors	r3, r7
10001c24:	2f00      	cmp	r7, #0
10001c26:	d03c      	beq.n	10001ca2 <spdif_start+0xd6>
10001c28:	2780      	movs	r7, #128	@ 0x80
10001c2a:	433a      	orrs	r2, r7
10001c2c:	090f      	lsrs	r7, r1, #4
10001c2e:	4007      	ands	r7, r0
10001c30:	407b      	eors	r3, r7
10001c32:	2f00      	cmp	r7, #0
10001c34:	d03b      	beq.n	10001cae <spdif_start+0xe2>
10001c36:	2780      	movs	r7, #128	@ 0x80
10001c38:	00bf      	lsls	r7, r7, #2
10001c3a:	433a      	orrs	r2, r7
10001c3c:	094f      	lsrs	r7, r1, #5
10001c3e:	4007      	ands	r7, r0
10001c40:	407b      	eors	r3, r7
10001c42:	2f00      	cmp	r7, #0
10001c44:	d03b      	beq.n	10001cbe <spdif_start+0xf2>
10001c46:	2780      	movs	r7, #128	@ 0x80
10001c48:	013f      	lsls	r7, r7, #4
10001c4a:	433a      	orrs	r2, r7
10001c4c:	098f      	lsrs	r7, r1, #6
10001c4e:	4007      	ands	r7, r0
10001c50:	407b      	eors	r3, r7
10001c52:	2f00      	cmp	r7, #0
10001c54:	d03b      	beq.n	10001cce <spdif_start+0x102>
10001c56:	09cf      	lsrs	r7, r1, #7
10001c58:	407b      	eors	r3, r7
10001c5a:	2f00      	cmp	r7, #0
10001c5c:	d100      	bne.n	10001c60 <spdif_start+0x94>
10001c5e:	e210      	b.n	10002082 <spdif_start+0x4b6>
10001c60:	464e      	mov	r6, r9
10001c62:	2701      	movs	r7, #1
10001c64:	4332      	orrs	r2, r6
10001c66:	3101      	adds	r1, #1
10001c68:	8022      	strh	r2, [r4, #0]
10001c6a:	70a7      	strb	r7, [r4, #2]
10001c6c:	70e3      	strb	r3, [r4, #3]
10001c6e:	42a9      	cmp	r1, r5
10001c70:	d03b      	beq.n	10001cea <spdif_start+0x11e>
10001c72:	3404      	adds	r4, #4
10001c74:	0003      	movs	r3, r0
10001c76:	084a      	lsrs	r2, r1, #1
10001c78:	4208      	tst	r0, r1
10001c7a:	d0c1      	beq.n	10001c00 <spdif_start+0x34>
10001c7c:	4393      	bics	r3, r2
10001c7e:	4210      	tst	r0, r2
10001c80:	d000      	beq.n	10001c84 <spdif_start+0xb8>
10001c82:	e1eb      	b.n	1000205c <spdif_start+0x490>
10001c84:	2708      	movs	r7, #8
10001c86:	2205      	movs	r2, #5
10001c88:	433a      	orrs	r2, r7
10001c8a:	088f      	lsrs	r7, r1, #2
10001c8c:	4007      	ands	r7, r0
10001c8e:	407b      	eors	r3, r7
10001c90:	2f00      	cmp	r7, #0
10001c92:	d1c2      	bne.n	10001c1a <spdif_start+0x4e>
10001c94:	2640      	movs	r6, #64	@ 0x40
10001c96:	08cf      	lsrs	r7, r1, #3
10001c98:	4007      	ands	r7, r0
10001c9a:	407b      	eors	r3, r7
10001c9c:	4332      	orrs	r2, r6
10001c9e:	2f00      	cmp	r7, #0
10001ca0:	d0c2      	beq.n	10001c28 <spdif_start+0x5c>
10001ca2:	090f      	lsrs	r7, r1, #4
10001ca4:	4007      	ands	r7, r0
10001ca6:	407b      	eors	r3, r7
10001ca8:	432a      	orrs	r2, r5
10001caa:	2f00      	cmp	r7, #0
10001cac:	d0c3      	beq.n	10001c36 <spdif_start+0x6a>
10001cae:	2680      	movs	r6, #128	@ 0x80
10001cb0:	094f      	lsrs	r7, r1, #5
10001cb2:	4007      	ands	r7, r0
10001cb4:	00f6      	lsls	r6, r6, #3
10001cb6:	407b      	eors	r3, r7
10001cb8:	4332      	orrs	r2, r6
10001cba:	2f00      	cmp	r7, #0
10001cbc:	d0c3      	beq.n	10001c46 <spdif_start+0x7a>
10001cbe:	2680      	movs	r6, #128	@ 0x80
10001cc0:	098f      	lsrs	r7, r1, #6
10001cc2:	4007      	ands	r7, r0
10001cc4:	0176      	lsls	r6, r6, #5
10001cc6:	407b      	eors	r3, r7
10001cc8:	4332      	orrs	r2, r6
10001cca:	2f00      	cmp	r7, #0
10001ccc:	d0c3      	beq.n	10001c56 <spdif_start+0x8a>
10001cce:	09cf      	lsrs	r7, r1, #7
10001cd0:	407b      	eors	r3, r7
10001cd2:	2f00      	cmp	r7, #0
10001cd4:	d100      	bne.n	10001cd8 <spdif_start+0x10c>
10001cd6:	e1cc      	b.n	10002072 <spdif_start+0x4a6>
10001cd8:	4656      	mov	r6, sl
10001cda:	2700      	movs	r7, #0
10001cdc:	4332      	orrs	r2, r6
10001cde:	3101      	adds	r1, #1
10001ce0:	8022      	strh	r2, [r4, #0]
10001ce2:	70a7      	strb	r7, [r4, #2]
10001ce4:	70e3      	strb	r3, [r4, #3]
10001ce6:	42a9      	cmp	r1, r5
10001ce8:	d1c3      	bne.n	10001c72 <spdif_start+0xa6>
10001cea:	2008      	movs	r0, #8
10001cec:	4680      	mov	r8, r0
10001cee:	2010      	movs	r0, #16
10001cf0:	465b      	mov	r3, fp
10001cf2:	4683      	mov	fp, r0
10001cf4:	2020      	movs	r0, #32
10001cf6:	2280      	movs	r2, #128	@ 0x80
10001cf8:	2580      	movs	r5, #128	@ 0x80
10001cfa:	4684      	mov	ip, r0
10001cfc:	2040      	movs	r0, #64	@ 0x40
10001cfe:	00d2      	lsls	r2, r2, #3
10001d00:	1899      	adds	r1, r3, r2
10001d02:	4681      	mov	r9, r0
10001d04:	2300      	movs	r3, #0
10001d06:	2201      	movs	r2, #1
10001d08:	006d      	lsls	r5, r5, #1
10001d0a:	e040      	b.n	10001d8e <spdif_start+0x1c2>
10001d0c:	ffffc000 	.word	0xffffc000
10001d10:	ffffa000 	.word	0xffffa000
10001d14:	20003130 	.word	0x20003130
10001d18:	0010      	movs	r0, r2
10001d1a:	085c      	lsrs	r4, r3, #1
10001d1c:	43a0      	bics	r0, r4
10001d1e:	4222      	tst	r2, r4
10001d20:	d000      	beq.n	10001d24 <spdif_start+0x158>
10001d22:	e1c0      	b.n	100020a6 <spdif_start+0x4da>
10001d24:	2402      	movs	r4, #2
10001d26:	465f      	mov	r7, fp
10001d28:	089e      	lsrs	r6, r3, #2
10001d2a:	4016      	ands	r6, r2
10001d2c:	4070      	eors	r0, r6
10001d2e:	433c      	orrs	r4, r7
10001d30:	2e00      	cmp	r6, #0
10001d32:	d13c      	bne.n	10001dae <spdif_start+0x1e2>
10001d34:	4666      	mov	r6, ip
10001d36:	4334      	orrs	r4, r6
10001d38:	08de      	lsrs	r6, r3, #3
10001d3a:	4016      	ands	r6, r2
10001d3c:	4070      	eors	r0, r6
10001d3e:	2e00      	cmp	r6, #0
10001d40:	d03c      	beq.n	10001dbc <spdif_start+0x1f0>
10001d42:	2780      	movs	r7, #128	@ 0x80
10001d44:	4327      	orrs	r7, r4
10001d46:	091c      	lsrs	r4, r3, #4
10001d48:	4014      	ands	r4, r2
10001d4a:	4060      	eors	r0, r4
10001d4c:	2c00      	cmp	r4, #0
10001d4e:	d03c      	beq.n	10001dca <spdif_start+0x1fe>
10001d50:	2480      	movs	r4, #128	@ 0x80
10001d52:	00a4      	lsls	r4, r4, #2
10001d54:	4327      	orrs	r7, r4
10001d56:	095c      	lsrs	r4, r3, #5
10001d58:	4014      	ands	r4, r2
10001d5a:	4060      	eors	r0, r4
10001d5c:	2c00      	cmp	r4, #0
10001d5e:	d03c      	beq.n	10001dda <spdif_start+0x20e>
10001d60:	2480      	movs	r4, #128	@ 0x80
10001d62:	099e      	lsrs	r6, r3, #6
10001d64:	0124      	lsls	r4, r4, #4
10001d66:	4016      	ands	r6, r2
10001d68:	433c      	orrs	r4, r7
10001d6a:	4070      	eors	r0, r6
10001d6c:	2e00      	cmp	r6, #0
10001d6e:	d03c      	beq.n	10001dea <spdif_start+0x21e>
10001d70:	09de      	lsrs	r6, r3, #7
10001d72:	4070      	eors	r0, r6
10001d74:	2e00      	cmp	r6, #0
10001d76:	d100      	bne.n	10001d7a <spdif_start+0x1ae>
10001d78:	e197      	b.n	100020aa <spdif_start+0x4de>
10001d7a:	4ee4      	ldr	r6, [pc, #912]	@ (1000210c <spdif_start+0x540>)
10001d7c:	3301      	adds	r3, #1
10001d7e:	4334      	orrs	r4, r6
10001d80:	2601      	movs	r6, #1
10001d82:	800c      	strh	r4, [r1, #0]
10001d84:	708e      	strb	r6, [r1, #2]
10001d86:	70c8      	strb	r0, [r1, #3]
10001d88:	42ab      	cmp	r3, r5
10001d8a:	d03d      	beq.n	10001e08 <spdif_start+0x23c>
10001d8c:	3104      	adds	r1, #4
10001d8e:	421a      	tst	r2, r3
10001d90:	d1c2      	bne.n	10001d18 <spdif_start+0x14c>
10001d92:	0010      	movs	r0, r2
10001d94:	085c      	lsrs	r4, r3, #1
10001d96:	4020      	ands	r0, r4
10001d98:	4222      	tst	r2, r4
10001d9a:	d000      	beq.n	10001d9e <spdif_start+0x1d2>
10001d9c:	e179      	b.n	10002092 <spdif_start+0x4c6>
10001d9e:	2404      	movs	r4, #4
10001da0:	4646      	mov	r6, r8
10001da2:	4334      	orrs	r4, r6
10001da4:	089e      	lsrs	r6, r3, #2
10001da6:	4016      	ands	r6, r2
10001da8:	4070      	eors	r0, r6
10001daa:	2e00      	cmp	r6, #0
10001dac:	d1c2      	bne.n	10001d34 <spdif_start+0x168>
10001dae:	464f      	mov	r7, r9
10001db0:	08de      	lsrs	r6, r3, #3
10001db2:	4016      	ands	r6, r2
10001db4:	4070      	eors	r0, r6
10001db6:	433c      	orrs	r4, r7
10001db8:	2e00      	cmp	r6, #0
10001dba:	d0c2      	beq.n	10001d42 <spdif_start+0x176>
10001dbc:	091e      	lsrs	r6, r3, #4
10001dbe:	4016      	ands	r6, r2
10001dc0:	432c      	orrs	r4, r5
10001dc2:	0027      	movs	r7, r4
10001dc4:	4070      	eors	r0, r6
10001dc6:	2e00      	cmp	r6, #0
10001dc8:	d0c2      	beq.n	10001d50 <spdif_start+0x184>
10001dca:	2680      	movs	r6, #128	@ 0x80
10001dcc:	095c      	lsrs	r4, r3, #5
10001dce:	4014      	ands	r4, r2
10001dd0:	00f6      	lsls	r6, r6, #3
10001dd2:	4060      	eors	r0, r4
10001dd4:	4337      	orrs	r7, r6
10001dd6:	2c00      	cmp	r4, #0
10001dd8:	d0c2      	beq.n	10001d60 <spdif_start+0x194>
10001dda:	2480      	movs	r4, #128	@ 0x80
10001ddc:	099e      	lsrs	r6, r3, #6
10001dde:	4016      	ands	r6, r2
10001de0:	0164      	lsls	r4, r4, #5
10001de2:	4070      	eors	r0, r6
10001de4:	433c      	orrs	r4, r7
10001de6:	2e00      	cmp	r6, #0
10001de8:	d0c2      	beq.n	10001d70 <spdif_start+0x1a4>
10001dea:	09de      	lsrs	r6, r3, #7
10001dec:	4070      	eors	r0, r6
10001dee:	2e00      	cmp	r6, #0
10001df0:	d100      	bne.n	10001df4 <spdif_start+0x228>
10001df2:	e150      	b.n	10002096 <spdif_start+0x4ca>
10001df4:	2680      	movs	r6, #128	@ 0x80
10001df6:	01f6      	lsls	r6, r6, #7
10001df8:	4334      	orrs	r4, r6
10001dfa:	2600      	movs	r6, #0
10001dfc:	3301      	adds	r3, #1
10001dfe:	800c      	strh	r4, [r1, #0]
10001e00:	708e      	strb	r6, [r1, #2]
10001e02:	70c8      	strb	r0, [r1, #3]
10001e04:	42ab      	cmp	r3, r5
10001e06:	d1c1      	bne.n	10001d8c <spdif_start+0x1c0>
10001e08:	4bc1      	ldr	r3, [pc, #772]	@ (10002110 <spdif_start+0x544>)
10001e0a:	4ac2      	ldr	r2, [pc, #776]	@ (10002114 <spdif_start+0x548>)
10001e0c:	4fc2      	ldr	r7, [pc, #776]	@ (10002118 <spdif_start+0x54c>)
10001e0e:	601a      	str	r2, [r3, #0]
10001e10:	22c0      	movs	r2, #192	@ 0xc0
10001e12:	2100      	movs	r1, #0
10001e14:	0112      	lsls	r2, r2, #4
10001e16:	0038      	movs	r0, r7
10001e18:	f003 fbe8 	bl	100055ec <__wrap_memset>
10001e1c:	4bbf      	ldr	r3, [pc, #764]	@ (1000211c <spdif_start+0x550>)
10001e1e:	4ec0      	ldr	r6, [pc, #768]	@ (10002120 <spdif_start+0x554>)
10001e20:	469b      	mov	fp, r3
10001e22:	601f      	str	r7, [r3, #0]
10001e24:	2300      	movs	r3, #0
10001e26:	4659      	mov	r1, fp
10001e28:	469c      	mov	ip, r3
10001e2a:	4dbe      	ldr	r5, [pc, #760]	@ (10002124 <spdif_start+0x558>)
10001e2c:	2400      	movs	r4, #0
10001e2e:	602b      	str	r3, [r5, #0]
10001e30:	6033      	str	r3, [r6, #0]
10001e32:	4bbd      	ldr	r3, [pc, #756]	@ (10002128 <spdif_start+0x55c>)
10001e34:	9107      	str	r1, [sp, #28]
10001e36:	9305      	str	r3, [sp, #20]
10001e38:	2200      	movs	r2, #0
10001e3a:	2000      	movs	r0, #0
10001e3c:	23e8      	movs	r3, #232	@ 0xe8
10001e3e:	4661      	mov	r1, ip
10001e40:	46a1      	mov	r9, r4
10001e42:	341f      	adds	r4, #31
10001e44:	46a0      	mov	r8, r4
10001e46:	9602      	str	r6, [sp, #8]
10001e48:	3c1e      	subs	r4, #30
10001e4a:	b280      	uxth	r0, r0
10001e4c:	0200      	lsls	r0, r0, #8
10001e4e:	9003      	str	r0, [sp, #12]
10001e50:	1e48      	subs	r0, r1, #1
10001e52:	4181      	sbcs	r1, r0
10001e54:	4249      	negs	r1, r1
10001e56:	4059      	eors	r1, r3
10001e58:	b2cb      	uxtb	r3, r1
10001e5a:	0609      	lsls	r1, r1, #24
10001e5c:	d400      	bmi.n	10001e60 <spdif_start+0x294>
10001e5e:	e1cb      	b.n	100021f8 <spdif_start+0x62c>
10001e60:	4640      	mov	r0, r8
10001e62:	0026      	movs	r6, r4
10001e64:	4010      	ands	r0, r2
10001e66:	4086      	lsls	r6, r0
10001e68:	0951      	lsrs	r1, r2, #5
10001e6a:	0089      	lsls	r1, r1, #2
10001e6c:	5878      	ldr	r0, [r7, r1]
10001e6e:	4330      	orrs	r0, r6
10001e70:	4646      	mov	r6, r8
10001e72:	5078      	str	r0, [r7, r1]
10001e74:	1c51      	adds	r1, r2, #1
10001e76:	0948      	lsrs	r0, r1, #5
10001e78:	4031      	ands	r1, r6
10001e7a:	0026      	movs	r6, r4
10001e7c:	408e      	lsls	r6, r1
10001e7e:	0080      	lsls	r0, r0, #2
10001e80:	5839      	ldr	r1, [r7, r0]
10001e82:	4331      	orrs	r1, r6
10001e84:	4646      	mov	r6, r8
10001e86:	5039      	str	r1, [r7, r0]
10001e88:	1c91      	adds	r1, r2, #2
10001e8a:	0948      	lsrs	r0, r1, #5
10001e8c:	4031      	ands	r1, r6
10001e8e:	0026      	movs	r6, r4
10001e90:	408e      	lsls	r6, r1
10001e92:	0080      	lsls	r0, r0, #2
10001e94:	5839      	ldr	r1, [r7, r0]
10001e96:	4331      	orrs	r1, r6
10001e98:	5039      	str	r1, [r7, r0]
10001e9a:	2be2      	cmp	r3, #226	@ 0xe2
10001e9c:	d00c      	beq.n	10001eb8 <spdif_start+0x2ec>
10001e9e:	4646      	mov	r6, r8
10001ea0:	1d11      	adds	r1, r2, #4
10001ea2:	0948      	lsrs	r0, r1, #5
10001ea4:	4031      	ands	r1, r6
10001ea6:	0026      	movs	r6, r4
10001ea8:	408e      	lsls	r6, r1
10001eaa:	0080      	lsls	r0, r0, #2
10001eac:	5839      	ldr	r1, [r7, r0]
10001eae:	4331      	orrs	r1, r6
10001eb0:	5039      	str	r1, [r7, r0]
10001eb2:	2b1d      	cmp	r3, #29
10001eb4:	d100      	bne.n	10001eb8 <spdif_start+0x2ec>
10001eb6:	e1ac      	b.n	10002212 <spdif_start+0x646>
10001eb8:	0799      	lsls	r1, r3, #30
10001eba:	d509      	bpl.n	10001ed0 <spdif_start+0x304>
10001ebc:	4646      	mov	r6, r8
10001ebe:	1d91      	adds	r1, r2, #6
10001ec0:	0948      	lsrs	r0, r1, #5
10001ec2:	4031      	ands	r1, r6
10001ec4:	0026      	movs	r6, r4
10001ec6:	408e      	lsls	r6, r1
10001ec8:	0080      	lsls	r0, r0, #2
10001eca:	5839      	ldr	r1, [r7, r0]
10001ecc:	4331      	orrs	r1, r6
10001ece:	5039      	str	r1, [r7, r0]
10001ed0:	9902      	ldr	r1, [sp, #8]
10001ed2:	4023      	ands	r3, r4
10001ed4:	600b      	str	r3, [r1, #0]
10001ed6:	d009      	beq.n	10001eec <spdif_start+0x320>
10001ed8:	4640      	mov	r0, r8
10001eda:	1dd3      	adds	r3, r2, #7
10001edc:	0959      	lsrs	r1, r3, #5
10001ede:	4003      	ands	r3, r0
10001ee0:	0020      	movs	r0, r4
10001ee2:	4098      	lsls	r0, r3
10001ee4:	0089      	lsls	r1, r1, #2
10001ee6:	587b      	ldr	r3, [r7, r1]
10001ee8:	4303      	orrs	r3, r0
10001eea:	507b      	str	r3, [r7, r1]
10001eec:	2300      	movs	r3, #0
10001eee:	469a      	mov	sl, r3
10001ef0:	469b      	mov	fp, r3
10001ef2:	3208      	adds	r2, #8
10001ef4:	9e02      	ldr	r6, [sp, #8]
10001ef6:	602a      	str	r2, [r5, #0]
10001ef8:	465b      	mov	r3, fp
10001efa:	9803      	ldr	r0, [sp, #12]
10001efc:	40d8      	lsrs	r0, r3
10001efe:	4020      	ands	r0, r4
10001f00:	4482      	add	sl, r0
10001f02:	b2c0      	uxtb	r0, r0
10001f04:	f7ff fbfe 	bl	10001704 <append_bmc_bit>
10001f08:	2301      	movs	r3, #1
10001f0a:	449b      	add	fp, r3
10001f0c:	465b      	mov	r3, fp
10001f0e:	2b18      	cmp	r3, #24
10001f10:	d1f2      	bne.n	10001ef8 <spdif_start+0x32c>
10001f12:	682b      	ldr	r3, [r5, #0]
10001f14:	6832      	ldr	r2, [r6, #0]
10001f16:	1c99      	adds	r1, r3, #2
10001f18:	9602      	str	r6, [sp, #8]
10001f1a:	9104      	str	r1, [sp, #16]
10001f1c:	2a01      	cmp	r2, #1
10001f1e:	d000      	beq.n	10001f22 <spdif_start+0x356>
10001f20:	e138      	b.n	10002194 <spdif_start+0x5c8>
10001f22:	4646      	mov	r6, r8
10001f24:	1c99      	adds	r1, r3, #2
10001f26:	0948      	lsrs	r0, r1, #5
10001f28:	4031      	ands	r1, r6
10001f2a:	0026      	movs	r6, r4
10001f2c:	408e      	lsls	r6, r1
10001f2e:	0080      	lsls	r0, r0, #2
10001f30:	5839      	ldr	r1, [r7, r0]
10001f32:	4331      	orrs	r1, r6
10001f34:	4646      	mov	r6, r8
10001f36:	5039      	str	r1, [r7, r0]
10001f38:	1cd9      	adds	r1, r3, #3
10001f3a:	0948      	lsrs	r0, r1, #5
10001f3c:	4031      	ands	r1, r6
10001f3e:	0026      	movs	r6, r4
10001f40:	408e      	lsls	r6, r1
10001f42:	0080      	lsls	r0, r0, #2
10001f44:	5839      	ldr	r1, [r7, r0]
10001f46:	4331      	orrs	r1, r6
10001f48:	5039      	str	r1, [r7, r0]
10001f4a:	0011      	movs	r1, r2
10001f4c:	9802      	ldr	r0, [sp, #8]
10001f4e:	4061      	eors	r1, r4
10001f50:	6001      	str	r1, [r0, #0]
10001f52:	2a01      	cmp	r2, #1
10001f54:	d000      	beq.n	10001f58 <spdif_start+0x38c>
10001f56:	e13a      	b.n	100021ce <spdif_start+0x602>
10001f58:	4650      	mov	r0, sl
10001f5a:	3306      	adds	r3, #6
10001f5c:	4020      	ands	r0, r4
10001f5e:	602b      	str	r3, [r5, #0]
10001f60:	f7ff fbd0 	bl	10001704 <append_bmc_bit>
10001f64:	9e02      	ldr	r6, [sp, #8]
10001f66:	682b      	ldr	r3, [r5, #0]
10001f68:	6832      	ldr	r2, [r6, #0]
10001f6a:	2a00      	cmp	r2, #0
10001f6c:	d100      	bne.n	10001f70 <spdif_start+0x3a4>
10001f6e:	e0a5      	b.n	100020bc <spdif_start+0x4f0>
10001f70:	4640      	mov	r0, r8
10001f72:	1cda      	adds	r2, r3, #3
10001f74:	0951      	lsrs	r1, r2, #5
10001f76:	4002      	ands	r2, r0
10001f78:	0020      	movs	r0, r4
10001f7a:	4090      	lsls	r0, r2
10001f7c:	0089      	lsls	r1, r1, #2
10001f7e:	587a      	ldr	r2, [r7, r1]
10001f80:	6034      	str	r4, [r6, #0]
10001f82:	4302      	orrs	r2, r0
10001f84:	4640      	mov	r0, r8
10001f86:	507a      	str	r2, [r7, r1]
10001f88:	1d1a      	adds	r2, r3, #4
10001f8a:	0951      	lsrs	r1, r2, #5
10001f8c:	4002      	ands	r2, r0
10001f8e:	0020      	movs	r0, r4
10001f90:	4090      	lsls	r0, r2
10001f92:	0089      	lsls	r1, r1, #2
10001f94:	587a      	ldr	r2, [r7, r1]
10001f96:	4302      	orrs	r2, r0
10001f98:	4640      	mov	r0, r8
10001f9a:	507a      	str	r2, [r7, r1]
10001f9c:	1d9a      	adds	r2, r3, #6
10001f9e:	0951      	lsrs	r1, r2, #5
10001fa0:	4002      	ands	r2, r0
10001fa2:	0020      	movs	r0, r4
10001fa4:	4090      	lsls	r0, r2
10001fa6:	0089      	lsls	r1, r1, #2
10001fa8:	587a      	ldr	r2, [r7, r1]
10001faa:	4302      	orrs	r2, r0
10001fac:	4640      	mov	r0, r8
10001fae:	507a      	str	r2, [r7, r1]
10001fb0:	1dda      	adds	r2, r3, #7
10001fb2:	0951      	lsrs	r1, r2, #5
10001fb4:	4002      	ands	r2, r0
10001fb6:	0020      	movs	r0, r4
10001fb8:	4090      	lsls	r0, r2
10001fba:	0089      	lsls	r1, r1, #2
10001fbc:	587a      	ldr	r2, [r7, r1]
10001fbe:	4302      	orrs	r2, r0
10001fc0:	507a      	str	r2, [r7, r1]
10001fc2:	3308      	adds	r3, #8
10001fc4:	602b      	str	r3, [r5, #0]
10001fc6:	2300      	movs	r3, #0
10001fc8:	469a      	mov	sl, r3
10001fca:	469b      	mov	fp, r3
10001fcc:	465b      	mov	r3, fp
10001fce:	9803      	ldr	r0, [sp, #12]
10001fd0:	40d8      	lsrs	r0, r3
10001fd2:	4020      	ands	r0, r4
10001fd4:	4482      	add	sl, r0
10001fd6:	b2c0      	uxtb	r0, r0
10001fd8:	f7ff fb94 	bl	10001704 <append_bmc_bit>
10001fdc:	2301      	movs	r3, #1
10001fde:	449b      	add	fp, r3
10001fe0:	465b      	mov	r3, fp
10001fe2:	2b18      	cmp	r3, #24
10001fe4:	d1f2      	bne.n	10001fcc <spdif_start+0x400>
10001fe6:	682b      	ldr	r3, [r5, #0]
10001fe8:	6832      	ldr	r2, [r6, #0]
10001fea:	1c99      	adds	r1, r3, #2
10001fec:	9602      	str	r6, [sp, #8]
10001fee:	9103      	str	r1, [sp, #12]
10001ff0:	2a01      	cmp	r2, #1
10001ff2:	d000      	beq.n	10001ff6 <spdif_start+0x42a>
10001ff4:	e09c      	b.n	10002130 <spdif_start+0x564>
10001ff6:	4646      	mov	r6, r8
10001ff8:	1c99      	adds	r1, r3, #2
10001ffa:	0948      	lsrs	r0, r1, #5
10001ffc:	4031      	ands	r1, r6
10001ffe:	0026      	movs	r6, r4
10002000:	408e      	lsls	r6, r1
10002002:	0080      	lsls	r0, r0, #2
10002004:	5839      	ldr	r1, [r7, r0]
10002006:	4331      	orrs	r1, r6
10002008:	4646      	mov	r6, r8
1000200a:	5039      	str	r1, [r7, r0]
1000200c:	1cd8      	adds	r0, r3, #3
1000200e:	0941      	lsrs	r1, r0, #5
10002010:	4030      	ands	r0, r6
10002012:	0026      	movs	r6, r4
10002014:	4086      	lsls	r6, r0
10002016:	0089      	lsls	r1, r1, #2
10002018:	5878      	ldr	r0, [r7, r1]
1000201a:	4330      	orrs	r0, r6
1000201c:	5078      	str	r0, [r7, r1]
1000201e:	0011      	movs	r1, r2
10002020:	9802      	ldr	r0, [sp, #8]
10002022:	4061      	eors	r1, r4
10002024:	6001      	str	r1, [r0, #0]
10002026:	2a01      	cmp	r2, #1
10002028:	d000      	beq.n	1000202c <spdif_start+0x460>
1000202a:	e09e      	b.n	1000216a <spdif_start+0x59e>
1000202c:	4650      	mov	r0, sl
1000202e:	3306      	adds	r3, #6
10002030:	4020      	ands	r0, r4
10002032:	602b      	str	r3, [r5, #0]
10002034:	f7ff fb66 	bl	10001704 <append_bmc_bit>
10002038:	2301      	movs	r3, #1
1000203a:	4499      	add	r9, r3
1000203c:	464b      	mov	r3, r9
1000203e:	2bc0      	cmp	r3, #192	@ 0xc0
10002040:	d100      	bne.n	10002044 <spdif_start+0x478>
10002042:	e0f1      	b.n	10002228 <spdif_start+0x65c>
10002044:	2130      	movs	r1, #48	@ 0x30
10002046:	4648      	mov	r0, r9
10002048:	f002 fbee 	bl	10004828 <__wrap___aeabi_uidiv>
1000204c:	9b05      	ldr	r3, [sp, #20]
1000204e:	0049      	lsls	r1, r1, #1
10002050:	5ec8      	ldrsh	r0, [r1, r3]
10002052:	9b02      	ldr	r3, [sp, #8]
10002054:	682a      	ldr	r2, [r5, #0]
10002056:	6819      	ldr	r1, [r3, #0]
10002058:	23e2      	movs	r3, #226	@ 0xe2
1000205a:	e6f6      	b.n	10001e4a <spdif_start+0x27e>
1000205c:	2605      	movs	r6, #5
1000205e:	2210      	movs	r2, #16
10002060:	088f      	lsrs	r7, r1, #2
10002062:	4007      	ands	r7, r0
10002064:	4316      	orrs	r6, r2
10002066:	0032      	movs	r2, r6
10002068:	407b      	eors	r3, r7
1000206a:	2f00      	cmp	r7, #0
1000206c:	d000      	beq.n	10002070 <spdif_start+0x4a4>
1000206e:	e611      	b.n	10001c94 <spdif_start+0xc8>
10002070:	e5d3      	b.n	10001c1a <spdif_start+0x4e>
10002072:	4666      	mov	r6, ip
10002074:	4332      	orrs	r2, r6
10002076:	8022      	strh	r2, [r4, #0]
10002078:	70a0      	strb	r0, [r4, #2]
1000207a:	70e3      	strb	r3, [r4, #3]
1000207c:	3101      	adds	r1, #1
1000207e:	3404      	adds	r4, #4
10002080:	e5f8      	b.n	10001c74 <spdif_start+0xa8>
10002082:	4646      	mov	r6, r8
10002084:	4332      	orrs	r2, r6
10002086:	8022      	strh	r2, [r4, #0]
10002088:	70a7      	strb	r7, [r4, #2]
1000208a:	70e3      	strb	r3, [r4, #3]
1000208c:	3101      	adds	r1, #1
1000208e:	3404      	adds	r4, #4
10002090:	e5f0      	b.n	10001c74 <spdif_start+0xa8>
10002092:	2404      	movs	r4, #4
10002094:	e647      	b.n	10001d26 <spdif_start+0x15a>
10002096:	4e25      	ldr	r6, [pc, #148]	@ (1000212c <spdif_start+0x560>)
10002098:	708a      	strb	r2, [r1, #2]
1000209a:	4334      	orrs	r4, r6
1000209c:	800c      	strh	r4, [r1, #0]
1000209e:	70c8      	strb	r0, [r1, #3]
100020a0:	3301      	adds	r3, #1
100020a2:	3104      	adds	r1, #4
100020a4:	e673      	b.n	10001d8e <spdif_start+0x1c2>
100020a6:	2402      	movs	r4, #2
100020a8:	e67a      	b.n	10001da0 <spdif_start+0x1d4>
100020aa:	2780      	movs	r7, #128	@ 0x80
100020ac:	01bf      	lsls	r7, r7, #6
100020ae:	433c      	orrs	r4, r7
100020b0:	800c      	strh	r4, [r1, #0]
100020b2:	708e      	strb	r6, [r1, #2]
100020b4:	70c8      	strb	r0, [r1, #3]
100020b6:	3301      	adds	r3, #1
100020b8:	3104      	adds	r1, #4
100020ba:	e668      	b.n	10001d8e <spdif_start+0x1c2>
100020bc:	4641      	mov	r1, r8
100020be:	0020      	movs	r0, r4
100020c0:	4019      	ands	r1, r3
100020c2:	4088      	lsls	r0, r1
100020c4:	095a      	lsrs	r2, r3, #5
100020c6:	0092      	lsls	r2, r2, #2
100020c8:	58b9      	ldr	r1, [r7, r2]
100020ca:	4301      	orrs	r1, r0
100020cc:	4640      	mov	r0, r8
100020ce:	50b9      	str	r1, [r7, r2]
100020d0:	1c59      	adds	r1, r3, #1
100020d2:	094a      	lsrs	r2, r1, #5
100020d4:	4001      	ands	r1, r0
100020d6:	0020      	movs	r0, r4
100020d8:	4088      	lsls	r0, r1
100020da:	0092      	lsls	r2, r2, #2
100020dc:	58b9      	ldr	r1, [r7, r2]
100020de:	4301      	orrs	r1, r0
100020e0:	4640      	mov	r0, r8
100020e2:	50b9      	str	r1, [r7, r2]
100020e4:	1c99      	adds	r1, r3, #2
100020e6:	094a      	lsrs	r2, r1, #5
100020e8:	4001      	ands	r1, r0
100020ea:	0020      	movs	r0, r4
100020ec:	4088      	lsls	r0, r1
100020ee:	0092      	lsls	r2, r2, #2
100020f0:	58b9      	ldr	r1, [r7, r2]
100020f2:	4301      	orrs	r1, r0
100020f4:	4640      	mov	r0, r8
100020f6:	50b9      	str	r1, [r7, r2]
100020f8:	1d59      	adds	r1, r3, #5
100020fa:	094a      	lsrs	r2, r1, #5
100020fc:	4001      	ands	r1, r0
100020fe:	0020      	movs	r0, r4
10002100:	4088      	lsls	r0, r1
10002102:	0092      	lsls	r2, r2, #2
10002104:	58b9      	ldr	r1, [r7, r2]
10002106:	4301      	orrs	r1, r0
10002108:	50b9      	str	r1, [r7, r2]
1000210a:	e75a      	b.n	10001fc2 <spdif_start+0x3f6>
1000210c:	ffffa000 	.word	0xffffa000
10002110:	20003930 	.word	0x20003930
10002114:	4cccb333 	.word	0x4cccb333
10002118:	20006454 	.word	0x20006454
1000211c:	20003a34 	.word	0x20003a34
10002120:	20004ad8 	.word	0x20004ad8
10002124:	20006444 	.word	0x20006444
10002128:	1000b330 	.word	0x1000b330
1000212c:	ffffc000 	.word	0xffffc000
10002130:	4646      	mov	r6, r8
10002132:	401e      	ands	r6, r3
10002134:	0031      	movs	r1, r6
10002136:	0026      	movs	r6, r4
10002138:	408e      	lsls	r6, r1
1000213a:	0958      	lsrs	r0, r3, #5
1000213c:	0080      	lsls	r0, r0, #2
1000213e:	5839      	ldr	r1, [r7, r0]
10002140:	430e      	orrs	r6, r1
10002142:	1c59      	adds	r1, r3, #1
10002144:	503e      	str	r6, [r7, r0]
10002146:	000e      	movs	r6, r1
10002148:	0948      	lsrs	r0, r1, #5
1000214a:	4641      	mov	r1, r8
1000214c:	400e      	ands	r6, r1
1000214e:	0031      	movs	r1, r6
10002150:	0026      	movs	r6, r4
10002152:	408e      	lsls	r6, r1
10002154:	0080      	lsls	r0, r0, #2
10002156:	5839      	ldr	r1, [r7, r0]
10002158:	430e      	orrs	r6, r1
1000215a:	1c99      	adds	r1, r3, #2
1000215c:	503e      	str	r6, [r7, r0]
1000215e:	6029      	str	r1, [r5, #0]
10002160:	2a00      	cmp	r2, #0
10002162:	d000      	beq.n	10002166 <spdif_start+0x59a>
10002164:	e747      	b.n	10001ff6 <spdif_start+0x42a>
10002166:	9a02      	ldr	r2, [sp, #8]
10002168:	6014      	str	r4, [r2, #0]
1000216a:	4640      	mov	r0, r8
1000216c:	1d19      	adds	r1, r3, #4
1000216e:	094a      	lsrs	r2, r1, #5
10002170:	4001      	ands	r1, r0
10002172:	0020      	movs	r0, r4
10002174:	4088      	lsls	r0, r1
10002176:	0092      	lsls	r2, r2, #2
10002178:	58b9      	ldr	r1, [r7, r2]
1000217a:	4301      	orrs	r1, r0
1000217c:	4640      	mov	r0, r8
1000217e:	50b9      	str	r1, [r7, r2]
10002180:	1d59      	adds	r1, r3, #5
10002182:	094a      	lsrs	r2, r1, #5
10002184:	4001      	ands	r1, r0
10002186:	0020      	movs	r0, r4
10002188:	4088      	lsls	r0, r1
1000218a:	0092      	lsls	r2, r2, #2
1000218c:	58b9      	ldr	r1, [r7, r2]
1000218e:	4301      	orrs	r1, r0
10002190:	50b9      	str	r1, [r7, r2]
10002192:	e74b      	b.n	1000202c <spdif_start+0x460>
10002194:	4646      	mov	r6, r8
10002196:	401e      	ands	r6, r3
10002198:	0031      	movs	r1, r6
1000219a:	0026      	movs	r6, r4
1000219c:	408e      	lsls	r6, r1
1000219e:	0958      	lsrs	r0, r3, #5
100021a0:	0080      	lsls	r0, r0, #2
100021a2:	5839      	ldr	r1, [r7, r0]
100021a4:	430e      	orrs	r6, r1
100021a6:	1c59      	adds	r1, r3, #1
100021a8:	503e      	str	r6, [r7, r0]
100021aa:	000e      	movs	r6, r1
100021ac:	0948      	lsrs	r0, r1, #5
100021ae:	4641      	mov	r1, r8
100021b0:	400e      	ands	r6, r1
100021b2:	0031      	movs	r1, r6
100021b4:	0026      	movs	r6, r4
100021b6:	408e      	lsls	r6, r1
100021b8:	0080      	lsls	r0, r0, #2
100021ba:	5839      	ldr	r1, [r7, r0]
100021bc:	430e      	orrs	r6, r1
100021be:	1c99      	adds	r1, r3, #2
100021c0:	503e      	str	r6, [r7, r0]
100021c2:	6029      	str	r1, [r5, #0]
100021c4:	2a00      	cmp	r2, #0
100021c6:	d000      	beq.n	100021ca <spdif_start+0x5fe>
100021c8:	e6ab      	b.n	10001f22 <spdif_start+0x356>
100021ca:	9a02      	ldr	r2, [sp, #8]
100021cc:	6014      	str	r4, [r2, #0]
100021ce:	4640      	mov	r0, r8
100021d0:	1d1a      	adds	r2, r3, #4
100021d2:	0951      	lsrs	r1, r2, #5
100021d4:	4002      	ands	r2, r0
100021d6:	0020      	movs	r0, r4
100021d8:	4090      	lsls	r0, r2
100021da:	0089      	lsls	r1, r1, #2
100021dc:	587a      	ldr	r2, [r7, r1]
100021de:	4302      	orrs	r2, r0
100021e0:	4640      	mov	r0, r8
100021e2:	507a      	str	r2, [r7, r1]
100021e4:	1d5a      	adds	r2, r3, #5
100021e6:	0951      	lsrs	r1, r2, #5
100021e8:	4002      	ands	r2, r0
100021ea:	0020      	movs	r0, r4
100021ec:	4090      	lsls	r0, r2
100021ee:	0089      	lsls	r1, r1, #2
100021f0:	587a      	ldr	r2, [r7, r1]
100021f2:	4302      	orrs	r2, r0
100021f4:	507a      	str	r2, [r7, r1]
100021f6:	e6af      	b.n	10001f58 <spdif_start+0x38c>
100021f8:	4646      	mov	r6, r8
100021fa:	1cd1      	adds	r1, r2, #3
100021fc:	0948      	lsrs	r0, r1, #5
100021fe:	4031      	ands	r1, r6
10002200:	0026      	movs	r6, r4
10002202:	408e      	lsls	r6, r1
10002204:	0080      	lsls	r0, r0, #2
10002206:	5839      	ldr	r1, [r7, r0]
10002208:	4331      	orrs	r1, r6
1000220a:	5039      	str	r1, [r7, r0]
1000220c:	2b17      	cmp	r3, #23
1000220e:	d000      	beq.n	10002212 <spdif_start+0x646>
10002210:	e645      	b.n	10001e9e <spdif_start+0x2d2>
10002212:	4646      	mov	r6, r8
10002214:	1d51      	adds	r1, r2, #5
10002216:	0948      	lsrs	r0, r1, #5
10002218:	4031      	ands	r1, r6
1000221a:	0026      	movs	r6, r4
1000221c:	408e      	lsls	r6, r1
1000221e:	0080      	lsls	r0, r0, #2
10002220:	5839      	ldr	r1, [r7, r0]
10002222:	4331      	orrs	r1, r6
10002224:	5039      	str	r1, [r7, r0]
10002226:	e647      	b.n	10001eb8 <spdif_start+0x2ec>
10002228:	9b07      	ldr	r3, [sp, #28]
1000222a:	22c0      	movs	r2, #192	@ 0xc0
1000222c:	469b      	mov	fp, r3
1000222e:	4fda      	ldr	r7, [pc, #872]	@ (10002598 <spdif_start+0x9cc>)
10002230:	2100      	movs	r1, #0
10002232:	0112      	lsls	r2, r2, #4
10002234:	0038      	movs	r0, r7
10002236:	9e02      	ldr	r6, [sp, #8]
10002238:	f003 f9d8 	bl	100055ec <__wrap_memset>
1000223c:	465b      	mov	r3, fp
1000223e:	201f      	movs	r0, #31
10002240:	601f      	str	r7, [r3, #0]
10002242:	2300      	movs	r3, #0
10002244:	4680      	mov	r8, r0
10002246:	381d      	subs	r0, #29
10002248:	4683      	mov	fp, r0
1000224a:	602b      	str	r3, [r5, #0]
1000224c:	6033      	str	r3, [r6, #0]
1000224e:	1e58      	subs	r0, r3, #1
10002250:	4183      	sbcs	r3, r0
10002252:	21e8      	movs	r1, #232	@ 0xe8
10002254:	425b      	negs	r3, r3
10002256:	4059      	eors	r1, r3
10002258:	2200      	movs	r2, #0
1000225a:	2401      	movs	r4, #1
1000225c:	9602      	str	r6, [sp, #8]
1000225e:	b2cb      	uxtb	r3, r1
10002260:	0609      	lsls	r1, r1, #24
10002262:	d400      	bmi.n	10002266 <spdif_start+0x69a>
10002264:	e0ed      	b.n	10002442 <spdif_start+0x876>
10002266:	4640      	mov	r0, r8
10002268:	0026      	movs	r6, r4
1000226a:	4010      	ands	r0, r2
1000226c:	4086      	lsls	r6, r0
1000226e:	0951      	lsrs	r1, r2, #5
10002270:	0089      	lsls	r1, r1, #2
10002272:	5878      	ldr	r0, [r7, r1]
10002274:	4330      	orrs	r0, r6
10002276:	4646      	mov	r6, r8
10002278:	5078      	str	r0, [r7, r1]
1000227a:	1c51      	adds	r1, r2, #1
1000227c:	0948      	lsrs	r0, r1, #5
1000227e:	4031      	ands	r1, r6
10002280:	0026      	movs	r6, r4
10002282:	408e      	lsls	r6, r1
10002284:	0080      	lsls	r0, r0, #2
10002286:	5839      	ldr	r1, [r7, r0]
10002288:	4331      	orrs	r1, r6
1000228a:	4646      	mov	r6, r8
1000228c:	5039      	str	r1, [r7, r0]
1000228e:	1c91      	adds	r1, r2, #2
10002290:	0948      	lsrs	r0, r1, #5
10002292:	4031      	ands	r1, r6
10002294:	0026      	movs	r6, r4
10002296:	408e      	lsls	r6, r1
10002298:	0080      	lsls	r0, r0, #2
1000229a:	5839      	ldr	r1, [r7, r0]
1000229c:	4331      	orrs	r1, r6
1000229e:	5039      	str	r1, [r7, r0]
100022a0:	2be2      	cmp	r3, #226	@ 0xe2
100022a2:	d00c      	beq.n	100022be <spdif_start+0x6f2>
100022a4:	4646      	mov	r6, r8
100022a6:	1d11      	adds	r1, r2, #4
100022a8:	0948      	lsrs	r0, r1, #5
100022aa:	4031      	ands	r1, r6
100022ac:	0026      	movs	r6, r4
100022ae:	408e      	lsls	r6, r1
100022b0:	0080      	lsls	r0, r0, #2
100022b2:	5839      	ldr	r1, [r7, r0]
100022b4:	4331      	orrs	r1, r6
100022b6:	5039      	str	r1, [r7, r0]
100022b8:	2b1d      	cmp	r3, #29
100022ba:	d100      	bne.n	100022be <spdif_start+0x6f2>
100022bc:	e0ce      	b.n	1000245c <spdif_start+0x890>
100022be:	4659      	mov	r1, fp
100022c0:	4219      	tst	r1, r3
100022c2:	d009      	beq.n	100022d8 <spdif_start+0x70c>
100022c4:	4646      	mov	r6, r8
100022c6:	1d91      	adds	r1, r2, #6
100022c8:	0948      	lsrs	r0, r1, #5
100022ca:	4031      	ands	r1, r6
100022cc:	0026      	movs	r6, r4
100022ce:	408e      	lsls	r6, r1
100022d0:	0080      	lsls	r0, r0, #2
100022d2:	5839      	ldr	r1, [r7, r0]
100022d4:	4331      	orrs	r1, r6
100022d6:	5039      	str	r1, [r7, r0]
100022d8:	9902      	ldr	r1, [sp, #8]
100022da:	4023      	ands	r3, r4
100022dc:	600b      	str	r3, [r1, #0]
100022de:	d009      	beq.n	100022f4 <spdif_start+0x728>
100022e0:	4640      	mov	r0, r8
100022e2:	1dd1      	adds	r1, r2, #7
100022e4:	094b      	lsrs	r3, r1, #5
100022e6:	4001      	ands	r1, r0
100022e8:	0020      	movs	r0, r4
100022ea:	4088      	lsls	r0, r1
100022ec:	009b      	lsls	r3, r3, #2
100022ee:	58f9      	ldr	r1, [r7, r3]
100022f0:	4301      	orrs	r1, r0
100022f2:	50f9      	str	r1, [r7, r3]
100022f4:	2318      	movs	r3, #24
100022f6:	469a      	mov	sl, r3
100022f8:	3208      	adds	r2, #8
100022fa:	9e02      	ldr	r6, [sp, #8]
100022fc:	602a      	str	r2, [r5, #0]
100022fe:	2000      	movs	r0, #0
10002300:	f7ff fa00 	bl	10001704 <append_bmc_bit>
10002304:	2301      	movs	r3, #1
10002306:	425b      	negs	r3, r3
10002308:	449a      	add	sl, r3
1000230a:	4653      	mov	r3, sl
1000230c:	2b00      	cmp	r3, #0
1000230e:	d1f6      	bne.n	100022fe <spdif_start+0x732>
10002310:	682b      	ldr	r3, [r5, #0]
10002312:	6832      	ldr	r2, [r6, #0]
10002314:	9602      	str	r6, [sp, #8]
10002316:	1c98      	adds	r0, r3, #2
10002318:	2a01      	cmp	r2, #1
1000231a:	d000      	beq.n	1000231e <spdif_start+0x752>
1000231c:	e102      	b.n	10002524 <spdif_start+0x958>
1000231e:	4646      	mov	r6, r8
10002320:	0941      	lsrs	r1, r0, #5
10002322:	4030      	ands	r0, r6
10002324:	0026      	movs	r6, r4
10002326:	4086      	lsls	r6, r0
10002328:	0089      	lsls	r1, r1, #2
1000232a:	5878      	ldr	r0, [r7, r1]
1000232c:	4330      	orrs	r0, r6
1000232e:	4646      	mov	r6, r8
10002330:	5078      	str	r0, [r7, r1]
10002332:	1cd9      	adds	r1, r3, #3
10002334:	0948      	lsrs	r0, r1, #5
10002336:	4031      	ands	r1, r6
10002338:	0026      	movs	r6, r4
1000233a:	408e      	lsls	r6, r1
1000233c:	0080      	lsls	r0, r0, #2
1000233e:	5839      	ldr	r1, [r7, r0]
10002340:	4331      	orrs	r1, r6
10002342:	5039      	str	r1, [r7, r0]
10002344:	0011      	movs	r1, r2
10002346:	9802      	ldr	r0, [sp, #8]
10002348:	4061      	eors	r1, r4
1000234a:	6001      	str	r1, [r0, #0]
1000234c:	2a01      	cmp	r2, #1
1000234e:	d000      	beq.n	10002352 <spdif_start+0x786>
10002350:	e10d      	b.n	1000256e <spdif_start+0x9a2>
10002352:	3306      	adds	r3, #6
10002354:	2000      	movs	r0, #0
10002356:	602b      	str	r3, [r5, #0]
10002358:	f7ff f9d4 	bl	10001704 <append_bmc_bit>
1000235c:	9e02      	ldr	r6, [sp, #8]
1000235e:	682b      	ldr	r3, [r5, #0]
10002360:	6832      	ldr	r2, [r6, #0]
10002362:	2a00      	cmp	r2, #0
10002364:	d100      	bne.n	10002368 <spdif_start+0x79c>
10002366:	e084      	b.n	10002472 <spdif_start+0x8a6>
10002368:	4640      	mov	r0, r8
1000236a:	1cd9      	adds	r1, r3, #3
1000236c:	094a      	lsrs	r2, r1, #5
1000236e:	4001      	ands	r1, r0
10002370:	0020      	movs	r0, r4
10002372:	4088      	lsls	r0, r1
10002374:	0092      	lsls	r2, r2, #2
10002376:	58b9      	ldr	r1, [r7, r2]
10002378:	6034      	str	r4, [r6, #0]
1000237a:	4301      	orrs	r1, r0
1000237c:	4640      	mov	r0, r8
1000237e:	50b9      	str	r1, [r7, r2]
10002380:	1d19      	adds	r1, r3, #4
10002382:	094a      	lsrs	r2, r1, #5
10002384:	4001      	ands	r1, r0
10002386:	0020      	movs	r0, r4
10002388:	4088      	lsls	r0, r1
1000238a:	0092      	lsls	r2, r2, #2
1000238c:	58b9      	ldr	r1, [r7, r2]
1000238e:	4301      	orrs	r1, r0
10002390:	4640      	mov	r0, r8
10002392:	50b9      	str	r1, [r7, r2]
10002394:	1d99      	adds	r1, r3, #6
10002396:	094a      	lsrs	r2, r1, #5
10002398:	4001      	ands	r1, r0
1000239a:	0020      	movs	r0, r4
1000239c:	4088      	lsls	r0, r1
1000239e:	0092      	lsls	r2, r2, #2
100023a0:	58b9      	ldr	r1, [r7, r2]
100023a2:	4301      	orrs	r1, r0
100023a4:	50b9      	str	r1, [r7, r2]
100023a6:	1dd9      	adds	r1, r3, #7
100023a8:	4640      	mov	r0, r8
100023aa:	094a      	lsrs	r2, r1, #5
100023ac:	4001      	ands	r1, r0
100023ae:	0020      	movs	r0, r4
100023b0:	4088      	lsls	r0, r1
100023b2:	0092      	lsls	r2, r2, #2
100023b4:	58b9      	ldr	r1, [r7, r2]
100023b6:	3308      	adds	r3, #8
100023b8:	4301      	orrs	r1, r0
100023ba:	50b9      	str	r1, [r7, r2]
100023bc:	602b      	str	r3, [r5, #0]
100023be:	2318      	movs	r3, #24
100023c0:	469a      	mov	sl, r3
100023c2:	2000      	movs	r0, #0
100023c4:	f7ff f99e 	bl	10001704 <append_bmc_bit>
100023c8:	2301      	movs	r3, #1
100023ca:	425b      	negs	r3, r3
100023cc:	449a      	add	sl, r3
100023ce:	4653      	mov	r3, sl
100023d0:	2b00      	cmp	r3, #0
100023d2:	d1f6      	bne.n	100023c2 <spdif_start+0x7f6>
100023d4:	682b      	ldr	r3, [r5, #0]
100023d6:	6832      	ldr	r2, [r6, #0]
100023d8:	9602      	str	r6, [sp, #8]
100023da:	1c98      	adds	r0, r3, #2
100023dc:	2a01      	cmp	r2, #1
100023de:	d167      	bne.n	100024b0 <spdif_start+0x8e4>
100023e0:	4646      	mov	r6, r8
100023e2:	0941      	lsrs	r1, r0, #5
100023e4:	4030      	ands	r0, r6
100023e6:	0026      	movs	r6, r4
100023e8:	4086      	lsls	r6, r0
100023ea:	0089      	lsls	r1, r1, #2
100023ec:	5878      	ldr	r0, [r7, r1]
100023ee:	4330      	orrs	r0, r6
100023f0:	4646      	mov	r6, r8
100023f2:	5078      	str	r0, [r7, r1]
100023f4:	1cd9      	adds	r1, r3, #3
100023f6:	0948      	lsrs	r0, r1, #5
100023f8:	4031      	ands	r1, r6
100023fa:	0026      	movs	r6, r4
100023fc:	408e      	lsls	r6, r1
100023fe:	0080      	lsls	r0, r0, #2
10002400:	5839      	ldr	r1, [r7, r0]
10002402:	4331      	orrs	r1, r6
10002404:	5039      	str	r1, [r7, r0]
10002406:	0011      	movs	r1, r2
10002408:	9802      	ldr	r0, [sp, #8]
1000240a:	4061      	eors	r1, r4
1000240c:	6001      	str	r1, [r0, #0]
1000240e:	2a01      	cmp	r2, #1
10002410:	d173      	bne.n	100024fa <spdif_start+0x92e>
10002412:	3306      	adds	r3, #6
10002414:	2000      	movs	r0, #0
10002416:	602b      	str	r3, [r5, #0]
10002418:	f7ff f974 	bl	10001704 <append_bmc_bit>
1000241c:	2301      	movs	r3, #1
1000241e:	425b      	negs	r3, r3
10002420:	4499      	add	r9, r3
10002422:	464b      	mov	r3, r9
10002424:	2b00      	cmp	r3, #0
10002426:	d100      	bne.n	1000242a <spdif_start+0x85e>
10002428:	e0b8      	b.n	1000259c <spdif_start+0x9d0>
1000242a:	9b02      	ldr	r3, [sp, #8]
1000242c:	21e2      	movs	r1, #226	@ 0xe2
1000242e:	681b      	ldr	r3, [r3, #0]
10002430:	682a      	ldr	r2, [r5, #0]
10002432:	1e58      	subs	r0, r3, #1
10002434:	4183      	sbcs	r3, r0
10002436:	425b      	negs	r3, r3
10002438:	4059      	eors	r1, r3
1000243a:	b2cb      	uxtb	r3, r1
1000243c:	0609      	lsls	r1, r1, #24
1000243e:	d500      	bpl.n	10002442 <spdif_start+0x876>
10002440:	e711      	b.n	10002266 <spdif_start+0x69a>
10002442:	4646      	mov	r6, r8
10002444:	1cd1      	adds	r1, r2, #3
10002446:	0948      	lsrs	r0, r1, #5
10002448:	4031      	ands	r1, r6
1000244a:	0026      	movs	r6, r4
1000244c:	408e      	lsls	r6, r1
1000244e:	0080      	lsls	r0, r0, #2
10002450:	5839      	ldr	r1, [r7, r0]
10002452:	4331      	orrs	r1, r6
10002454:	5039      	str	r1, [r7, r0]
10002456:	2b17      	cmp	r3, #23
10002458:	d000      	beq.n	1000245c <spdif_start+0x890>
1000245a:	e723      	b.n	100022a4 <spdif_start+0x6d8>
1000245c:	4646      	mov	r6, r8
1000245e:	1d51      	adds	r1, r2, #5
10002460:	0948      	lsrs	r0, r1, #5
10002462:	4031      	ands	r1, r6
10002464:	0026      	movs	r6, r4
10002466:	408e      	lsls	r6, r1
10002468:	0080      	lsls	r0, r0, #2
1000246a:	5839      	ldr	r1, [r7, r0]
1000246c:	4331      	orrs	r1, r6
1000246e:	5039      	str	r1, [r7, r0]
10002470:	e725      	b.n	100022be <spdif_start+0x6f2>
10002472:	4641      	mov	r1, r8
10002474:	0020      	movs	r0, r4
10002476:	4019      	ands	r1, r3
10002478:	4088      	lsls	r0, r1
1000247a:	095a      	lsrs	r2, r3, #5
1000247c:	0092      	lsls	r2, r2, #2
1000247e:	58b9      	ldr	r1, [r7, r2]
10002480:	4301      	orrs	r1, r0
10002482:	4640      	mov	r0, r8
10002484:	50b9      	str	r1, [r7, r2]
10002486:	1c59      	adds	r1, r3, #1
10002488:	094a      	lsrs	r2, r1, #5
1000248a:	4001      	ands	r1, r0
1000248c:	0020      	movs	r0, r4
1000248e:	4088      	lsls	r0, r1
10002490:	0092      	lsls	r2, r2, #2
10002492:	58b9      	ldr	r1, [r7, r2]
10002494:	4301      	orrs	r1, r0
10002496:	4640      	mov	r0, r8
10002498:	50b9      	str	r1, [r7, r2]
1000249a:	1c99      	adds	r1, r3, #2
1000249c:	094a      	lsrs	r2, r1, #5
1000249e:	4001      	ands	r1, r0
100024a0:	0020      	movs	r0, r4
100024a2:	4088      	lsls	r0, r1
100024a4:	0092      	lsls	r2, r2, #2
100024a6:	58b9      	ldr	r1, [r7, r2]
100024a8:	4301      	orrs	r1, r0
100024aa:	50b9      	str	r1, [r7, r2]
100024ac:	1d59      	adds	r1, r3, #5
100024ae:	e77b      	b.n	100023a8 <spdif_start+0x7dc>
100024b0:	0959      	lsrs	r1, r3, #5
100024b2:	0089      	lsls	r1, r1, #2
100024b4:	187e      	adds	r6, r7, r1
100024b6:	9603      	str	r6, [sp, #12]
100024b8:	4646      	mov	r6, r8
100024ba:	401e      	ands	r6, r3
100024bc:	0031      	movs	r1, r6
100024be:	0026      	movs	r6, r4
100024c0:	408e      	lsls	r6, r1
100024c2:	46b2      	mov	sl, r6
100024c4:	9e03      	ldr	r6, [sp, #12]
100024c6:	6028      	str	r0, [r5, #0]
100024c8:	6831      	ldr	r1, [r6, #0]
100024ca:	4656      	mov	r6, sl
100024cc:	430e      	orrs	r6, r1
100024ce:	0031      	movs	r1, r6
100024d0:	9e03      	ldr	r6, [sp, #12]
100024d2:	6031      	str	r1, [r6, #0]
100024d4:	1c59      	adds	r1, r3, #1
100024d6:	094e      	lsrs	r6, r1, #5
100024d8:	00b6      	lsls	r6, r6, #2
100024da:	46b4      	mov	ip, r6
100024dc:	4646      	mov	r6, r8
100024de:	4031      	ands	r1, r6
100024e0:	0026      	movs	r6, r4
100024e2:	44bc      	add	ip, r7
100024e4:	408e      	lsls	r6, r1
100024e6:	4661      	mov	r1, ip
100024e8:	6809      	ldr	r1, [r1, #0]
100024ea:	4331      	orrs	r1, r6
100024ec:	4666      	mov	r6, ip
100024ee:	6031      	str	r1, [r6, #0]
100024f0:	2a00      	cmp	r2, #0
100024f2:	d000      	beq.n	100024f6 <spdif_start+0x92a>
100024f4:	e774      	b.n	100023e0 <spdif_start+0x814>
100024f6:	9a02      	ldr	r2, [sp, #8]
100024f8:	6014      	str	r4, [r2, #0]
100024fa:	4640      	mov	r0, r8
100024fc:	1d19      	adds	r1, r3, #4
100024fe:	094a      	lsrs	r2, r1, #5
10002500:	4001      	ands	r1, r0
10002502:	0020      	movs	r0, r4
10002504:	4088      	lsls	r0, r1
10002506:	0092      	lsls	r2, r2, #2
10002508:	58b9      	ldr	r1, [r7, r2]
1000250a:	4301      	orrs	r1, r0
1000250c:	4640      	mov	r0, r8
1000250e:	50b9      	str	r1, [r7, r2]
10002510:	1d59      	adds	r1, r3, #5
10002512:	094a      	lsrs	r2, r1, #5
10002514:	4001      	ands	r1, r0
10002516:	0020      	movs	r0, r4
10002518:	4088      	lsls	r0, r1
1000251a:	0092      	lsls	r2, r2, #2
1000251c:	58b9      	ldr	r1, [r7, r2]
1000251e:	4301      	orrs	r1, r0
10002520:	50b9      	str	r1, [r7, r2]
10002522:	e776      	b.n	10002412 <spdif_start+0x846>
10002524:	0959      	lsrs	r1, r3, #5
10002526:	0089      	lsls	r1, r1, #2
10002528:	187e      	adds	r6, r7, r1
1000252a:	9603      	str	r6, [sp, #12]
1000252c:	4646      	mov	r6, r8
1000252e:	401e      	ands	r6, r3
10002530:	0031      	movs	r1, r6
10002532:	0026      	movs	r6, r4
10002534:	408e      	lsls	r6, r1
10002536:	46b2      	mov	sl, r6
10002538:	9e03      	ldr	r6, [sp, #12]
1000253a:	6028      	str	r0, [r5, #0]
1000253c:	6831      	ldr	r1, [r6, #0]
1000253e:	4656      	mov	r6, sl
10002540:	430e      	orrs	r6, r1
10002542:	0031      	movs	r1, r6
10002544:	9e03      	ldr	r6, [sp, #12]
10002546:	6031      	str	r1, [r6, #0]
10002548:	1c59      	adds	r1, r3, #1
1000254a:	094e      	lsrs	r6, r1, #5
1000254c:	00b6      	lsls	r6, r6, #2
1000254e:	46b4      	mov	ip, r6
10002550:	4646      	mov	r6, r8
10002552:	4031      	ands	r1, r6
10002554:	0026      	movs	r6, r4
10002556:	44bc      	add	ip, r7
10002558:	408e      	lsls	r6, r1
1000255a:	4661      	mov	r1, ip
1000255c:	6809      	ldr	r1, [r1, #0]
1000255e:	4331      	orrs	r1, r6
10002560:	4666      	mov	r6, ip
10002562:	6031      	str	r1, [r6, #0]
10002564:	2a00      	cmp	r2, #0
10002566:	d000      	beq.n	1000256a <spdif_start+0x99e>
10002568:	e6d9      	b.n	1000231e <spdif_start+0x752>
1000256a:	9a02      	ldr	r2, [sp, #8]
1000256c:	6014      	str	r4, [r2, #0]
1000256e:	4640      	mov	r0, r8
10002570:	1d19      	adds	r1, r3, #4
10002572:	094a      	lsrs	r2, r1, #5
10002574:	4001      	ands	r1, r0
10002576:	0020      	movs	r0, r4
10002578:	4088      	lsls	r0, r1
1000257a:	0092      	lsls	r2, r2, #2
1000257c:	58b9      	ldr	r1, [r7, r2]
1000257e:	4301      	orrs	r1, r0
10002580:	4640      	mov	r0, r8
10002582:	50b9      	str	r1, [r7, r2]
10002584:	1d59      	adds	r1, r3, #5
10002586:	094a      	lsrs	r2, r1, #5
10002588:	4001      	ands	r1, r0
1000258a:	0020      	movs	r0, r4
1000258c:	4088      	lsls	r0, r1
1000258e:	0092      	lsls	r2, r2, #2
10002590:	58b9      	ldr	r1, [r7, r2]
10002592:	4301      	orrs	r1, r0
10002594:	50b9      	str	r1, [r7, r2]
10002596:	e6dc      	b.n	10002352 <spdif_start+0x786>
10002598:	20005830 	.word	0x20005830
1000259c:	4e47      	ldr	r6, [pc, #284]	@ (100026bc <spdif_start+0xaf0>)
1000259e:	4848      	ldr	r0, [pc, #288]	@ (100026c0 <spdif_start+0xaf4>)
100025a0:	2101      	movs	r1, #1
100025a2:	6030      	str	r0, [r6, #0]
100025a4:	f007 fda4 	bl	1000a0f0 <pio_claim_unused_sm>
100025a8:	4d46      	ldr	r5, [pc, #280]	@ (100026c4 <spdif_start+0xaf8>)
100025aa:	4947      	ldr	r1, [pc, #284]	@ (100026c8 <spdif_start+0xafc>)
100025ac:	6028      	str	r0, [r5, #0]
100025ae:	6830      	ldr	r0, [r6, #0]
100025b0:	f007 fdba 	bl	1000a128 <pio_add_program>
100025b4:	4b45      	ldr	r3, [pc, #276]	@ (100026cc <spdif_start+0xb00>)
100025b6:	6831      	ldr	r1, [r6, #0]
100025b8:	9c06      	ldr	r4, [sp, #24]
100025ba:	18c9      	adds	r1, r1, r3
100025bc:	0d09      	lsrs	r1, r1, #20
100025be:	3106      	adds	r1, #6
100025c0:	0007      	movs	r7, r0
100025c2:	b2c9      	uxtb	r1, r1
100025c4:	0020      	movs	r0, r4
100025c6:	f000 fd39 	bl	1000303c <gpio_set_function>
100025ca:	2301      	movs	r3, #1
100025cc:	0022      	movs	r2, r4
100025ce:	6829      	ldr	r1, [r5, #0]
100025d0:	6830      	ldr	r0, [r6, #0]
100025d2:	9300      	str	r3, [sp, #0]
100025d4:	f007 fe6c 	bl	1000a2b0 <pio_sm_set_consecutive_pindirs>
100025d8:	464b      	mov	r3, r9
100025da:	930f      	str	r3, [sp, #60]	@ 0x3c
100025dc:	2380      	movs	r3, #128	@ 0x80
100025de:	025b      	lsls	r3, r3, #9
100025e0:	930c      	str	r3, [sp, #48]	@ 0x30
100025e2:	23f8      	movs	r3, #248	@ 0xf8
100025e4:	025b      	lsls	r3, r3, #9
100025e6:	930d      	str	r3, [sp, #52]	@ 0x34
100025e8:	23c0      	movs	r3, #192	@ 0xc0
100025ea:	2210      	movs	r2, #16
100025ec:	031b      	lsls	r3, r3, #12
100025ee:	a90c      	add	r1, sp, #48	@ 0x30
100025f0:	a808      	add	r0, sp, #32
100025f2:	930e      	str	r3, [sp, #56]	@ 0x38
100025f4:	f003 f800 	bl	100055f8 <__wrap___aeabi_memcpy>
100025f8:	033a      	lsls	r2, r7, #12
100025fa:	01fb      	lsls	r3, r7, #7
100025fc:	4313      	orrs	r3, r2
100025fe:	a908      	add	r1, sp, #32
10002600:	2210      	movs	r2, #16
10002602:	a80c      	add	r0, sp, #48	@ 0x30
10002604:	9309      	str	r3, [sp, #36]	@ 0x24
10002606:	f002 fff7 	bl	100055f8 <__wrap___aeabi_memcpy>
1000260a:	221f      	movs	r2, #31
1000260c:	2380      	movs	r3, #128	@ 0x80
1000260e:	4022      	ands	r2, r4
10002610:	035b      	lsls	r3, r3, #13
10002612:	4313      	orrs	r3, r2
10002614:	930f      	str	r3, [sp, #60]	@ 0x3c
10002616:	4b2e      	ldr	r3, [pc, #184]	@ (100026d0 <spdif_start+0xb04>)
10002618:	2005      	movs	r0, #5
1000261a:	930e      	str	r3, [sp, #56]	@ 0x38
1000261c:	f001 fe8e 	bl	1000433c <clock_get_hz>
10002620:	f002 ff64 	bl	100054ec <__wrap___aeabi_ui2f>
10002624:	492b      	ldr	r1, [pc, #172]	@ (100026d4 <spdif_start+0xb08>)
10002626:	f002 ff46 	bl	100054b6 <__wrap___aeabi_fdiv>
1000262a:	21ec      	movs	r1, #236	@ 0xec
1000262c:	0589      	lsls	r1, r1, #22
1000262e:	f002 ff3f 	bl	100054b0 <__wrap___aeabi_fadd>
10002632:	4680      	mov	r8, r0
10002634:	f002 ff82 	bl	1000553c <__wrap___aeabi_f2uiz>
10002638:	b284      	uxth	r4, r0
1000263a:	2300      	movs	r3, #0
1000263c:	2c00      	cmp	r4, #0
1000263e:	d00e      	beq.n	1000265e <spdif_start+0xa92>
10002640:	0020      	movs	r0, r4
10002642:	f002 ff53 	bl	100054ec <__wrap___aeabi_ui2f>
10002646:	1c01      	adds	r1, r0, #0
10002648:	4640      	mov	r0, r8
1000264a:	f002 ff2e 	bl	100054aa <__wrap___aeabi_fsub>
1000264e:	2187      	movs	r1, #135	@ 0x87
10002650:	05c9      	lsls	r1, r1, #23
10002652:	f002 ff44 	bl	100054de <__wrap___aeabi_fmul>
10002656:	f002 ff71 	bl	1000553c <__wrap___aeabi_f2uiz>
1000265a:	b2c3      	uxtb	r3, r0
1000265c:	021b      	lsls	r3, r3, #8
1000265e:	0424      	lsls	r4, r4, #16
10002660:	003a      	movs	r2, r7
10002662:	6829      	ldr	r1, [r5, #0]
10002664:	431c      	orrs	r4, r3
10002666:	6830      	ldr	r0, [r6, #0]
10002668:	ab0c      	add	r3, sp, #48	@ 0x30
1000266a:	940c      	str	r4, [sp, #48]	@ 0x30
1000266c:	f007 fe78 	bl	1000a360 <pio_sm_init>
10002670:	2301      	movs	r3, #1
10002672:	6828      	ldr	r0, [r5, #0]
10002674:	6832      	ldr	r2, [r6, #0]
10002676:	4083      	lsls	r3, r0
10002678:	6811      	ldr	r1, [r2, #0]
1000267a:	2001      	movs	r0, #1
1000267c:	430b      	orrs	r3, r1
1000267e:	6013      	str	r3, [r2, #0]
10002680:	f007 fd26 	bl	1000a0d0 <dma_claim_unused_channel>
10002684:	4b14      	ldr	r3, [pc, #80]	@ (100026d8 <spdif_start+0xb0c>)
10002686:	4911      	ldr	r1, [pc, #68]	@ (100026cc <spdif_start+0xb00>)
10002688:	6018      	str	r0, [r3, #0]
1000268a:	6833      	ldr	r3, [r6, #0]
1000268c:	02c0      	lsls	r0, r0, #11
1000268e:	185b      	adds	r3, r3, r1
10002690:	0d1b      	lsrs	r3, r3, #20
10002692:	6829      	ldr	r1, [r5, #0]
10002694:	00db      	lsls	r3, r3, #3
10002696:	185b      	adds	r3, r3, r1
10002698:	4910      	ldr	r1, [pc, #64]	@ (100026dc <spdif_start+0xb10>)
1000269a:	03db      	lsls	r3, r3, #15
1000269c:	4008      	ands	r0, r1
1000269e:	211b      	movs	r1, #27
100026a0:	4a0f      	ldr	r2, [pc, #60]	@ (100026e0 <spdif_start+0xb14>)
100026a2:	4303      	orrs	r3, r0
100026a4:	430b      	orrs	r3, r1
100026a6:	480f      	ldr	r0, [pc, #60]	@ (100026e4 <spdif_start+0xb18>)
100026a8:	6013      	str	r3, [r2, #0]
100026aa:	f007 fce3 	bl	1000a074 <multicore_launch_core1>
100026ae:	b011      	add	sp, #68	@ 0x44
100026b0:	bcf0      	pop	{r4, r5, r6, r7}
100026b2:	46bb      	mov	fp, r7
100026b4:	46b2      	mov	sl, r6
100026b6:	46a9      	mov	r9, r5
100026b8:	46a0      	mov	r8, r4
100026ba:	bdf0      	pop	{r4, r5, r6, r7, pc}
100026bc:	2000643c 	.word	0x2000643c
100026c0:	50200000 	.word	0x50200000
100026c4:	20006440 	.word	0x20006440
100026c8:	1000b390 	.word	0x1000b390
100026cc:	afe00000 	.word	0xafe00000
100026d0:	400e0000 	.word	0x400e0000
100026d4:	4abb8000 	.word	0x4abb8000
100026d8:	20006434 	.word	0x20006434
100026dc:	ff007fff 	.word	0xff007fff
100026e0:	20006438 	.word	0x20006438
100026e4:	10001869 	.word	0x10001869

100026e8 <spdif_set_mode>:
100026e8:	4b01      	ldr	r3, [pc, #4]	@ (100026f0 <spdif_set_mode+0x8>)
100026ea:	7018      	strb	r0, [r3, #0]
100026ec:	4770      	bx	lr
100026ee:	46c0      	nop			@ (mov r8, r8)
100026f0:	20000fa8 	.word	0x20000fa8

100026f4 <spdif_get_mode>:
100026f4:	4b01      	ldr	r3, [pc, #4]	@ (100026fc <spdif_get_mode+0x8>)
100026f6:	7818      	ldrb	r0, [r3, #0]
100026f8:	b2c0      	uxtb	r0, r0
100026fa:	4770      	bx	lr
100026fc:	20000fa8 	.word	0x20000fa8

10002700 <spdif_mode_name>:
10002700:	2802      	cmp	r0, #2
10002702:	d803      	bhi.n	1000270c <spdif_mode_name+0xc>
10002704:	4b02      	ldr	r3, [pc, #8]	@ (10002710 <spdif_mode_name+0x10>)
10002706:	0080      	lsls	r0, r0, #2
10002708:	58c0      	ldr	r0, [r0, r3]
1000270a:	4770      	bx	lr
1000270c:	4801      	ldr	r0, [pc, #4]	@ (10002714 <spdif_mode_name+0x14>)
1000270e:	e7fc      	b.n	1000270a <spdif_mode_name+0xa>
10002710:	1000b320 	.word	0x1000b320
10002714:	1000a5c4 	.word	0x1000a5c4

10002718 <spdif_write_pcm>:
10002718:	b5f0      	push	{r4, r5, r6, r7, lr}
1000271a:	1e0f      	subs	r7, r1, #0
1000271c:	d02a      	beq.n	10002774 <spdif_write_pcm+0x5c>
1000271e:	4b17      	ldr	r3, [pc, #92]	@ (1000277c <spdif_write_pcm+0x64>)
10002720:	0001      	movs	r1, r0
10002722:	469c      	mov	ip, r3
10002724:	2000      	movs	r0, #0
10002726:	4c16      	ldr	r4, [pc, #88]	@ (10002780 <spdif_write_pcm+0x68>)
10002728:	4e16      	ldr	r6, [pc, #88]	@ (10002784 <spdif_write_pcm+0x6c>)
1000272a:	e00a      	b.n	10002742 <spdif_write_pcm+0x2a>
1000272c:	880d      	ldrh	r5, [r1, #0]
1000272e:	009b      	lsls	r3, r3, #2
10002730:	539d      	strh	r5, [r3, r6]
10002732:	884d      	ldrh	r5, [r1, #2]
10002734:	18f3      	adds	r3, r6, r3
10002736:	3001      	adds	r0, #1
10002738:	805d      	strh	r5, [r3, #2]
1000273a:	6022      	str	r2, [r4, #0]
1000273c:	3104      	adds	r1, #4
1000273e:	4287      	cmp	r7, r0
10002740:	d008      	beq.n	10002754 <spdif_write_pcm+0x3c>
10002742:	4665      	mov	r5, ip
10002744:	6823      	ldr	r3, [r4, #0]
10002746:	682d      	ldr	r5, [r5, #0]
10002748:	1c5a      	adds	r2, r3, #1
1000274a:	04d2      	lsls	r2, r2, #19
1000274c:	0cd2      	lsrs	r2, r2, #19
1000274e:	4295      	cmp	r5, r2
10002750:	d1ec      	bne.n	1000272c <spdif_write_pcm+0x14>
10002752:	0007      	movs	r7, r0
10002754:	4663      	mov	r3, ip
10002756:	681b      	ldr	r3, [r3, #0]
10002758:	6822      	ldr	r2, [r4, #0]
1000275a:	4293      	cmp	r3, r2
1000275c:	d902      	bls.n	10002764 <spdif_write_pcm+0x4c>
1000275e:	2180      	movs	r1, #128	@ 0x80
10002760:	0189      	lsls	r1, r1, #6
10002762:	1852      	adds	r2, r2, r1
10002764:	1ad3      	subs	r3, r2, r3
10002766:	4a08      	ldr	r2, [pc, #32]	@ (10002788 <spdif_write_pcm+0x70>)
10002768:	6811      	ldr	r1, [r2, #0]
1000276a:	4299      	cmp	r1, r3
1000276c:	d200      	bcs.n	10002770 <spdif_write_pcm+0x58>
1000276e:	6013      	str	r3, [r2, #0]
10002770:	0038      	movs	r0, r7
10002772:	bdf0      	pop	{r4, r5, r6, r7, pc}
10002774:	4b01      	ldr	r3, [pc, #4]	@ (1000277c <spdif_write_pcm+0x64>)
10002776:	4c02      	ldr	r4, [pc, #8]	@ (10002780 <spdif_write_pcm+0x68>)
10002778:	469c      	mov	ip, r3
1000277a:	e7eb      	b.n	10002754 <spdif_write_pcm+0x3c>
1000277c:	2000f058 	.word	0x2000f058
10002780:	2000f05c 	.word	0x2000f05c
10002784:	20007058 	.word	0x20007058
10002788:	20007054 	.word	0x20007054

1000278c <spdif_buffered_frames>:
1000278c:	4b05      	ldr	r3, [pc, #20]	@ (100027a4 <spdif_buffered_frames+0x18>)
1000278e:	6818      	ldr	r0, [r3, #0]
10002790:	4b05      	ldr	r3, [pc, #20]	@ (100027a8 <spdif_buffered_frames+0x1c>)
10002792:	681b      	ldr	r3, [r3, #0]
10002794:	4298      	cmp	r0, r3
10002796:	d902      	bls.n	1000279e <spdif_buffered_frames+0x12>
10002798:	2280      	movs	r2, #128	@ 0x80
1000279a:	0192      	lsls	r2, r2, #6
1000279c:	189b      	adds	r3, r3, r2
1000279e:	1a18      	subs	r0, r3, r0
100027a0:	4770      	bx	lr
100027a2:	46c0      	nop			@ (mov r8, r8)
100027a4:	2000f058 	.word	0x2000f058
100027a8:	2000f05c 	.word	0x2000f05c

100027ac <spdif_clear_usb_buffer>:
100027ac:	2300      	movs	r3, #0
100027ae:	4a04      	ldr	r2, [pc, #16]	@ (100027c0 <spdif_clear_usb_buffer+0x14>)
100027b0:	6013      	str	r3, [r2, #0]
100027b2:	4a04      	ldr	r2, [pc, #16]	@ (100027c4 <spdif_clear_usb_buffer+0x18>)
100027b4:	6013      	str	r3, [r2, #0]
100027b6:	4a04      	ldr	r2, [pc, #16]	@ (100027c8 <spdif_clear_usb_buffer+0x1c>)
100027b8:	6013      	str	r3, [r2, #0]
100027ba:	4a04      	ldr	r2, [pc, #16]	@ (100027cc <spdif_clear_usb_buffer+0x20>)
100027bc:	6013      	str	r3, [r2, #0]
100027be:	4770      	bx	lr
100027c0:	2000f058 	.word	0x2000f058
100027c4:	2000f05c 	.word	0x2000f05c
100027c8:	2000f060 	.word	0x2000f060
100027cc:	20007054 	.word	0x20007054

100027d0 <spdif_take_usb_stats>:
100027d0:	b510      	push	{r4, lr}
100027d2:	2800      	cmp	r0, #0
100027d4:	d013      	beq.n	100027fe <spdif_take_usb_stats+0x2e>
100027d6:	4b0a      	ldr	r3, [pc, #40]	@ (10002800 <spdif_take_usb_stats+0x30>)
100027d8:	4a0a      	ldr	r2, [pc, #40]	@ (10002804 <spdif_take_usb_stats+0x34>)
100027da:	681b      	ldr	r3, [r3, #0]
100027dc:	6812      	ldr	r2, [r2, #0]
100027de:	4293      	cmp	r3, r2
100027e0:	d902      	bls.n	100027e8 <spdif_take_usb_stats+0x18>
100027e2:	2180      	movs	r1, #128	@ 0x80
100027e4:	0189      	lsls	r1, r1, #6
100027e6:	1852      	adds	r2, r2, r1
100027e8:	4907      	ldr	r1, [pc, #28]	@ (10002808 <spdif_take_usb_stats+0x38>)
100027ea:	1ad3      	subs	r3, r2, r3
100027ec:	680a      	ldr	r2, [r1, #0]
100027ee:	6003      	str	r3, [r0, #0]
100027f0:	6042      	str	r2, [r0, #4]
100027f2:	4a06      	ldr	r2, [pc, #24]	@ (1000280c <spdif_take_usb_stats+0x3c>)
100027f4:	6814      	ldr	r4, [r2, #0]
100027f6:	600b      	str	r3, [r1, #0]
100027f8:	2300      	movs	r3, #0
100027fa:	6084      	str	r4, [r0, #8]
100027fc:	6013      	str	r3, [r2, #0]
100027fe:	bd10      	pop	{r4, pc}
10002800:	2000f058 	.word	0x2000f058
10002804:	2000f05c 	.word	0x2000f05c
10002808:	20007054 	.word	0x20007054
1000280c:	2000f060 	.word	0x2000f060

10002810 <usb_audio_set_cec_audio_status>:
10002810:	b570      	push	{r4, r5, r6, lr}
10002812:	1c03      	adds	r3, r0, #0
10002814:	000c      	movs	r4, r1
10002816:	2864      	cmp	r0, #100	@ 0x64
10002818:	d900      	bls.n	1000281c <usb_audio_set_cec_audio_status+0xc>
1000281a:	2364      	movs	r3, #100	@ 0x64
1000281c:	b2db      	uxtb	r3, r3
1000281e:	0118      	lsls	r0, r3, #4
10002820:	1ac0      	subs	r0, r0, r3
10002822:	2164      	movs	r1, #100	@ 0x64
10002824:	0280      	lsls	r0, r0, #10
10002826:	f001 ffd7 	bl	100047d8 <__wrap___aeabi_idiv>
1000282a:	4b07      	ldr	r3, [pc, #28]	@ (10002848 <usb_audio_set_cec_audio_status+0x38>)
1000282c:	0222      	lsls	r2, r4, #8
1000282e:	18c0      	adds	r0, r0, r3
10002830:	4b06      	ldr	r3, [pc, #24]	@ (1000284c <usb_audio_set_cec_audio_status+0x3c>)
10002832:	4322      	orrs	r2, r4
10002834:	801a      	strh	r2, [r3, #0]
10002836:	0402      	lsls	r2, r0, #16
10002838:	0015      	movs	r5, r2
1000283a:	4905      	ldr	r1, [pc, #20]	@ (10002850 <usb_audio_set_cec_audio_status+0x40>)
1000283c:	0c12      	lsrs	r2, r2, #16
1000283e:	432a      	orrs	r2, r5
10002840:	600a      	str	r2, [r1, #0]
10002842:	709c      	strb	r4, [r3, #2]
10002844:	8088      	strh	r0, [r1, #4]
10002846:	bd70      	pop	{r4, r5, r6, pc}
10002848:	ffffc400 	.word	0xffffc400
1000284c:	2000562c 	.word	0x2000562c
10002850:	2000f064 	.word	0x2000f064

10002854 <tud_audio_get_req_entity_cb>:
10002854:	b5f0      	push	{r4, r5, r6, r7, lr}
10002856:	794b      	ldrb	r3, [r1, #5]
10002858:	b085      	sub	sp, #20
1000285a:	2b04      	cmp	r3, #4
1000285c:	d005      	beq.n	1000286a <tud_audio_get_req_entity_cb+0x16>
1000285e:	2200      	movs	r2, #0
10002860:	2b02      	cmp	r3, #2
10002862:	d011      	beq.n	10002888 <tud_audio_get_req_entity_cb+0x34>
10002864:	0010      	movs	r0, r2
10002866:	b005      	add	sp, #20
10002868:	bdf0      	pop	{r4, r5, r6, r7, pc}
1000286a:	78cb      	ldrb	r3, [r1, #3]
1000286c:	2b01      	cmp	r3, #1
1000286e:	d01f      	beq.n	100028b0 <tud_audio_get_req_entity_cb+0x5c>
10002870:	2200      	movs	r2, #0
10002872:	2b02      	cmp	r3, #2
10002874:	d1f6      	bne.n	10002864 <tud_audio_get_req_entity_cb+0x10>
10002876:	784b      	ldrb	r3, [r1, #1]
10002878:	2b01      	cmp	r3, #1
1000287a:	d1f3      	bne.n	10002864 <tud_audio_get_req_entity_cb+0x10>
1000287c:	466a      	mov	r2, sp
1000287e:	7013      	strb	r3, [r2, #0]
10002880:	f006 fd10 	bl	100092a4 <tud_audio_buffer_and_schedule_control_xfer>
10002884:	0002      	movs	r2, r0
10002886:	e7ed      	b.n	10002864 <tud_audio_get_req_entity_cb+0x10>
10002888:	78cb      	ldrb	r3, [r1, #3]
1000288a:	2b01      	cmp	r3, #1
1000288c:	d022      	beq.n	100028d4 <tud_audio_get_req_entity_cb+0x80>
1000288e:	2b02      	cmp	r3, #2
10002890:	d1e8      	bne.n	10002864 <tud_audio_get_req_entity_cb+0x10>
10002892:	784b      	ldrb	r3, [r1, #1]
10002894:	2b01      	cmp	r3, #1
10002896:	d032      	beq.n	100028fe <tud_audio_get_req_entity_cb+0xaa>
10002898:	2b02      	cmp	r3, #2
1000289a:	d1e3      	bne.n	10002864 <tud_audio_get_req_entity_cb+0x10>
1000289c:	466c      	mov	r4, sp
1000289e:	4b1d      	ldr	r3, [pc, #116]	@ (10002914 <tud_audio_get_req_entity_cb+0xc0>)
100028a0:	466a      	mov	r2, sp
100028a2:	cb60      	ldmia	r3!, {r5, r6}
100028a4:	c460      	stmia	r4!, {r5, r6}
100028a6:	2308      	movs	r3, #8
100028a8:	f006 fcfc 	bl	100092a4 <tud_audio_buffer_and_schedule_control_xfer>
100028ac:	0002      	movs	r2, r0
100028ae:	e7d9      	b.n	10002864 <tud_audio_get_req_entity_cb+0x10>
100028b0:	784b      	ldrb	r3, [r1, #1]
100028b2:	2b01      	cmp	r3, #1
100028b4:	d01b      	beq.n	100028ee <tud_audio_get_req_entity_cb+0x9a>
100028b6:	2200      	movs	r2, #0
100028b8:	2b02      	cmp	r3, #2
100028ba:	d1d3      	bne.n	10002864 <tud_audio_get_req_entity_cb+0x10>
100028bc:	466c      	mov	r4, sp
100028be:	4b16      	ldr	r3, [pc, #88]	@ (10002918 <tud_audio_get_req_entity_cb+0xc4>)
100028c0:	466a      	mov	r2, sp
100028c2:	cbe0      	ldmia	r3!, {r5, r6, r7}
100028c4:	c4e0      	stmia	r4!, {r5, r6, r7}
100028c6:	881b      	ldrh	r3, [r3, #0]
100028c8:	8023      	strh	r3, [r4, #0]
100028ca:	230e      	movs	r3, #14
100028cc:	f006 fcea 	bl	100092a4 <tud_audio_buffer_and_schedule_control_xfer>
100028d0:	0002      	movs	r2, r0
100028d2:	e7c7      	b.n	10002864 <tud_audio_get_req_entity_cb+0x10>
100028d4:	784b      	ldrb	r3, [r1, #1]
100028d6:	2b01      	cmp	r3, #1
100028d8:	d1c4      	bne.n	10002864 <tud_audio_get_req_entity_cb+0x10>
100028da:	466a      	mov	r2, sp
100028dc:	788c      	ldrb	r4, [r1, #2]
100028de:	4b0f      	ldr	r3, [pc, #60]	@ (1000291c <tud_audio_get_req_entity_cb+0xc8>)
100028e0:	5d1b      	ldrb	r3, [r3, r4]
100028e2:	7013      	strb	r3, [r2, #0]
100028e4:	2301      	movs	r3, #1
100028e6:	f006 fcdd 	bl	100092a4 <tud_audio_buffer_and_schedule_control_xfer>
100028ea:	0002      	movs	r2, r0
100028ec:	e7ba      	b.n	10002864 <tud_audio_get_req_entity_cb+0x10>
100028ee:	4b0c      	ldr	r3, [pc, #48]	@ (10002920 <tud_audio_get_req_entity_cb+0xcc>)
100028f0:	466a      	mov	r2, sp
100028f2:	9300      	str	r3, [sp, #0]
100028f4:	2304      	movs	r3, #4
100028f6:	f006 fcd5 	bl	100092a4 <tud_audio_buffer_and_schedule_control_xfer>
100028fa:	0002      	movs	r2, r0
100028fc:	e7b2      	b.n	10002864 <tud_audio_get_req_entity_cb+0x10>
100028fe:	788a      	ldrb	r2, [r1, #2]
10002900:	4b08      	ldr	r3, [pc, #32]	@ (10002924 <tud_audio_get_req_entity_cb+0xd0>)
10002902:	0052      	lsls	r2, r2, #1
10002904:	5ad3      	ldrh	r3, [r2, r3]
10002906:	466a      	mov	r2, sp
10002908:	8013      	strh	r3, [r2, #0]
1000290a:	2302      	movs	r3, #2
1000290c:	f006 fcca 	bl	100092a4 <tud_audio_buffer_and_schedule_control_xfer>
10002910:	0002      	movs	r2, r0
10002912:	e7a7      	b.n	10002864 <tud_audio_get_req_entity_cb+0x10>
10002914:	1000b3ac 	.word	0x1000b3ac
10002918:	1000b39c 	.word	0x1000b39c
1000291c:	2000562c 	.word	0x2000562c
10002920:	0000bb80 	.word	0x0000bb80
10002924:	2000f064 	.word	0x2000f064

10002928 <tud_audio_set_req_entity_cb>:
10002928:	784b      	ldrb	r3, [r1, #1]
1000292a:	2000      	movs	r0, #0
1000292c:	2b01      	cmp	r3, #1
1000292e:	d109      	bne.n	10002944 <tud_audio_set_req_entity_cb+0x1c>
10002930:	794b      	ldrb	r3, [r1, #5]
10002932:	2b04      	cmp	r3, #4
10002934:	d007      	beq.n	10002946 <tud_audio_set_req_entity_cb+0x1e>
10002936:	2b02      	cmp	r3, #2
10002938:	d104      	bne.n	10002944 <tud_audio_set_req_entity_cb+0x1c>
1000293a:	78cb      	ldrb	r3, [r1, #3]
1000293c:	2b01      	cmp	r3, #1
1000293e:	d008      	beq.n	10002952 <tud_audio_set_req_entity_cb+0x2a>
10002940:	2b02      	cmp	r3, #2
10002942:	d00c      	beq.n	1000295e <tud_audio_set_req_entity_cb+0x36>
10002944:	4770      	bx	lr
10002946:	78c8      	ldrb	r0, [r1, #3]
10002948:	3801      	subs	r0, #1
1000294a:	4243      	negs	r3, r0
1000294c:	4158      	adcs	r0, r3
1000294e:	b2c0      	uxtb	r0, r0
10002950:	e7f8      	b.n	10002944 <tud_audio_set_req_entity_cb+0x1c>
10002952:	4b09      	ldr	r3, [pc, #36]	@ (10002978 <tud_audio_set_req_entity_cb+0x50>)
10002954:	7889      	ldrb	r1, [r1, #2]
10002956:	7812      	ldrb	r2, [r2, #0]
10002958:	2001      	movs	r0, #1
1000295a:	545a      	strb	r2, [r3, r1]
1000295c:	e7f2      	b.n	10002944 <tud_audio_set_req_entity_cb+0x1c>
1000295e:	7813      	ldrb	r3, [r2, #0]
10002960:	7889      	ldrb	r1, [r1, #2]
10002962:	469c      	mov	ip, r3
10002964:	7853      	ldrb	r3, [r2, #1]
10002966:	4662      	mov	r2, ip
10002968:	4804      	ldr	r0, [pc, #16]	@ (1000297c <tud_audio_set_req_entity_cb+0x54>)
1000296a:	021b      	lsls	r3, r3, #8
1000296c:	0049      	lsls	r1, r1, #1
1000296e:	4313      	orrs	r3, r2
10002970:	5243      	strh	r3, [r0, r1]
10002972:	2001      	movs	r0, #1
10002974:	e7e6      	b.n	10002944 <tud_audio_set_req_entity_cb+0x1c>
10002976:	46c0      	nop			@ (mov r8, r8)
10002978:	2000562c 	.word	0x2000562c
1000297c:	2000f064 	.word	0x2000f064

10002980 <tud_audio_set_itf_cb>:
10002980:	b570      	push	{r4, r5, r6, lr}
10002982:	790b      	ldrb	r3, [r1, #4]
10002984:	b082      	sub	sp, #8
10002986:	2b03      	cmp	r3, #3
10002988:	d002      	beq.n	10002990 <tud_audio_set_itf_cb+0x10>
1000298a:	2001      	movs	r0, #1
1000298c:	b002      	add	sp, #8
1000298e:	bd70      	pop	{r4, r5, r6, pc}
10002990:	788b      	ldrb	r3, [r1, #2]
10002992:	2500      	movs	r5, #0
10002994:	1e5a      	subs	r2, r3, #1
10002996:	4193      	sbcs	r3, r2
10002998:	2680      	movs	r6, #128	@ 0x80
1000299a:	4c28      	ldr	r4, [pc, #160]	@ (10002a3c <tud_audio_set_itf_cb+0xbc>)
1000299c:	0176      	lsls	r6, r6, #5
1000299e:	7023      	strb	r3, [r4, #0]
100029a0:	4b27      	ldr	r3, [pc, #156]	@ (10002a40 <tud_audio_set_itf_cb+0xc0>)
100029a2:	701d      	strb	r5, [r3, #0]
100029a4:	4b27      	ldr	r3, [pc, #156]	@ (10002a44 <tud_audio_set_itf_cb+0xc4>)
100029a6:	601e      	str	r6, [r3, #0]
100029a8:	f7ff ff00 	bl	100027ac <spdif_clear_usb_buffer>
100029ac:	2000      	movs	r0, #0
100029ae:	f7ff fe9b 	bl	100026e8 <spdif_set_mode>
100029b2:	4b25      	ldr	r3, [pc, #148]	@ (10002a48 <tud_audio_set_itf_cb+0xc8>)
100029b4:	601d      	str	r5, [r3, #0]
100029b6:	f001 fbc1 	bl	1000413c <time_us_64>
100029ba:	4b24      	ldr	r3, [pc, #144]	@ (10002a4c <tud_audio_set_itf_cb+0xcc>)
100029bc:	4a24      	ldr	r2, [pc, #144]	@ (10002a50 <tud_audio_set_itf_cb+0xd0>)
100029be:	469c      	mov	ip, r3
100029c0:	2300      	movs	r3, #0
100029c2:	1880      	adds	r0, r0, r2
100029c4:	4159      	adcs	r1, r3
100029c6:	4663      	mov	r3, ip
100029c8:	2200      	movs	r2, #0
100029ca:	c303      	stmia	r3!, {r0, r1}
100029cc:	2300      	movs	r3, #0
100029ce:	4921      	ldr	r1, [pc, #132]	@ (10002a54 <tud_audio_set_itf_cb+0xd4>)
100029d0:	000d      	movs	r5, r1
100029d2:	c10c      	stmia	r1!, {r2, r3}
100029d4:	7823      	ldrb	r3, [r4, #0]
100029d6:	2b00      	cmp	r3, #0
100029d8:	d10a      	bne.n	100029f0 <tud_audio_set_itf_cb+0x70>
100029da:	4c1f      	ldr	r4, [pc, #124]	@ (10002a58 <tud_audio_set_itf_cb+0xd8>)
100029dc:	f7ff fe8a 	bl	100026f4 <spdif_get_mode>
100029e0:	f7ff fe8e 	bl	10002700 <spdif_mode_name>
100029e4:	0021      	movs	r1, r4
100029e6:	0002      	movs	r2, r0
100029e8:	481c      	ldr	r0, [pc, #112]	@ (10002a5c <tud_audio_set_itf_cb+0xdc>)
100029ea:	f004 fbcb 	bl	10007184 <__wrap_printf>
100029ee:	e7cc      	b.n	1000298a <tud_audio_set_itf_cb+0xa>
100029f0:	f001 fba4 	bl	1000413c <time_us_64>
100029f4:	9000      	str	r0, [sp, #0]
100029f6:	9101      	str	r1, [sp, #4]
100029f8:	f7ff fec8 	bl	1000278c <spdif_buffered_frames>
100029fc:	4b18      	ldr	r3, [pc, #96]	@ (10002a60 <tud_audio_set_itf_cb+0xe0>)
100029fe:	1a31      	subs	r1, r6, r0
10002a00:	0109      	lsls	r1, r1, #4
10002a02:	4299      	cmp	r1, r3
10002a04:	da00      	bge.n	10002a08 <tud_audio_set_itf_cb+0x88>
10002a06:	0019      	movs	r1, r3
10002a08:	2380      	movs	r3, #128	@ 0x80
10002a0a:	021b      	lsls	r3, r3, #8
10002a0c:	4299      	cmp	r1, r3
10002a0e:	dd00      	ble.n	10002a12 <tud_audio_set_itf_cb+0x92>
10002a10:	0019      	movs	r1, r3
10002a12:	23c0      	movs	r3, #192	@ 0xc0
10002a14:	039b      	lsls	r3, r3, #14
10002a16:	18c9      	adds	r1, r1, r3
10002a18:	2000      	movs	r0, #0
10002a1a:	f006 fc0f 	bl	1000923c <tud_audio_n_fb_set>
10002a1e:	9800      	ldr	r0, [sp, #0]
10002a20:	9901      	ldr	r1, [sp, #4]
10002a22:	22fa      	movs	r2, #250	@ 0xfa
10002a24:	2300      	movs	r3, #0
10002a26:	0112      	lsls	r2, r2, #4
10002a28:	1880      	adds	r0, r0, r2
10002a2a:	4159      	adcs	r1, r3
10002a2c:	000b      	movs	r3, r1
10002a2e:	0002      	movs	r2, r0
10002a30:	c50c      	stmia	r5!, {r2, r3}
10002a32:	7823      	ldrb	r3, [r4, #0]
10002a34:	2b00      	cmp	r3, #0
10002a36:	d0d0      	beq.n	100029da <tud_audio_set_itf_cb+0x5a>
10002a38:	4c0a      	ldr	r4, [pc, #40]	@ (10002a64 <tud_audio_set_itf_cb+0xe4>)
10002a3a:	e7cf      	b.n	100029dc <tud_audio_set_itf_cb+0x5c>
10002a3c:	2000f07a 	.word	0x2000f07a
10002a40:	2000f073 	.word	0x2000f073
10002a44:	2000580c 	.word	0x2000580c
10002a48:	20004b24 	.word	0x20004b24
10002a4c:	20002d00 	.word	0x20002d00
10002a50:	001e8480 	.word	0x001e8480
10002a54:	20002d08 	.word	0x20002d08
10002a58:	1000ac8c 	.word	0x1000ac8c
10002a5c:	1000ac90 	.word	0x1000ac90
10002a60:	ffff8000 	.word	0xffff8000
10002a64:	1000ac88 	.word	0x1000ac88

10002a68 <tud_audio_set_itf_close_EP_cb>:
10002a68:	b510      	push	{r4, lr}
10002a6a:	2400      	movs	r4, #0
10002a6c:	2280      	movs	r2, #128	@ 0x80
10002a6e:	4b0e      	ldr	r3, [pc, #56]	@ (10002aa8 <tud_audio_set_itf_close_EP_cb+0x40>)
10002a70:	0152      	lsls	r2, r2, #5
10002a72:	701c      	strb	r4, [r3, #0]
10002a74:	4b0d      	ldr	r3, [pc, #52]	@ (10002aac <tud_audio_set_itf_close_EP_cb+0x44>)
10002a76:	701c      	strb	r4, [r3, #0]
10002a78:	4b0d      	ldr	r3, [pc, #52]	@ (10002ab0 <tud_audio_set_itf_close_EP_cb+0x48>)
10002a7a:	601a      	str	r2, [r3, #0]
10002a7c:	f7ff fe96 	bl	100027ac <spdif_clear_usb_buffer>
10002a80:	2000      	movs	r0, #0
10002a82:	f7ff fe31 	bl	100026e8 <spdif_set_mode>
10002a86:	229c      	movs	r2, #156	@ 0x9c
10002a88:	4b0a      	ldr	r3, [pc, #40]	@ (10002ab4 <tud_audio_set_itf_close_EP_cb+0x4c>)
10002a8a:	601c      	str	r4, [r3, #0]
10002a8c:	4b0a      	ldr	r3, [pc, #40]	@ (10002ab8 <tud_audio_set_itf_close_EP_cb+0x50>)
10002a8e:	509c      	str	r4, [r3, r2]
10002a90:	3a04      	subs	r2, #4
10002a92:	509c      	str	r4, [r3, r2]
10002a94:	f7ff fe2e 	bl	100026f4 <spdif_get_mode>
10002a98:	f7ff fe32 	bl	10002700 <spdif_mode_name>
10002a9c:	0001      	movs	r1, r0
10002a9e:	4807      	ldr	r0, [pc, #28]	@ (10002abc <tud_audio_set_itf_close_EP_cb+0x54>)
10002aa0:	f004 fb70 	bl	10007184 <__wrap_printf>
10002aa4:	2001      	movs	r0, #1
10002aa6:	bd10      	pop	{r4, pc}
10002aa8:	2000f07a 	.word	0x2000f07a
10002aac:	2000f073 	.word	0x2000f073
10002ab0:	2000580c 	.word	0x2000580c
10002ab4:	20004b24 	.word	0x20004b24
10002ab8:	50100000 	.word	0x50100000
10002abc:	1000acb4 	.word	0x1000acb4

10002ac0 <tud_audio_feedback_params_cb>:
10002ac0:	2300      	movs	r3, #0
10002ac2:	7013      	strb	r3, [r2, #0]
10002ac4:	4b01      	ldr	r3, [pc, #4]	@ (10002acc <tud_audio_feedback_params_cb+0xc>)
10002ac6:	6053      	str	r3, [r2, #4]
10002ac8:	4770      	bx	lr
10002aca:	46c0      	nop			@ (mov r8, r8)
10002acc:	0000bb80 	.word	0x0000bb80

10002ad0 <usb_audio_task>:
10002ad0:	b5f0      	push	{r4, r5, r6, r7, lr}
10002ad2:	464e      	mov	r6, r9
10002ad4:	46de      	mov	lr, fp
10002ad6:	4657      	mov	r7, sl
10002ad8:	4645      	mov	r5, r8
10002ada:	b5e0      	push	{r5, r6, r7, lr}
10002adc:	4b75      	ldr	r3, [pc, #468]	@ (10002cb4 <usb_audio_task+0x1e4>)
10002ade:	b087      	sub	sp, #28
10002ae0:	4699      	mov	r9, r3
10002ae2:	781b      	ldrb	r3, [r3, #0]
10002ae4:	2b00      	cmp	r3, #0
10002ae6:	d106      	bne.n	10002af6 <usb_audio_task+0x26>
10002ae8:	b007      	add	sp, #28
10002aea:	bcf0      	pop	{r4, r5, r6, r7}
10002aec:	46bb      	mov	fp, r7
10002aee:	46b2      	mov	sl, r6
10002af0:	46a9      	mov	r9, r5
10002af2:	46a0      	mov	r8, r4
10002af4:	bdf0      	pop	{r4, r5, r6, r7, pc}
10002af6:	f001 fb21 	bl	1000413c <time_us_64>
10002afa:	4b6f      	ldr	r3, [pc, #444]	@ (10002cb8 <usb_audio_task+0x1e8>)
10002afc:	0004      	movs	r4, r0
10002afe:	469a      	mov	sl, r3
10002b00:	685b      	ldr	r3, [r3, #4]
10002b02:	000d      	movs	r5, r1
10002b04:	428b      	cmp	r3, r1
10002b06:	d81b      	bhi.n	10002b40 <usb_audio_task+0x70>
10002b08:	d100      	bne.n	10002b0c <usb_audio_task+0x3c>
10002b0a:	e0c3      	b.n	10002c94 <usb_audio_task+0x1c4>
10002b0c:	f7ff fe3e 	bl	1000278c <spdif_buffered_frames>
10002b10:	2180      	movs	r1, #128	@ 0x80
10002b12:	4b6a      	ldr	r3, [pc, #424]	@ (10002cbc <usb_audio_task+0x1ec>)
10002b14:	0149      	lsls	r1, r1, #5
10002b16:	1a09      	subs	r1, r1, r0
10002b18:	0109      	lsls	r1, r1, #4
10002b1a:	4299      	cmp	r1, r3
10002b1c:	db70      	blt.n	10002c00 <usb_audio_task+0x130>
10002b1e:	2380      	movs	r3, #128	@ 0x80
10002b20:	021b      	lsls	r3, r3, #8
10002b22:	4299      	cmp	r1, r3
10002b24:	dc6a      	bgt.n	10002bfc <usb_audio_task+0x12c>
10002b26:	23c0      	movs	r3, #192	@ 0xc0
10002b28:	039b      	lsls	r3, r3, #14
10002b2a:	18c9      	adds	r1, r1, r3
10002b2c:	2000      	movs	r0, #0
10002b2e:	f006 fb85 	bl	1000923c <tud_audio_n_fb_set>
10002b32:	22fa      	movs	r2, #250	@ 0xfa
10002b34:	2300      	movs	r3, #0
10002b36:	0112      	lsls	r2, r2, #4
10002b38:	18a4      	adds	r4, r4, r2
10002b3a:	415d      	adcs	r5, r3
10002b3c:	4653      	mov	r3, sl
10002b3e:	c330      	stmia	r3!, {r4, r5}
10002b40:	26c0      	movs	r6, #192	@ 0xc0
10002b42:	4d5f      	ldr	r5, [pc, #380]	@ (10002cc0 <usb_audio_task+0x1f0>)
10002b44:	0076      	lsls	r6, r6, #1
10002b46:	2703      	movs	r7, #3
10002b48:	e00f      	b.n	10002b6a <usb_audio_task+0x9a>
10002b4a:	43b8      	bics	r0, r7
10002b4c:	b282      	uxth	r2, r0
10002b4e:	2a00      	cmp	r2, #0
10002b50:	d0ca      	beq.n	10002ae8 <usb_audio_task+0x18>
10002b52:	0029      	movs	r1, r5
10002b54:	2000      	movs	r0, #0
10002b56:	f005 fea9 	bl	100088ac <tud_audio_n_read>
10002b5a:	0884      	lsrs	r4, r0, #2
10002b5c:	b2a4      	uxth	r4, r4
10002b5e:	0021      	movs	r1, r4
10002b60:	0028      	movs	r0, r5
10002b62:	f7ff fdd9 	bl	10002718 <spdif_write_pcm>
10002b66:	4284      	cmp	r4, r0
10002b68:	d842      	bhi.n	10002bf0 <usb_audio_task+0x120>
10002b6a:	2000      	movs	r0, #0
10002b6c:	f005 fe8e 	bl	1000888c <tud_audio_n_available>
10002b70:	2803      	cmp	r0, #3
10002b72:	d907      	bls.n	10002b84 <usb_audio_task+0xb4>
10002b74:	2000      	movs	r0, #0
10002b76:	f005 fe89 	bl	1000888c <tud_audio_n_available>
10002b7a:	42b0      	cmp	r0, r6
10002b7c:	d9e5      	bls.n	10002b4a <usb_audio_task+0x7a>
10002b7e:	22c0      	movs	r2, #192	@ 0xc0
10002b80:	0052      	lsls	r2, r2, #1
10002b82:	e7e6      	b.n	10002b52 <usb_audio_task+0x82>
10002b84:	4b4f      	ldr	r3, [pc, #316]	@ (10002cc4 <usb_audio_task+0x1f4>)
10002b86:	001f      	movs	r7, r3
10002b88:	781b      	ldrb	r3, [r3, #0]
10002b8a:	2b00      	cmp	r3, #0
10002b8c:	d070      	beq.n	10002c70 <usb_audio_task+0x1a0>
10002b8e:	f001 fad5 	bl	1000413c <time_us_64>
10002b92:	4b4d      	ldr	r3, [pc, #308]	@ (10002cc8 <usb_audio_task+0x1f8>)
10002b94:	0004      	movs	r4, r0
10002b96:	4698      	mov	r8, r3
10002b98:	685b      	ldr	r3, [r3, #4]
10002b9a:	000d      	movs	r5, r1
10002b9c:	428b      	cmp	r3, r1
10002b9e:	d935      	bls.n	10002c0c <usb_audio_task+0x13c>
10002ba0:	464b      	mov	r3, r9
10002ba2:	781b      	ldrb	r3, [r3, #0]
10002ba4:	2b00      	cmp	r3, #0
10002ba6:	d09f      	beq.n	10002ae8 <usb_audio_task+0x18>
10002ba8:	f001 fac8 	bl	1000413c <time_us_64>
10002bac:	4653      	mov	r3, sl
10002bae:	685b      	ldr	r3, [r3, #4]
10002bb0:	0004      	movs	r4, r0
10002bb2:	000d      	movs	r5, r1
10002bb4:	428b      	cmp	r3, r1
10002bb6:	d897      	bhi.n	10002ae8 <usb_audio_task+0x18>
10002bb8:	d076      	beq.n	10002ca8 <usb_audio_task+0x1d8>
10002bba:	f7ff fde7 	bl	1000278c <spdif_buffered_frames>
10002bbe:	2180      	movs	r1, #128	@ 0x80
10002bc0:	4b3e      	ldr	r3, [pc, #248]	@ (10002cbc <usb_audio_task+0x1ec>)
10002bc2:	0149      	lsls	r1, r1, #5
10002bc4:	1a09      	subs	r1, r1, r0
10002bc6:	0109      	lsls	r1, r1, #4
10002bc8:	4299      	cmp	r1, r3
10002bca:	db6b      	blt.n	10002ca4 <usb_audio_task+0x1d4>
10002bcc:	2380      	movs	r3, #128	@ 0x80
10002bce:	021b      	lsls	r3, r3, #8
10002bd0:	4299      	cmp	r1, r3
10002bd2:	dc65      	bgt.n	10002ca0 <usb_audio_task+0x1d0>
10002bd4:	23c0      	movs	r3, #192	@ 0xc0
10002bd6:	039b      	lsls	r3, r3, #14
10002bd8:	18c9      	adds	r1, r1, r3
10002bda:	2000      	movs	r0, #0
10002bdc:	f006 fb2e 	bl	1000923c <tud_audio_n_fb_set>
10002be0:	22fa      	movs	r2, #250	@ 0xfa
10002be2:	2300      	movs	r3, #0
10002be4:	0112      	lsls	r2, r2, #4
10002be6:	18a4      	adds	r4, r4, r2
10002be8:	415d      	adcs	r5, r3
10002bea:	4653      	mov	r3, sl
10002bec:	c330      	stmia	r3!, {r4, r5}
10002bee:	e77b      	b.n	10002ae8 <usb_audio_task+0x18>
10002bf0:	4a36      	ldr	r2, [pc, #216]	@ (10002ccc <usb_audio_task+0x1fc>)
10002bf2:	6813      	ldr	r3, [r2, #0]
10002bf4:	1a1b      	subs	r3, r3, r0
10002bf6:	191b      	adds	r3, r3, r4
10002bf8:	6013      	str	r3, [r2, #0]
10002bfa:	e7a4      	b.n	10002b46 <usb_audio_task+0x76>
10002bfc:	0019      	movs	r1, r3
10002bfe:	e792      	b.n	10002b26 <usb_audio_task+0x56>
10002c00:	0019      	movs	r1, r3
10002c02:	2380      	movs	r3, #128	@ 0x80
10002c04:	021b      	lsls	r3, r3, #8
10002c06:	4299      	cmp	r1, r3
10002c08:	dd8d      	ble.n	10002b26 <usb_audio_task+0x56>
10002c0a:	e7f7      	b.n	10002bfc <usb_audio_task+0x12c>
10002c0c:	428b      	cmp	r3, r1
10002c0e:	d103      	bne.n	10002c18 <usb_audio_task+0x148>
10002c10:	4643      	mov	r3, r8
10002c12:	681b      	ldr	r3, [r3, #0]
10002c14:	4283      	cmp	r3, r0
10002c16:	d8c3      	bhi.n	10002ba0 <usb_audio_task+0xd0>
10002c18:	a803      	add	r0, sp, #12
10002c1a:	f7ff fdd9 	bl	100027d0 <spdif_take_usb_stats>
10002c1e:	4e2b      	ldr	r6, [pc, #172]	@ (10002ccc <usb_audio_task+0x1fc>)
10002c20:	9b05      	ldr	r3, [sp, #20]
10002c22:	46b3      	mov	fp, r6
10002c24:	6836      	ldr	r6, [r6, #0]
10002c26:	9a04      	ldr	r2, [sp, #16]
10002c28:	9903      	ldr	r1, [sp, #12]
10002c2a:	4829      	ldr	r0, [pc, #164]	@ (10002cd0 <usb_audio_task+0x200>)
10002c2c:	9600      	str	r6, [sp, #0]
10002c2e:	f004 faa9 	bl	10007184 <__wrap_printf>
10002c32:	783b      	ldrb	r3, [r7, #0]
10002c34:	2b00      	cmp	r3, #0
10002c36:	d011      	beq.n	10002c5c <usb_audio_task+0x18c>
10002c38:	9b05      	ldr	r3, [sp, #20]
10002c3a:	2b00      	cmp	r3, #0
10002c3c:	d00e      	beq.n	10002c5c <usb_audio_task+0x18c>
10002c3e:	2300      	movs	r3, #0
10002c40:	2280      	movs	r2, #128	@ 0x80
10002c42:	703b      	strb	r3, [r7, #0]
10002c44:	4b23      	ldr	r3, [pc, #140]	@ (10002cd4 <usb_audio_task+0x204>)
10002c46:	0152      	lsls	r2, r2, #5
10002c48:	2000      	movs	r0, #0
10002c4a:	601a      	str	r2, [r3, #0]
10002c4c:	f7ff fd4c 	bl	100026e8 <spdif_set_mode>
10002c50:	f7ff fd9c 	bl	1000278c <spdif_buffered_frames>
10002c54:	0001      	movs	r1, r0
10002c56:	4820      	ldr	r0, [pc, #128]	@ (10002cd8 <usb_audio_task+0x208>)
10002c58:	f004 fa94 	bl	10007184 <__wrap_printf>
10002c5c:	2300      	movs	r3, #0
10002c5e:	465a      	mov	r2, fp
10002c60:	6013      	str	r3, [r2, #0]
10002c62:	2300      	movs	r3, #0
10002c64:	4a1d      	ldr	r2, [pc, #116]	@ (10002cdc <usb_audio_task+0x20c>)
10002c66:	18a4      	adds	r4, r4, r2
10002c68:	415d      	adcs	r5, r3
10002c6a:	4643      	mov	r3, r8
10002c6c:	c330      	stmia	r3!, {r4, r5}
10002c6e:	e797      	b.n	10002ba0 <usb_audio_task+0xd0>
10002c70:	f7ff fd8c 	bl	1000278c <spdif_buffered_frames>
10002c74:	4b17      	ldr	r3, [pc, #92]	@ (10002cd4 <usb_audio_task+0x204>)
10002c76:	681b      	ldr	r3, [r3, #0]
10002c78:	4298      	cmp	r0, r3
10002c7a:	d388      	bcc.n	10002b8e <usb_audio_task+0xbe>
10002c7c:	2301      	movs	r3, #1
10002c7e:	2002      	movs	r0, #2
10002c80:	703b      	strb	r3, [r7, #0]
10002c82:	f7ff fd31 	bl	100026e8 <spdif_set_mode>
10002c86:	f7ff fd81 	bl	1000278c <spdif_buffered_frames>
10002c8a:	0001      	movs	r1, r0
10002c8c:	4814      	ldr	r0, [pc, #80]	@ (10002ce0 <usb_audio_task+0x210>)
10002c8e:	f004 fa79 	bl	10007184 <__wrap_printf>
10002c92:	e77c      	b.n	10002b8e <usb_audio_task+0xbe>
10002c94:	4653      	mov	r3, sl
10002c96:	681b      	ldr	r3, [r3, #0]
10002c98:	4283      	cmp	r3, r0
10002c9a:	d800      	bhi.n	10002c9e <usb_audio_task+0x1ce>
10002c9c:	e736      	b.n	10002b0c <usb_audio_task+0x3c>
10002c9e:	e74f      	b.n	10002b40 <usb_audio_task+0x70>
10002ca0:	0019      	movs	r1, r3
10002ca2:	e797      	b.n	10002bd4 <usb_audio_task+0x104>
10002ca4:	0019      	movs	r1, r3
10002ca6:	e791      	b.n	10002bcc <usb_audio_task+0xfc>
10002ca8:	4653      	mov	r3, sl
10002caa:	681b      	ldr	r3, [r3, #0]
10002cac:	4283      	cmp	r3, r0
10002cae:	d984      	bls.n	10002bba <usb_audio_task+0xea>
10002cb0:	e71a      	b.n	10002ae8 <usb_audio_task+0x18>
10002cb2:	46c0      	nop			@ (mov r8, r8)
10002cb4:	2000f07a 	.word	0x2000f07a
10002cb8:	20002d08 	.word	0x20002d08
10002cbc:	ffff8000 	.word	0xffff8000
10002cc0:	20005670 	.word	0x20005670
10002cc4:	2000f073 	.word	0x2000f073
10002cc8:	20002d00 	.word	0x20002d00
10002ccc:	20004b24 	.word	0x20004b24
10002cd0:	1000acfc 	.word	0x1000acfc
10002cd4:	2000580c 	.word	0x2000580c
10002cd8:	1000ad28 	.word	0x1000ad28
10002cdc:	001e8480 	.word	0x001e8480
10002ce0:	1000acd8 	.word	0x1000acd8

10002ce4 <tud_descriptor_device_cb>:
10002ce4:	4800      	ldr	r0, [pc, #0]	@ (10002ce8 <tud_descriptor_device_cb+0x4>)
10002ce6:	4770      	bx	lr
10002ce8:	1000b4b8 	.word	0x1000b4b8

10002cec <tud_descriptor_configuration_cb>:
10002cec:	4800      	ldr	r0, [pc, #0]	@ (10002cf0 <tud_descriptor_configuration_cb+0x4>)
10002cee:	4770      	bx	lr
10002cf0:	1000b3d4 	.word	0x1000b3d4

10002cf4 <tud_descriptor_string_cb>:
10002cf4:	b570      	push	{r4, r5, r6, lr}
10002cf6:	0004      	movs	r4, r0
10002cf8:	481c      	ldr	r0, [pc, #112]	@ (10002d6c <tud_descriptor_string_cb+0x78>)
10002cfa:	7803      	ldrb	r3, [r0, #0]
10002cfc:	2b00      	cmp	r3, #0
10002cfe:	d02d      	beq.n	10002d5c <tud_descriptor_string_cb+0x68>
10002d00:	2c00      	cmp	r4, #0
10002d02:	d10b      	bne.n	10002d1c <tud_descriptor_string_cb+0x28>
10002d04:	4b1a      	ldr	r3, [pc, #104]	@ (10002d70 <tud_descriptor_string_cb+0x7c>)
10002d06:	469c      	mov	ip, r3
10002d08:	4662      	mov	r2, ip
10002d0a:	4b1a      	ldr	r3, [pc, #104]	@ (10002d74 <tud_descriptor_string_cb+0x80>)
10002d0c:	1f9d      	subs	r5, r3, #6
10002d0e:	8053      	strh	r3, [r2, #2]
10002d10:	3dff      	subs	r5, #255	@ 0xff
10002d12:	4663      	mov	r3, ip
10002d14:	4664      	mov	r4, ip
10002d16:	801d      	strh	r5, [r3, #0]
10002d18:	0020      	movs	r0, r4
10002d1a:	bd70      	pop	{r4, r5, r6, pc}
10002d1c:	2c06      	cmp	r4, #6
10002d1e:	d823      	bhi.n	10002d68 <tud_descriptor_string_cb+0x74>
10002d20:	4b15      	ldr	r3, [pc, #84]	@ (10002d78 <tud_descriptor_string_cb+0x84>)
10002d22:	00a4      	lsls	r4, r4, #2
10002d24:	58e4      	ldr	r4, [r4, r3]
10002d26:	2c00      	cmp	r4, #0
10002d28:	d0f6      	beq.n	10002d18 <tud_descriptor_string_cb+0x24>
10002d2a:	0020      	movs	r0, r4
10002d2c:	f007 fb6c 	bl	1000a408 <strlen>
10002d30:	0002      	movs	r2, r0
10002d32:	2820      	cmp	r0, #32
10002d34:	d816      	bhi.n	10002d64 <tud_descriptor_string_cb+0x70>
10002d36:	23c0      	movs	r3, #192	@ 0xc0
10002d38:	1c41      	adds	r1, r0, #1
10002d3a:	0049      	lsls	r1, r1, #1
10002d3c:	009b      	lsls	r3, r3, #2
10002d3e:	430b      	orrs	r3, r1
10002d40:	001d      	movs	r5, r3
10002d42:	4b0b      	ldr	r3, [pc, #44]	@ (10002d70 <tud_descriptor_string_cb+0x7c>)
10002d44:	469c      	mov	ip, r3
10002d46:	2a00      	cmp	r2, #0
10002d48:	d0e3      	beq.n	10002d12 <tud_descriptor_string_cb+0x1e>
10002d4a:	1c9a      	adds	r2, r3, #2
10002d4c:	2300      	movs	r3, #0
10002d4e:	5ce1      	ldrb	r1, [r4, r3]
10002d50:	3301      	adds	r3, #1
10002d52:	8011      	strh	r1, [r2, #0]
10002d54:	3202      	adds	r2, #2
10002d56:	4298      	cmp	r0, r3
10002d58:	d8f9      	bhi.n	10002d4e <tud_descriptor_string_cb+0x5a>
10002d5a:	e7da      	b.n	10002d12 <tud_descriptor_string_cb+0x1e>
10002d5c:	2111      	movs	r1, #17
10002d5e:	f004 fb9d 	bl	1000749c <pico_get_unique_board_id_string>
10002d62:	e7cd      	b.n	10002d00 <tud_descriptor_string_cb+0xc>
10002d64:	2020      	movs	r0, #32
10002d66:	e7e6      	b.n	10002d36 <tud_descriptor_string_cb+0x42>
10002d68:	2400      	movs	r4, #0
10002d6a:	e7d5      	b.n	10002d18 <tud_descriptor_string_cb+0x24>
10002d6c:	20005818 	.word	0x20005818
10002d70:	20004adc 	.word	0x20004adc
10002d74:	00000409 	.word	0x00000409
10002d78:	1000b3b4 	.word	0x1000b3b4

10002d7c <gpio_default_irq_handler>:
10002d7c:	23d0      	movs	r3, #208	@ 0xd0
10002d7e:	061b      	lsls	r3, r3, #24
10002d80:	681b      	ldr	r3, [r3, #0]
10002d82:	b5f0      	push	{r4, r5, r6, r7, lr}
10002d84:	4aa9      	ldr	r2, [pc, #676]	@ (1000302c <gpio_default_irq_handler+0x2b0>)
10002d86:	46de      	mov	lr, fp
10002d88:	464e      	mov	r6, r9
10002d8a:	4645      	mov	r5, r8
10002d8c:	4657      	mov	r7, sl
10002d8e:	0099      	lsls	r1, r3, #2
10002d90:	4688      	mov	r8, r1
10002d92:	5851      	ldr	r1, [r2, r1]
10002d94:	425a      	negs	r2, r3
10002d96:	4153      	adcs	r3, r2
10002d98:	222f      	movs	r2, #47	@ 0x2f
10002d9a:	b5e0      	push	{r5, r6, r7, lr}
10002d9c:	425b      	negs	r3, r3
10002d9e:	4393      	bics	r3, r2
10002da0:	4aa3      	ldr	r2, [pc, #652]	@ (10003030 <gpio_default_irq_handler+0x2b4>)
10002da2:	b083      	sub	sp, #12
10002da4:	189b      	adds	r3, r3, r2
10002da6:	469b      	mov	fp, r3
10002da8:	2600      	movs	r6, #0
10002daa:	9101      	str	r1, [sp, #4]
10002dac:	2900      	cmp	r1, #0
10002dae:	d039      	beq.n	10002e24 <gpio_default_irq_handler+0xa8>
10002db0:	4ba0      	ldr	r3, [pc, #640]	@ (10003034 <gpio_default_irq_handler+0x2b8>)
10002db2:	270f      	movs	r7, #15
10002db4:	469a      	mov	sl, r3
10002db6:	465a      	mov	r2, fp
10002db8:	08f3      	lsrs	r3, r6, #3
10002dba:	3308      	adds	r3, #8
10002dbc:	009b      	lsls	r3, r3, #2
10002dbe:	589d      	ldr	r5, [r3, r2]
10002dc0:	2301      	movs	r3, #1
10002dc2:	0034      	movs	r4, r6
10002dc4:	4699      	mov	r9, r3
10002dc6:	3608      	adds	r6, #8
10002dc8:	2d00      	cmp	r5, #0
10002dca:	d022      	beq.n	10002e12 <gpio_default_irq_handler+0x96>
10002dcc:	0039      	movs	r1, r7
10002dce:	4029      	ands	r1, r5
10002dd0:	092d      	lsrs	r5, r5, #4
10002dd2:	2900      	cmp	r1, #0
10002dd4:	d01a      	beq.n	10002e0c <gpio_default_irq_handler+0x90>
10002dd6:	4653      	mov	r3, sl
10002dd8:	4642      	mov	r2, r8
10002dda:	589a      	ldr	r2, [r3, r2]
10002ddc:	0023      	movs	r3, r4
10002dde:	40e2      	lsrs	r2, r4
10002de0:	3b20      	subs	r3, #32
10002de2:	17db      	asrs	r3, r3, #31
10002de4:	4013      	ands	r3, r2
10002de6:	464a      	mov	r2, r9
10002de8:	4213      	tst	r3, r2
10002dea:	d10d      	bne.n	10002e08 <gpio_default_irq_handler+0x8c>
10002dec:	2207      	movs	r2, #7
10002dee:	0008      	movs	r0, r1
10002df0:	4022      	ands	r2, r4
10002df2:	0092      	lsls	r2, r2, #2
10002df4:	4090      	lsls	r0, r2
10002df6:	0002      	movs	r2, r0
10002df8:	08e3      	lsrs	r3, r4, #3
10002dfa:	488f      	ldr	r0, [pc, #572]	@ (10003038 <gpio_default_irq_handler+0x2bc>)
10002dfc:	333c      	adds	r3, #60	@ 0x3c
10002dfe:	009b      	lsls	r3, r3, #2
10002e00:	501a      	str	r2, [r3, r0]
10002e02:	0020      	movs	r0, r4
10002e04:	9b01      	ldr	r3, [sp, #4]
10002e06:	4798      	blx	r3
10002e08:	2d00      	cmp	r5, #0
10002e0a:	d002      	beq.n	10002e12 <gpio_default_irq_handler+0x96>
10002e0c:	3401      	adds	r4, #1
10002e0e:	42b4      	cmp	r4, r6
10002e10:	d3dc      	bcc.n	10002dcc <gpio_default_irq_handler+0x50>
10002e12:	2e20      	cmp	r6, #32
10002e14:	d1cf      	bne.n	10002db6 <gpio_default_irq_handler+0x3a>
10002e16:	b003      	add	sp, #12
10002e18:	bcf0      	pop	{r4, r5, r6, r7}
10002e1a:	46bb      	mov	fp, r7
10002e1c:	46b2      	mov	sl, r6
10002e1e:	46a9      	mov	r9, r5
10002e20:	46a0      	mov	r8, r4
10002e22:	bdf0      	pop	{r4, r5, r6, r7, pc}
10002e24:	230f      	movs	r3, #15
10002e26:	4a83      	ldr	r2, [pc, #524]	@ (10003034 <gpio_default_irq_handler+0x2b8>)
10002e28:	9201      	str	r2, [sp, #4]
10002e2a:	08cc      	lsrs	r4, r1, #3
10002e2c:	0022      	movs	r2, r4
10002e2e:	4658      	mov	r0, fp
10002e30:	000f      	movs	r7, r1
10002e32:	3208      	adds	r2, #8
10002e34:	0092      	lsls	r2, r2, #2
10002e36:	5812      	ldr	r2, [r2, r0]
10002e38:	3708      	adds	r7, #8
10002e3a:	2a00      	cmp	r2, #0
10002e3c:	d100      	bne.n	10002e40 <gpio_default_irq_handler+0xc4>
10002e3e:	e0cd      	b.n	10002fdc <gpio_default_irq_handler+0x260>
10002e40:	0018      	movs	r0, r3
10002e42:	4010      	ands	r0, r2
10002e44:	4684      	mov	ip, r0
10002e46:	0910      	lsrs	r0, r2, #4
10002e48:	4213      	tst	r3, r2
10002e4a:	d01a      	beq.n	10002e82 <gpio_default_irq_handler+0x106>
10002e4c:	4645      	mov	r5, r8
10002e4e:	9e01      	ldr	r6, [sp, #4]
10002e50:	5975      	ldr	r5, [r6, r5]
10002e52:	46aa      	mov	sl, r5
10002e54:	2520      	movs	r5, #32
10002e56:	426d      	negs	r5, r5
10002e58:	46a9      	mov	r9, r5
10002e5a:	4489      	add	r9, r1
10002e5c:	464d      	mov	r5, r9
10002e5e:	17ed      	asrs	r5, r5, #31
10002e60:	46a9      	mov	r9, r5
10002e62:	4655      	mov	r5, sl
10002e64:	40cd      	lsrs	r5, r1
10002e66:	002e      	movs	r6, r5
10002e68:	464d      	mov	r5, r9
10002e6a:	4035      	ands	r5, r6
10002e6c:	2601      	movs	r6, #1
10002e6e:	4235      	tst	r5, r6
10002e70:	d104      	bne.n	10002e7c <gpio_default_irq_handler+0x100>
10002e72:	4666      	mov	r6, ip
10002e74:	4d70      	ldr	r5, [pc, #448]	@ (10003038 <gpio_default_irq_handler+0x2bc>)
10002e76:	343c      	adds	r4, #60	@ 0x3c
10002e78:	00a4      	lsls	r4, r4, #2
10002e7a:	5166      	str	r6, [r4, r5]
10002e7c:	2800      	cmp	r0, #0
10002e7e:	d100      	bne.n	10002e82 <gpio_default_irq_handler+0x106>
10002e80:	e0ac      	b.n	10002fdc <gpio_default_irq_handler+0x260>
10002e82:	001c      	movs	r4, r3
10002e84:	4004      	ands	r4, r0
10002e86:	46a4      	mov	ip, r4
10002e88:	0a14      	lsrs	r4, r2, #8
10002e8a:	4203      	tst	r3, r0
10002e8c:	d019      	beq.n	10002ec2 <gpio_default_irq_handler+0x146>
10002e8e:	1c48      	adds	r0, r1, #1
10002e90:	4681      	mov	r9, r0
10002e92:	4640      	mov	r0, r8
10002e94:	9d01      	ldr	r5, [sp, #4]
10002e96:	464e      	mov	r6, r9
10002e98:	5828      	ldr	r0, [r5, r0]
10002e9a:	0005      	movs	r5, r0
10002e9c:	0008      	movs	r0, r1
10002e9e:	40f5      	lsrs	r5, r6
10002ea0:	381f      	subs	r0, #31
10002ea2:	17c0      	asrs	r0, r0, #31
10002ea4:	4028      	ands	r0, r5
10002ea6:	2501      	movs	r5, #1
10002ea8:	4228      	tst	r0, r5
10002eaa:	d107      	bne.n	10002ebc <gpio_default_irq_handler+0x140>
10002eac:	4665      	mov	r5, ip
10002eae:	012d      	lsls	r5, r5, #4
10002eb0:	08f0      	lsrs	r0, r6, #3
10002eb2:	002e      	movs	r6, r5
10002eb4:	303c      	adds	r0, #60	@ 0x3c
10002eb6:	4d60      	ldr	r5, [pc, #384]	@ (10003038 <gpio_default_irq_handler+0x2bc>)
10002eb8:	0080      	lsls	r0, r0, #2
10002eba:	5146      	str	r6, [r0, r5]
10002ebc:	2c00      	cmp	r4, #0
10002ebe:	d100      	bne.n	10002ec2 <gpio_default_irq_handler+0x146>
10002ec0:	e08c      	b.n	10002fdc <gpio_default_irq_handler+0x260>
10002ec2:	0018      	movs	r0, r3
10002ec4:	4020      	ands	r0, r4
10002ec6:	4684      	mov	ip, r0
10002ec8:	0b10      	lsrs	r0, r2, #12
10002eca:	4223      	tst	r3, r4
10002ecc:	d011      	beq.n	10002ef2 <gpio_default_irq_handler+0x176>
10002ece:	1c8c      	adds	r4, r1, #2
10002ed0:	46a1      	mov	r9, r4
10002ed2:	4644      	mov	r4, r8
10002ed4:	9d01      	ldr	r5, [sp, #4]
10002ed6:	464e      	mov	r6, r9
10002ed8:	592c      	ldr	r4, [r5, r4]
10002eda:	0025      	movs	r5, r4
10002edc:	000c      	movs	r4, r1
10002ede:	40f5      	lsrs	r5, r6
10002ee0:	3c1e      	subs	r4, #30
10002ee2:	17e4      	asrs	r4, r4, #31
10002ee4:	402c      	ands	r4, r5
10002ee6:	2501      	movs	r5, #1
10002ee8:	422c      	tst	r4, r5
10002eea:	d100      	bne.n	10002eee <gpio_default_irq_handler+0x172>
10002eec:	e081      	b.n	10002ff2 <gpio_default_irq_handler+0x276>
10002eee:	2800      	cmp	r0, #0
10002ef0:	d074      	beq.n	10002fdc <gpio_default_irq_handler+0x260>
10002ef2:	001c      	movs	r4, r3
10002ef4:	4004      	ands	r4, r0
10002ef6:	46a4      	mov	ip, r4
10002ef8:	0c14      	lsrs	r4, r2, #16
10002efa:	4203      	tst	r3, r0
10002efc:	d010      	beq.n	10002f20 <gpio_default_irq_handler+0x1a4>
10002efe:	1cc8      	adds	r0, r1, #3
10002f00:	4681      	mov	r9, r0
10002f02:	4640      	mov	r0, r8
10002f04:	9d01      	ldr	r5, [sp, #4]
10002f06:	464e      	mov	r6, r9
10002f08:	5828      	ldr	r0, [r5, r0]
10002f0a:	0005      	movs	r5, r0
10002f0c:	0008      	movs	r0, r1
10002f0e:	40f5      	lsrs	r5, r6
10002f10:	381d      	subs	r0, #29
10002f12:	17c0      	asrs	r0, r0, #31
10002f14:	4028      	ands	r0, r5
10002f16:	2501      	movs	r5, #1
10002f18:	4228      	tst	r0, r5
10002f1a:	d073      	beq.n	10003004 <gpio_default_irq_handler+0x288>
10002f1c:	2c00      	cmp	r4, #0
10002f1e:	d05d      	beq.n	10002fdc <gpio_default_irq_handler+0x260>
10002f20:	0018      	movs	r0, r3
10002f22:	4020      	ands	r0, r4
10002f24:	4681      	mov	r9, r0
10002f26:	0d10      	lsrs	r0, r2, #20
10002f28:	4223      	tst	r3, r4
10002f2a:	d00e      	beq.n	10002f4a <gpio_default_irq_handler+0x1ce>
10002f2c:	1d0c      	adds	r4, r1, #4
10002f2e:	46a4      	mov	ip, r4
10002f30:	4645      	mov	r5, r8
10002f32:	4c40      	ldr	r4, [pc, #256]	@ (10003034 <gpio_default_irq_handler+0x2b8>)
10002f34:	5964      	ldr	r4, [r4, r5]
10002f36:	4665      	mov	r5, ip
10002f38:	40ec      	lsrs	r4, r5
10002f3a:	0025      	movs	r5, r4
10002f3c:	000c      	movs	r4, r1
10002f3e:	3c1c      	subs	r4, #28
10002f40:	0fe4      	lsrs	r4, r4, #31
10002f42:	422c      	tst	r4, r5
10002f44:	d067      	beq.n	10003016 <gpio_default_irq_handler+0x29a>
10002f46:	2800      	cmp	r0, #0
10002f48:	d048      	beq.n	10002fdc <gpio_default_irq_handler+0x260>
10002f4a:	001c      	movs	r4, r3
10002f4c:	4004      	ands	r4, r0
10002f4e:	46a4      	mov	ip, r4
10002f50:	0e14      	lsrs	r4, r2, #24
10002f52:	4203      	tst	r3, r0
10002f54:	d017      	beq.n	10002f86 <gpio_default_irq_handler+0x20a>
10002f56:	1d48      	adds	r0, r1, #5
10002f58:	4681      	mov	r9, r0
10002f5a:	4645      	mov	r5, r8
10002f5c:	4835      	ldr	r0, [pc, #212]	@ (10003034 <gpio_default_irq_handler+0x2b8>)
10002f5e:	5940      	ldr	r0, [r0, r5]
10002f60:	464d      	mov	r5, r9
10002f62:	40e8      	lsrs	r0, r5
10002f64:	0005      	movs	r5, r0
10002f66:	0008      	movs	r0, r1
10002f68:	381b      	subs	r0, #27
10002f6a:	0fc0      	lsrs	r0, r0, #31
10002f6c:	4228      	tst	r0, r5
10002f6e:	d108      	bne.n	10002f82 <gpio_default_irq_handler+0x206>
10002f70:	4665      	mov	r5, ip
10002f72:	4648      	mov	r0, r9
10002f74:	052d      	lsls	r5, r5, #20
10002f76:	002e      	movs	r6, r5
10002f78:	08c0      	lsrs	r0, r0, #3
10002f7a:	4d2f      	ldr	r5, [pc, #188]	@ (10003038 <gpio_default_irq_handler+0x2bc>)
10002f7c:	303c      	adds	r0, #60	@ 0x3c
10002f7e:	0080      	lsls	r0, r0, #2
10002f80:	5146      	str	r6, [r0, r5]
10002f82:	2c00      	cmp	r4, #0
10002f84:	d02a      	beq.n	10002fdc <gpio_default_irq_handler+0x260>
10002f86:	0018      	movs	r0, r3
10002f88:	4020      	ands	r0, r4
10002f8a:	4684      	mov	ip, r0
10002f8c:	0f12      	lsrs	r2, r2, #28
10002f8e:	4223      	tst	r3, r4
10002f90:	d029      	beq.n	10002fe6 <gpio_default_irq_handler+0x26a>
10002f92:	4645      	mov	r5, r8
10002f94:	4827      	ldr	r0, [pc, #156]	@ (10003034 <gpio_default_irq_handler+0x2b8>)
10002f96:	1d8c      	adds	r4, r1, #6
10002f98:	4682      	mov	sl, r0
10002f9a:	5940      	ldr	r0, [r0, r5]
10002f9c:	40e0      	lsrs	r0, r4
10002f9e:	0005      	movs	r5, r0
10002fa0:	0008      	movs	r0, r1
10002fa2:	381a      	subs	r0, #26
10002fa4:	0fc0      	lsrs	r0, r0, #31
10002fa6:	4228      	tst	r0, r5
10002fa8:	d106      	bne.n	10002fb8 <gpio_default_irq_handler+0x23c>
10002faa:	08e0      	lsrs	r0, r4, #3
10002fac:	4664      	mov	r4, ip
10002fae:	4d22      	ldr	r5, [pc, #136]	@ (10003038 <gpio_default_irq_handler+0x2bc>)
10002fb0:	303c      	adds	r0, #60	@ 0x3c
10002fb2:	0624      	lsls	r4, r4, #24
10002fb4:	0080      	lsls	r0, r0, #2
10002fb6:	5144      	str	r4, [r0, r5]
10002fb8:	3107      	adds	r1, #7
10002fba:	2a00      	cmp	r2, #0
10002fbc:	d00e      	beq.n	10002fdc <gpio_default_irq_handler+0x260>
10002fbe:	4650      	mov	r0, sl
10002fc0:	4644      	mov	r4, r8
10002fc2:	5904      	ldr	r4, [r0, r4]
10002fc4:	0008      	movs	r0, r1
10002fc6:	40cc      	lsrs	r4, r1
10002fc8:	3820      	subs	r0, #32
10002fca:	0fc0      	lsrs	r0, r0, #31
10002fcc:	4220      	tst	r0, r4
10002fce:	d105      	bne.n	10002fdc <gpio_default_irq_handler+0x260>
10002fd0:	08c9      	lsrs	r1, r1, #3
10002fd2:	4819      	ldr	r0, [pc, #100]	@ (10003038 <gpio_default_irq_handler+0x2bc>)
10002fd4:	313c      	adds	r1, #60	@ 0x3c
10002fd6:	0712      	lsls	r2, r2, #28
10002fd8:	0089      	lsls	r1, r1, #2
10002fda:	500a      	str	r2, [r1, r0]
10002fdc:	2f20      	cmp	r7, #32
10002fde:	d100      	bne.n	10002fe2 <gpio_default_irq_handler+0x266>
10002fe0:	e719      	b.n	10002e16 <gpio_default_irq_handler+0x9a>
10002fe2:	0039      	movs	r1, r7
10002fe4:	e721      	b.n	10002e2a <gpio_default_irq_handler+0xae>
10002fe6:	2a00      	cmp	r2, #0
10002fe8:	d0f8      	beq.n	10002fdc <gpio_default_irq_handler+0x260>
10002fea:	4812      	ldr	r0, [pc, #72]	@ (10003034 <gpio_default_irq_handler+0x2b8>)
10002fec:	3107      	adds	r1, #7
10002fee:	4682      	mov	sl, r0
10002ff0:	e7e5      	b.n	10002fbe <gpio_default_irq_handler+0x242>
10002ff2:	4665      	mov	r5, ip
10002ff4:	022d      	lsls	r5, r5, #8
10002ff6:	08f4      	lsrs	r4, r6, #3
10002ff8:	002e      	movs	r6, r5
10002ffa:	343c      	adds	r4, #60	@ 0x3c
10002ffc:	4d0e      	ldr	r5, [pc, #56]	@ (10003038 <gpio_default_irq_handler+0x2bc>)
10002ffe:	00a4      	lsls	r4, r4, #2
10003000:	5166      	str	r6, [r4, r5]
10003002:	e774      	b.n	10002eee <gpio_default_irq_handler+0x172>
10003004:	4665      	mov	r5, ip
10003006:	032d      	lsls	r5, r5, #12
10003008:	08f0      	lsrs	r0, r6, #3
1000300a:	002e      	movs	r6, r5
1000300c:	303c      	adds	r0, #60	@ 0x3c
1000300e:	4d0a      	ldr	r5, [pc, #40]	@ (10003038 <gpio_default_irq_handler+0x2bc>)
10003010:	0080      	lsls	r0, r0, #2
10003012:	5146      	str	r6, [r0, r5]
10003014:	e782      	b.n	10002f1c <gpio_default_irq_handler+0x1a0>
10003016:	464d      	mov	r5, r9
10003018:	4664      	mov	r4, ip
1000301a:	042d      	lsls	r5, r5, #16
1000301c:	002e      	movs	r6, r5
1000301e:	08e4      	lsrs	r4, r4, #3
10003020:	4d05      	ldr	r5, [pc, #20]	@ (10003038 <gpio_default_irq_handler+0x2bc>)
10003022:	343c      	adds	r4, #60	@ 0x3c
10003024:	00a4      	lsls	r4, r4, #2
10003026:	5166      	str	r6, [r4, r5]
10003028:	e78d      	b.n	10002f46 <gpio_default_irq_handler+0x1ca>
1000302a:	46c0      	nop			@ (mov r8, r8)
1000302c:	20003a38 	.word	0x20003a38
10003030:	40014130 	.word	0x40014130
10003034:	20005804 	.word	0x20005804
10003038:	40014000 	.word	0x40014000

1000303c <gpio_set_function>:
1000303c:	b510      	push	{r4, lr}
1000303e:	2440      	movs	r4, #64	@ 0x40
10003040:	4a07      	ldr	r2, [pc, #28]	@ (10003060 <gpio_set_function+0x24>)
10003042:	0083      	lsls	r3, r0, #2
10003044:	189a      	adds	r2, r3, r2
10003046:	6812      	ldr	r2, [r2, #0]
10003048:	00c0      	lsls	r0, r0, #3
1000304a:	4054      	eors	r4, r2
1000304c:	22c0      	movs	r2, #192	@ 0xc0
1000304e:	4022      	ands	r2, r4
10003050:	4c04      	ldr	r4, [pc, #16]	@ (10003064 <gpio_set_function+0x28>)
10003052:	191b      	adds	r3, r3, r4
10003054:	601a      	str	r2, [r3, #0]
10003056:	4b04      	ldr	r3, [pc, #16]	@ (10003068 <gpio_set_function+0x2c>)
10003058:	18c0      	adds	r0, r0, r3
1000305a:	6041      	str	r1, [r0, #4]
1000305c:	bd10      	pop	{r4, pc}
1000305e:	46c0      	nop			@ (mov r8, r8)
10003060:	4001c004 	.word	0x4001c004
10003064:	4001d004 	.word	0x4001d004
10003068:	40014000 	.word	0x40014000

1000306c <gpio_set_irq_enabled>:
1000306c:	23d0      	movs	r3, #208	@ 0xd0
1000306e:	061b      	lsls	r3, r3, #24
10003070:	681b      	ldr	r3, [r3, #0]
10003072:	b510      	push	{r4, lr}
10003074:	0014      	movs	r4, r2
10003076:	425a      	negs	r2, r3
10003078:	4153      	adcs	r3, r2
1000307a:	222f      	movs	r2, #47	@ 0x2f
1000307c:	425b      	negs	r3, r3
1000307e:	4393      	bics	r3, r2
10003080:	4a0d      	ldr	r2, [pc, #52]	@ (100030b8 <gpio_set_irq_enabled+0x4c>)
10003082:	189b      	adds	r3, r3, r2
10003084:	08c2      	lsrs	r2, r0, #3
10003086:	4694      	mov	ip, r2
10003088:	2207      	movs	r2, #7
1000308a:	4010      	ands	r0, r2
1000308c:	4662      	mov	r2, ip
1000308e:	0080      	lsls	r0, r0, #2
10003090:	4081      	lsls	r1, r0
10003092:	323c      	adds	r2, #60	@ 0x3c
10003094:	4809      	ldr	r0, [pc, #36]	@ (100030bc <gpio_set_irq_enabled+0x50>)
10003096:	0092      	lsls	r2, r2, #2
10003098:	5011      	str	r1, [r2, r0]
1000309a:	4660      	mov	r0, ip
1000309c:	0080      	lsls	r0, r0, #2
1000309e:	181b      	adds	r3, r3, r0
100030a0:	2c00      	cmp	r4, #0
100030a2:	d004      	beq.n	100030ae <gpio_set_irq_enabled+0x42>
100030a4:	2280      	movs	r2, #128	@ 0x80
100030a6:	0192      	lsls	r2, r2, #6
100030a8:	189b      	adds	r3, r3, r2
100030aa:	6019      	str	r1, [r3, #0]
100030ac:	bd10      	pop	{r4, pc}
100030ae:	22c0      	movs	r2, #192	@ 0xc0
100030b0:	0192      	lsls	r2, r2, #6
100030b2:	189b      	adds	r3, r3, r2
100030b4:	6019      	str	r1, [r3, #0]
100030b6:	e7f9      	b.n	100030ac <gpio_set_irq_enabled+0x40>
100030b8:	40014130 	.word	0x40014130
100030bc:	40014000 	.word	0x40014000

100030c0 <gpio_set_irq_enabled_with_callback>:
100030c0:	b5f0      	push	{r4, r5, r6, r7, lr}
100030c2:	464f      	mov	r7, r9
100030c4:	4646      	mov	r6, r8
100030c6:	46d6      	mov	lr, sl
100030c8:	b5c0      	push	{r6, r7, lr}
100030ca:	27d0      	movs	r7, #208	@ 0xd0
100030cc:	063f      	lsls	r7, r7, #24
100030ce:	4688      	mov	r8, r1
100030d0:	469a      	mov	sl, r3
100030d2:	0019      	movs	r1, r3
100030d4:	683b      	ldr	r3, [r7, #0]
100030d6:	4e22      	ldr	r6, [pc, #136]	@ (10003160 <gpio_set_irq_enabled_with_callback+0xa0>)
100030d8:	009d      	lsls	r5, r3, #2
100030da:	4691      	mov	r9, r2
100030dc:	5972      	ldr	r2, [r6, r5]
100030de:	0004      	movs	r4, r0
100030e0:	2a00      	cmp	r2, #0
100030e2:	d02d      	beq.n	10003140 <gpio_set_irq_enabled_with_callback+0x80>
100030e4:	2900      	cmp	r1, #0
100030e6:	d035      	beq.n	10003154 <gpio_set_irq_enabled_with_callback+0x94>
100030e8:	4652      	mov	r2, sl
100030ea:	5172      	str	r2, [r6, r5]
100030ec:	425a      	negs	r2, r3
100030ee:	4153      	adcs	r3, r2
100030f0:	222f      	movs	r2, #47	@ 0x2f
100030f2:	425b      	negs	r3, r3
100030f4:	4393      	bics	r3, r2
100030f6:	4a1b      	ldr	r2, [pc, #108]	@ (10003164 <gpio_set_irq_enabled_with_callback+0xa4>)
100030f8:	4640      	mov	r0, r8
100030fa:	189b      	adds	r3, r3, r2
100030fc:	2207      	movs	r2, #7
100030fe:	4022      	ands	r2, r4
10003100:	0092      	lsls	r2, r2, #2
10003102:	4090      	lsls	r0, r2
10003104:	08e1      	lsrs	r1, r4, #3
10003106:	0002      	movs	r2, r0
10003108:	0008      	movs	r0, r1
1000310a:	0089      	lsls	r1, r1, #2
1000310c:	185b      	adds	r3, r3, r1
1000310e:	4649      	mov	r1, r9
10003110:	4c15      	ldr	r4, [pc, #84]	@ (10003168 <gpio_set_irq_enabled_with_callback+0xa8>)
10003112:	303c      	adds	r0, #60	@ 0x3c
10003114:	0080      	lsls	r0, r0, #2
10003116:	5102      	str	r2, [r0, r4]
10003118:	2900      	cmp	r1, #0
1000311a:	d00c      	beq.n	10003136 <gpio_set_irq_enabled_with_callback+0x76>
1000311c:	2180      	movs	r1, #128	@ 0x80
1000311e:	0189      	lsls	r1, r1, #6
10003120:	185b      	adds	r3, r3, r1
10003122:	200d      	movs	r0, #13
10003124:	2101      	movs	r1, #1
10003126:	601a      	str	r2, [r3, #0]
10003128:	f000 f92e 	bl	10003388 <irq_set_enabled>
1000312c:	bce0      	pop	{r5, r6, r7}
1000312e:	46ba      	mov	sl, r7
10003130:	46b1      	mov	r9, r6
10003132:	46a8      	mov	r8, r5
10003134:	bdf0      	pop	{r4, r5, r6, r7, pc}
10003136:	21c0      	movs	r1, #192	@ 0xc0
10003138:	0189      	lsls	r1, r1, #6
1000313a:	185b      	adds	r3, r3, r1
1000313c:	601a      	str	r2, [r3, #0]
1000313e:	e7f5      	b.n	1000312c <gpio_set_irq_enabled_with_callback+0x6c>
10003140:	2900      	cmp	r1, #0
10003142:	d0d3      	beq.n	100030ec <gpio_set_irq_enabled_with_callback+0x2c>
10003144:	5171      	str	r1, [r6, r5]
10003146:	2200      	movs	r2, #0
10003148:	200d      	movs	r0, #13
1000314a:	4908      	ldr	r1, [pc, #32]	@ (1000316c <gpio_set_irq_enabled_with_callback+0xac>)
1000314c:	f000 f964 	bl	10003418 <irq_add_shared_handler>
10003150:	683b      	ldr	r3, [r7, #0]
10003152:	e7cb      	b.n	100030ec <gpio_set_irq_enabled_with_callback+0x2c>
10003154:	200d      	movs	r0, #13
10003156:	4905      	ldr	r1, [pc, #20]	@ (1000316c <gpio_set_irq_enabled_with_callback+0xac>)
10003158:	f000 fa44 	bl	100035e4 <irq_remove_handler>
1000315c:	683b      	ldr	r3, [r7, #0]
1000315e:	e7c3      	b.n	100030e8 <gpio_set_irq_enabled_with_callback+0x28>
10003160:	20003a38 	.word	0x20003a38
10003164:	40014130 	.word	0x40014130
10003168:	40014000 	.word	0x40014000
1000316c:	10002d7d 	.word	0x10002d7d

10003170 <gpio_init>:
10003170:	2301      	movs	r3, #1
10003172:	22d0      	movs	r2, #208	@ 0xd0
10003174:	4083      	lsls	r3, r0
10003176:	0612      	lsls	r2, r2, #24
10003178:	6293      	str	r3, [r2, #40]	@ 0x28
1000317a:	6193      	str	r3, [r2, #24]
1000317c:	4a08      	ldr	r2, [pc, #32]	@ (100031a0 <gpio_init+0x30>)
1000317e:	0083      	lsls	r3, r0, #2
10003180:	189a      	adds	r2, r3, r2
10003182:	6811      	ldr	r1, [r2, #0]
10003184:	2240      	movs	r2, #64	@ 0x40
10003186:	4051      	eors	r1, r2
10003188:	3280      	adds	r2, #128	@ 0x80
1000318a:	400a      	ands	r2, r1
1000318c:	4905      	ldr	r1, [pc, #20]	@ (100031a4 <gpio_init+0x34>)
1000318e:	00c0      	lsls	r0, r0, #3
10003190:	185b      	adds	r3, r3, r1
10003192:	601a      	str	r2, [r3, #0]
10003194:	4b04      	ldr	r3, [pc, #16]	@ (100031a8 <gpio_init+0x38>)
10003196:	18c0      	adds	r0, r0, r3
10003198:	2305      	movs	r3, #5
1000319a:	6043      	str	r3, [r0, #4]
1000319c:	4770      	bx	lr
1000319e:	46c0      	nop			@ (mov r8, r8)
100031a0:	4001c004 	.word	0x4001c004
100031a4:	4001d004 	.word	0x4001d004
100031a8:	40014000 	.word	0x40014000

100031ac <rp2040_chip_version>:
100031ac:	2380      	movs	r3, #128	@ 0x80
100031ae:	05db      	lsls	r3, r3, #23
100031b0:	6818      	ldr	r0, [r3, #0]
100031b2:	0f00      	lsrs	r0, r0, #28
100031b4:	4770      	bx	lr
100031b6:	46c0      	nop			@ (mov r8, r8)

100031b8 <panic>:
100031b8:	b40f      	push	{r0, r1, r2, r3}
100031ba:	b500      	push	{lr}
100031bc:	4808      	ldr	r0, [pc, #32]	@ (100031e0 <panic+0x28>)
100031be:	b083      	sub	sp, #12
100031c0:	f003 ff5e 	bl	10007080 <__wrap_puts>
100031c4:	9b04      	ldr	r3, [sp, #16]
100031c6:	2b00      	cmp	r3, #0
100031c8:	d007      	beq.n	100031da <panic+0x22>
100031ca:	a905      	add	r1, sp, #20
100031cc:	0018      	movs	r0, r3
100031ce:	9101      	str	r1, [sp, #4]
100031d0:	f003 fdc0 	bl	10006d54 <weak_raw_vprintf>
100031d4:	4803      	ldr	r0, [pc, #12]	@ (100031e4 <panic+0x2c>)
100031d6:	f003 ff53 	bl	10007080 <__wrap_puts>
100031da:	2001      	movs	r0, #1
100031dc:	f003 fdd2 	bl	10006d84 <_exit>
100031e0:	1000ada8 	.word	0x1000ada8
100031e4:	1000adb8 	.word	0x1000adb8

100031e8 <hw_claim_lock>:
100031e8:	f3ef 8010 	mrs	r0, PRIMASK
100031ec:	b672      	cpsid	i
100031ee:	4a03      	ldr	r2, [pc, #12]	@ (100031fc <hw_claim_lock+0x14>)
100031f0:	6813      	ldr	r3, [r2, #0]
100031f2:	2b00      	cmp	r3, #0
100031f4:	d0fc      	beq.n	100031f0 <hw_claim_lock+0x8>
100031f6:	f3bf 8f5f 	dmb	sy
100031fa:	4770      	bx	lr
100031fc:	d000012c 	.word	0xd000012c

10003200 <hw_claim_unlock>:
10003200:	f3bf 8f5f 	dmb	sy
10003204:	2200      	movs	r2, #0
10003206:	4b02      	ldr	r3, [pc, #8]	@ (10003210 <hw_claim_unlock+0x10>)
10003208:	601a      	str	r2, [r3, #0]
1000320a:	f380 8810 	msr	PRIMASK, r0
1000320e:	4770      	bx	lr
10003210:	d000012c 	.word	0xd000012c

10003214 <hw_claim_or_assert>:
10003214:	b570      	push	{r4, r5, r6, lr}
10003216:	468c      	mov	ip, r1
10003218:	0016      	movs	r6, r2
1000321a:	f3ef 8410 	mrs	r4, PRIMASK
1000321e:	b672      	cpsid	i
10003220:	490f      	ldr	r1, [pc, #60]	@ (10003260 <hw_claim_or_assert+0x4c>)
10003222:	680b      	ldr	r3, [r1, #0]
10003224:	2b00      	cmp	r3, #0
10003226:	d0fc      	beq.n	10003222 <hw_claim_or_assert+0xe>
10003228:	f3bf 8f5f 	dmb	sy
1000322c:	4663      	mov	r3, ip
1000322e:	08db      	lsrs	r3, r3, #3
10003230:	18c5      	adds	r5, r0, r3
10003232:	2207      	movs	r2, #7
10003234:	5cc0      	ldrb	r0, [r0, r3]
10003236:	4663      	mov	r3, ip
10003238:	401a      	ands	r2, r3
1000323a:	2301      	movs	r3, #1
1000323c:	4093      	lsls	r3, r2
1000323e:	001a      	movs	r2, r3
10003240:	4002      	ands	r2, r0
10003242:	4203      	tst	r3, r0
10003244:	d107      	bne.n	10003256 <hw_claim_or_assert+0x42>
10003246:	4318      	orrs	r0, r3
10003248:	7028      	strb	r0, [r5, #0]
1000324a:	f3bf 8f5f 	dmb	sy
1000324e:	600a      	str	r2, [r1, #0]
10003250:	f384 8810 	msr	PRIMASK, r4
10003254:	bd70      	pop	{r4, r5, r6, pc}
10003256:	4661      	mov	r1, ip
10003258:	0030      	movs	r0, r6
1000325a:	f7ff ffad 	bl	100031b8 <panic>
1000325e:	46c0      	nop			@ (mov r8, r8)
10003260:	d000012c 	.word	0xd000012c

10003264 <hw_claim_unused_from_range>:
10003264:	b5f8      	push	{r3, r4, r5, r6, r7, lr}
10003266:	46ce      	mov	lr, r9
10003268:	4647      	mov	r7, r8
1000326a:	468c      	mov	ip, r1
1000326c:	b580      	push	{r7, lr}
1000326e:	001c      	movs	r4, r3
10003270:	f3ef 8810 	mrs	r8, PRIMASK
10003274:	b672      	cpsid	i
10003276:	491c      	ldr	r1, [pc, #112]	@ (100032e8 <hw_claim_unused_from_range+0x84>)
10003278:	680b      	ldr	r3, [r1, #0]
1000327a:	2b00      	cmp	r3, #0
1000327c:	d0fc      	beq.n	10003278 <hw_claim_unused_from_range+0x14>
1000327e:	f3bf 8f5f 	dmb	sy
10003282:	42a2      	cmp	r2, r4
10003284:	d821      	bhi.n	100032ca <hw_claim_unused_from_range+0x66>
10003286:	2307      	movs	r3, #7
10003288:	4699      	mov	r9, r3
1000328a:	e002      	b.n	10003292 <hw_claim_unused_from_range+0x2e>
1000328c:	3201      	adds	r2, #1
1000328e:	4294      	cmp	r4, r2
10003290:	d318      	bcc.n	100032c4 <hw_claim_unused_from_range+0x60>
10003292:	4649      	mov	r1, r9
10003294:	2601      	movs	r6, #1
10003296:	4011      	ands	r1, r2
10003298:	408e      	lsls	r6, r1
1000329a:	08d3      	lsrs	r3, r2, #3
1000329c:	18c7      	adds	r7, r0, r3
1000329e:	5cc3      	ldrb	r3, [r0, r3]
100032a0:	421e      	tst	r6, r3
100032a2:	d1f3      	bne.n	1000328c <hw_claim_unused_from_range+0x28>
100032a4:	0010      	movs	r0, r2
100032a6:	4333      	orrs	r3, r6
100032a8:	703b      	strb	r3, [r7, #0]
100032aa:	f3bf 8f5f 	dmb	sy
100032ae:	2200      	movs	r2, #0
100032b0:	4b0d      	ldr	r3, [pc, #52]	@ (100032e8 <hw_claim_unused_from_range+0x84>)
100032b2:	601a      	str	r2, [r3, #0]
100032b4:	f388 8810 	msr	PRIMASK, r8
100032b8:	2800      	cmp	r0, #0
100032ba:	db0e      	blt.n	100032da <hw_claim_unused_from_range+0x76>
100032bc:	bcc0      	pop	{r6, r7}
100032be:	46b9      	mov	r9, r7
100032c0:	46b0      	mov	r8, r6
100032c2:	bdf8      	pop	{r3, r4, r5, r6, r7, pc}
100032c4:	2001      	movs	r0, #1
100032c6:	4240      	negs	r0, r0
100032c8:	e7ef      	b.n	100032aa <hw_claim_unused_from_range+0x46>
100032ca:	f3bf 8f5f 	dmb	sy
100032ce:	2300      	movs	r3, #0
100032d0:	600b      	str	r3, [r1, #0]
100032d2:	f388 8810 	msr	PRIMASK, r8
100032d6:	2001      	movs	r0, #1
100032d8:	4240      	negs	r0, r0
100032da:	4663      	mov	r3, ip
100032dc:	2b00      	cmp	r3, #0
100032de:	d0ed      	beq.n	100032bc <hw_claim_unused_from_range+0x58>
100032e0:	9808      	ldr	r0, [sp, #32]
100032e2:	f7ff ff69 	bl	100031b8 <panic>
100032e6:	46c0      	nop			@ (mov r8, r8)
100032e8:	d000012c 	.word	0xd000012c

100032ec <next_striped_spin_lock_num>:
100032ec:	4a04      	ldr	r2, [pc, #16]	@ (10003300 <next_striped_spin_lock_num+0x14>)
100032ee:	7810      	ldrb	r0, [r2, #0]
100032f0:	1c43      	adds	r3, r0, #1
100032f2:	b2db      	uxtb	r3, r3
100032f4:	2b17      	cmp	r3, #23
100032f6:	d900      	bls.n	100032fa <next_striped_spin_lock_num+0xe>
100032f8:	2310      	movs	r3, #16
100032fa:	7013      	strb	r3, [r2, #0]
100032fc:	4770      	bx	lr
100032fe:	46c0      	nop			@ (mov r8, r8)
10003300:	20000fa9 	.word	0x20000fa9

10003304 <spin_lock_claim_unused>:
10003304:	b500      	push	{lr}
10003306:	4b05      	ldr	r3, [pc, #20]	@ (1000331c <spin_lock_claim_unused+0x18>)
10003308:	b083      	sub	sp, #12
1000330a:	0001      	movs	r1, r0
1000330c:	9300      	str	r3, [sp, #0]
1000330e:	2218      	movs	r2, #24
10003310:	231f      	movs	r3, #31
10003312:	4803      	ldr	r0, [pc, #12]	@ (10003320 <spin_lock_claim_unused+0x1c>)
10003314:	f7ff ffa6 	bl	10003264 <hw_claim_unused_from_range>
10003318:	b003      	add	sp, #12
1000331a:	bd00      	pop	{pc}
1000331c:	1000adbc 	.word	0x1000adbc
10003320:	20004a64 	.word	0x20004a64

10003324 <spin_locks_reset>:
10003324:	2100      	movs	r1, #0
10003326:	4b04      	ldr	r3, [pc, #16]	@ (10003338 <spin_locks_reset+0x14>)
10003328:	4a04      	ldr	r2, [pc, #16]	@ (1000333c <spin_locks_reset+0x18>)
1000332a:	f3bf 8f5f 	dmb	sy
1000332e:	c302      	stmia	r3!, {r1}
10003330:	4293      	cmp	r3, r2
10003332:	d1fa      	bne.n	1000332a <spin_locks_reset+0x6>
10003334:	4770      	bx	lr
10003336:	46c0      	nop			@ (mov r8, r8)
10003338:	d0000100 	.word	0xd0000100
1000333c:	d0000180 	.word	0xd0000180

10003340 <runtime_init_per_core_irq_priorities>:
10003340:	4b08      	ldr	r3, [pc, #32]	@ (10003364 <runtime_init_per_core_irq_priorities+0x24>)
10003342:	4a09      	ldr	r2, [pc, #36]	@ (10003368 <runtime_init_per_core_irq_priorities+0x28>)
10003344:	6013      	str	r3, [r2, #0]
10003346:	4a09      	ldr	r2, [pc, #36]	@ (1000336c <runtime_init_per_core_irq_priorities+0x2c>)
10003348:	6013      	str	r3, [r2, #0]
1000334a:	4a09      	ldr	r2, [pc, #36]	@ (10003370 <runtime_init_per_core_irq_priorities+0x30>)
1000334c:	6013      	str	r3, [r2, #0]
1000334e:	4a09      	ldr	r2, [pc, #36]	@ (10003374 <runtime_init_per_core_irq_priorities+0x34>)
10003350:	6013      	str	r3, [r2, #0]
10003352:	4a09      	ldr	r2, [pc, #36]	@ (10003378 <runtime_init_per_core_irq_priorities+0x38>)
10003354:	6013      	str	r3, [r2, #0]
10003356:	4a09      	ldr	r2, [pc, #36]	@ (1000337c <runtime_init_per_core_irq_priorities+0x3c>)
10003358:	6013      	str	r3, [r2, #0]
1000335a:	4a09      	ldr	r2, [pc, #36]	@ (10003380 <runtime_init_per_core_irq_priorities+0x40>)
1000335c:	6013      	str	r3, [r2, #0]
1000335e:	4a09      	ldr	r2, [pc, #36]	@ (10003384 <runtime_init_per_core_irq_priorities+0x44>)
10003360:	6013      	str	r3, [r2, #0]
10003362:	4770      	bx	lr
10003364:	80808080 	.word	0x80808080
10003368:	e000e400 	.word	0xe000e400
1000336c:	e000e404 	.word	0xe000e404
10003370:	e000e408 	.word	0xe000e408
10003374:	e000e40c 	.word	0xe000e40c
10003378:	e000e410 	.word	0xe000e410
1000337c:	e000e414 	.word	0xe000e414
10003380:	e000e418 	.word	0xe000e418
10003384:	e000e41c 	.word	0xe000e41c

10003388 <irq_set_enabled>:
10003388:	231f      	movs	r3, #31
1000338a:	4018      	ands	r0, r3
1000338c:	3b1e      	subs	r3, #30
1000338e:	4083      	lsls	r3, r0
10003390:	2900      	cmp	r1, #0
10003392:	d005      	beq.n	100033a0 <irq_set_enabled+0x18>
10003394:	21c0      	movs	r1, #192	@ 0xc0
10003396:	4a04      	ldr	r2, [pc, #16]	@ (100033a8 <irq_set_enabled+0x20>)
10003398:	0049      	lsls	r1, r1, #1
1000339a:	5053      	str	r3, [r2, r1]
1000339c:	6013      	str	r3, [r2, #0]
1000339e:	4770      	bx	lr
100033a0:	2280      	movs	r2, #128	@ 0x80
100033a2:	4901      	ldr	r1, [pc, #4]	@ (100033a8 <irq_set_enabled+0x20>)
100033a4:	508b      	str	r3, [r1, r2]
100033a6:	e7fa      	b.n	1000339e <irq_set_enabled+0x16>
100033a8:	e000e100 	.word	0xe000e100

100033ac <irq_is_enabled>:
100033ac:	2201      	movs	r2, #1
100033ae:	4082      	lsls	r2, r0
100033b0:	4b03      	ldr	r3, [pc, #12]	@ (100033c0 <irq_is_enabled+0x14>)
100033b2:	681b      	ldr	r3, [r3, #0]
100033b4:	4013      	ands	r3, r2
100033b6:	1e5a      	subs	r2, r3, #1
100033b8:	4193      	sbcs	r3, r2
100033ba:	b2d8      	uxtb	r0, r3
100033bc:	4770      	bx	lr
100033be:	46c0      	nop			@ (mov r8, r8)
100033c0:	e000e100 	.word	0xe000e100

100033c4 <irq_set_exclusive_handler>:
100033c4:	b570      	push	{r4, r5, r6, lr}
100033c6:	000d      	movs	r5, r1
100033c8:	f3ef 8610 	mrs	r6, PRIMASK
100033cc:	b672      	cpsid	i
100033ce:	4a0f      	ldr	r2, [pc, #60]	@ (1000340c <irq_set_exclusive_handler+0x48>)
100033d0:	6813      	ldr	r3, [r2, #0]
100033d2:	2b00      	cmp	r3, #0
100033d4:	d0fc      	beq.n	100033d0 <irq_set_exclusive_handler+0xc>
100033d6:	f3bf 8f5f 	dmb	sy
100033da:	4b0d      	ldr	r3, [pc, #52]	@ (10003410 <irq_set_exclusive_handler+0x4c>)
100033dc:	3010      	adds	r0, #16
100033de:	689b      	ldr	r3, [r3, #8]
100033e0:	0084      	lsls	r4, r0, #2
100033e2:	591b      	ldr	r3, [r3, r4]
100033e4:	4a0b      	ldr	r2, [pc, #44]	@ (10003414 <irq_set_exclusive_handler+0x50>)
100033e6:	4293      	cmp	r3, r2
100033e8:	d003      	beq.n	100033f2 <irq_set_exclusive_handler+0x2e>
100033ea:	429d      	cmp	r5, r3
100033ec:	d001      	beq.n	100033f2 <irq_set_exclusive_handler+0x2e>
100033ee:	f001 f8b3 	bl	10004558 <hard_assertion_failure>
100033f2:	4b07      	ldr	r3, [pc, #28]	@ (10003410 <irq_set_exclusive_handler+0x4c>)
100033f4:	689b      	ldr	r3, [r3, #8]
100033f6:	511d      	str	r5, [r3, r4]
100033f8:	f3bf 8f5f 	dmb	sy
100033fc:	f3bf 8f5f 	dmb	sy
10003400:	2200      	movs	r2, #0
10003402:	4b02      	ldr	r3, [pc, #8]	@ (1000340c <irq_set_exclusive_handler+0x48>)
10003404:	601a      	str	r2, [r3, #0]
10003406:	f386 8810 	msr	PRIMASK, r6
1000340a:	bd70      	pop	{r4, r5, r6, pc}
1000340c:	d0000124 	.word	0xd0000124
10003410:	e000ed00 	.word	0xe000ed00
10003414:	100001c1 	.word	0x100001c1

10003418 <irq_add_shared_handler>:
10003418:	b5f0      	push	{r4, r5, r6, r7, lr}
1000341a:	46de      	mov	lr, fp
1000341c:	4657      	mov	r7, sl
1000341e:	464e      	mov	r6, r9
10003420:	4645      	mov	r5, r8
10003422:	b5e0      	push	{r5, r6, r7, lr}
10003424:	4682      	mov	sl, r0
10003426:	b083      	sub	sp, #12
10003428:	468b      	mov	fp, r1
1000342a:	0017      	movs	r7, r2
1000342c:	f3ef 8810 	mrs	r8, PRIMASK
10003430:	b672      	cpsid	i
10003432:	4a60      	ldr	r2, [pc, #384]	@ (100035b4 <irq_add_shared_handler+0x19c>)
10003434:	6813      	ldr	r3, [r2, #0]
10003436:	2b00      	cmp	r3, #0
10003438:	d0fc      	beq.n	10003434 <irq_add_shared_handler+0x1c>
1000343a:	f3bf 8f5f 	dmb	sy
1000343e:	2500      	movs	r5, #0
10003440:	4b5d      	ldr	r3, [pc, #372]	@ (100035b8 <irq_add_shared_handler+0x1a0>)
10003442:	575d      	ldrsb	r5, [r3, r5]
10003444:	4699      	mov	r9, r3
10003446:	2d00      	cmp	r5, #0
10003448:	da00      	bge.n	1000344c <irq_add_shared_handler+0x34>
1000344a:	e09a      	b.n	10003582 <irq_add_shared_handler+0x16a>
1000344c:	464a      	mov	r2, r9
1000344e:	006b      	lsls	r3, r5, #1
10003450:	4c5a      	ldr	r4, [pc, #360]	@ (100035bc <irq_add_shared_handler+0x1a4>)
10003452:	195e      	adds	r6, r3, r5
10003454:	00b6      	lsls	r6, r6, #2
10003456:	9301      	str	r3, [sp, #4]
10003458:	19a3      	adds	r3, r4, r6
1000345a:	9300      	str	r3, [sp, #0]
1000345c:	799b      	ldrb	r3, [r3, #6]
1000345e:	7013      	strb	r3, [r2, #0]
10003460:	4b57      	ldr	r3, [pc, #348]	@ (100035c0 <irq_add_shared_handler+0x1a8>)
10003462:	689a      	ldr	r2, [r3, #8]
10003464:	4653      	mov	r3, sl
10003466:	3310      	adds	r3, #16
10003468:	009b      	lsls	r3, r3, #2
1000346a:	58d1      	ldr	r1, [r2, r3]
1000346c:	4699      	mov	r9, r3
1000346e:	1b0b      	subs	r3, r1, r4
10003470:	2b2f      	cmp	r3, #47	@ 0x2f
10003472:	d932      	bls.n	100034da <irq_add_shared_handler+0xc2>
10003474:	4b53      	ldr	r3, [pc, #332]	@ (100035c4 <irq_add_shared_handler+0x1ac>)
10003476:	4299      	cmp	r1, r3
10003478:	d000      	beq.n	1000347c <irq_add_shared_handler+0x64>
1000347a:	e098      	b.n	100035ae <irq_add_shared_handler+0x196>
1000347c:	9b01      	ldr	r3, [sp, #4]
1000347e:	3602      	adds	r6, #2
10003480:	18ed      	adds	r5, r5, r3
10003482:	4b51      	ldr	r3, [pc, #324]	@ (100035c8 <irq_add_shared_handler+0x1b0>)
10003484:	00ad      	lsls	r5, r5, #2
10003486:	5363      	strh	r3, [r4, r5]
10003488:	4b50      	ldr	r3, [pc, #320]	@ (100035cc <irq_add_shared_handler+0x1b4>)
1000348a:	19a6      	adds	r6, r4, r6
1000348c:	3b04      	subs	r3, #4
1000348e:	1b9b      	subs	r3, r3, r6
10003490:	4a4f      	ldr	r2, [pc, #316]	@ (100035d0 <irq_add_shared_handler+0x1b8>)
10003492:	051b      	lsls	r3, r3, #20
10003494:	0d5b      	lsrs	r3, r3, #21
10003496:	1965      	adds	r5, r4, r5
10003498:	4313      	orrs	r3, r2
1000349a:	806b      	strh	r3, [r5, #2]
1000349c:	4b4d      	ldr	r3, [pc, #308]	@ (100035d4 <irq_add_shared_handler+0x1bc>)
1000349e:	2101      	movs	r1, #1
100034a0:	80ab      	strh	r3, [r5, #4]
100034a2:	23ff      	movs	r3, #255	@ 0xff
100034a4:	71ab      	strb	r3, [r5, #6]
100034a6:	465b      	mov	r3, fp
100034a8:	60ab      	str	r3, [r5, #8]
100034aa:	9b00      	ldr	r3, [sp, #0]
100034ac:	71ef      	strb	r7, [r5, #7]
100034ae:	430b      	orrs	r3, r1
100034b0:	0019      	movs	r1, r3
100034b2:	464a      	mov	r2, r9
100034b4:	4b42      	ldr	r3, [pc, #264]	@ (100035c0 <irq_add_shared_handler+0x1a8>)
100034b6:	689b      	ldr	r3, [r3, #8]
100034b8:	5099      	str	r1, [r3, r2]
100034ba:	f3bf 8f5f 	dmb	sy
100034be:	f3bf 8f5f 	dmb	sy
100034c2:	2200      	movs	r2, #0
100034c4:	4b3b      	ldr	r3, [pc, #236]	@ (100035b4 <irq_add_shared_handler+0x19c>)
100034c6:	601a      	str	r2, [r3, #0]
100034c8:	f388 8810 	msr	PRIMASK, r8
100034cc:	b003      	add	sp, #12
100034ce:	bcf0      	pop	{r4, r5, r6, r7}
100034d0:	46bb      	mov	fp, r7
100034d2:	46b2      	mov	sl, r6
100034d4:	46a9      	mov	r9, r5
100034d6:	46a0      	mov	r8, r4
100034d8:	bdf0      	pop	{r4, r5, r6, r7, pc}
100034da:	2001      	movs	r0, #1
100034dc:	000a      	movs	r2, r1
100034de:	4382      	bics	r2, r0
100034e0:	79d3      	ldrb	r3, [r2, #7]
100034e2:	46b4      	mov	ip, r6
100034e4:	42bb      	cmp	r3, r7
100034e6:	d82d      	bhi.n	10003544 <irq_add_shared_handler+0x12c>
100034e8:	4b3b      	ldr	r3, [pc, #236]	@ (100035d8 <irq_add_shared_handler+0x1c0>)
100034ea:	1cb5      	adds	r5, r6, #2
100034ec:	0019      	movs	r1, r3
100034ee:	0013      	movs	r3, r2
100034f0:	1b1b      	subs	r3, r3, r4
100034f2:	415b      	adcs	r3, r3
100034f4:	4359      	muls	r1, r3
100034f6:	0d09      	lsrs	r1, r1, #20
100034f8:	468c      	mov	ip, r1
100034fa:	4b33      	ldr	r3, [pc, #204]	@ (100035c8 <irq_add_shared_handler+0x1b0>)
100034fc:	1965      	adds	r5, r4, r5
100034fe:	53a3      	strh	r3, [r4, r6]
10003500:	4b32      	ldr	r3, [pc, #200]	@ (100035cc <irq_add_shared_handler+0x1b4>)
10003502:	9900      	ldr	r1, [sp, #0]
10003504:	3b04      	subs	r3, #4
10003506:	1b5b      	subs	r3, r3, r5
10003508:	051b      	lsls	r3, r3, #20
1000350a:	4d31      	ldr	r5, [pc, #196]	@ (100035d0 <irq_add_shared_handler+0x1b8>)
1000350c:	0d5b      	lsrs	r3, r3, #21
1000350e:	432b      	orrs	r3, r5
10003510:	3604      	adds	r6, #4
10003512:	804b      	strh	r3, [r1, #2]
10003514:	19a6      	adds	r6, r4, r6
10003516:	1f13      	subs	r3, r2, #4
10003518:	1b9b      	subs	r3, r3, r6
1000351a:	051b      	lsls	r3, r3, #20
1000351c:	0d5b      	lsrs	r3, r3, #21
1000351e:	431d      	orrs	r5, r3
10003520:	4663      	mov	r3, ip
10003522:	718b      	strb	r3, [r1, #6]
10003524:	465b      	mov	r3, fp
10003526:	608b      	str	r3, [r1, #8]
10003528:	4b2c      	ldr	r3, [pc, #176]	@ (100035dc <irq_add_shared_handler+0x1c4>)
1000352a:	808d      	strh	r5, [r1, #4]
1000352c:	71cf      	strb	r7, [r1, #7]
1000352e:	6013      	str	r3, [r2, #0]
10003530:	4301      	orrs	r1, r0
10003532:	e7be      	b.n	100034b2 <irq_add_shared_handler+0x9a>
10003534:	0058      	lsls	r0, r3, #1
10003536:	18c0      	adds	r0, r0, r3
10003538:	0080      	lsls	r0, r0, #2
1000353a:	1820      	adds	r0, r4, r0
1000353c:	79c6      	ldrb	r6, [r0, #7]
1000353e:	42be      	cmp	r6, r7
10003540:	d925      	bls.n	1000358e <irq_add_shared_handler+0x176>
10003542:	0002      	movs	r2, r0
10003544:	2306      	movs	r3, #6
10003546:	56d3      	ldrsb	r3, [r2, r3]
10003548:	2b00      	cmp	r3, #0
1000354a:	daf3      	bge.n	10003534 <irq_add_shared_handler+0x11c>
1000354c:	469a      	mov	sl, r3
1000354e:	1d13      	adds	r3, r2, #4
10003550:	469c      	mov	ip, r3
10003552:	4823      	ldr	r0, [pc, #140]	@ (100035e0 <irq_add_shared_handler+0x1c8>)
10003554:	4663      	mov	r3, ip
10003556:	9e00      	ldr	r6, [sp, #0]
10003558:	7195      	strb	r5, [r2, #6]
1000355a:	3e04      	subs	r6, #4
1000355c:	1af6      	subs	r6, r6, r3
1000355e:	0536      	lsls	r6, r6, #20
10003560:	4b1b      	ldr	r3, [pc, #108]	@ (100035d0 <irq_add_shared_handler+0x1b8>)
10003562:	0d76      	lsrs	r6, r6, #21
10003564:	431e      	orrs	r6, r3
10003566:	9b01      	ldr	r3, [sp, #4]
10003568:	8096      	strh	r6, [r2, #4]
1000356a:	195a      	adds	r2, r3, r5
1000356c:	4653      	mov	r3, sl
1000356e:	0092      	lsls	r2, r2, #2
10003570:	18a4      	adds	r4, r4, r2
10003572:	71a3      	strb	r3, [r4, #6]
10003574:	465b      	mov	r3, fp
10003576:	4a19      	ldr	r2, [pc, #100]	@ (100035dc <irq_add_shared_handler+0x1c4>)
10003578:	80a0      	strh	r0, [r4, #4]
1000357a:	6022      	str	r2, [r4, #0]
1000357c:	71e7      	strb	r7, [r4, #7]
1000357e:	60a3      	str	r3, [r4, #8]
10003580:	e797      	b.n	100034b2 <irq_add_shared_handler+0x9a>
10003582:	f000 ffe9 	bl	10004558 <hard_assertion_failure>
10003586:	2500      	movs	r5, #0
10003588:	464b      	mov	r3, r9
1000358a:	575d      	ldrsb	r5, [r3, r5]
1000358c:	e75e      	b.n	1000344c <irq_add_shared_handler+0x34>
1000358e:	4666      	mov	r6, ip
10003590:	469a      	mov	sl, r3
10003592:	1d13      	adds	r3, r2, #4
10003594:	469c      	mov	ip, r3
10003596:	8890      	ldrh	r0, [r2, #4]
10003598:	3604      	adds	r6, #4
1000359a:	0540      	lsls	r0, r0, #21
1000359c:	1500      	asrs	r0, r0, #20
1000359e:	19a6      	adds	r6, r4, r6
100035a0:	4460      	add	r0, ip
100035a2:	1b80      	subs	r0, r0, r6
100035a4:	0500      	lsls	r0, r0, #20
100035a6:	4e0a      	ldr	r6, [pc, #40]	@ (100035d0 <irq_add_shared_handler+0x1b8>)
100035a8:	0d40      	lsrs	r0, r0, #21
100035aa:	4330      	orrs	r0, r6
100035ac:	e7d2      	b.n	10003554 <irq_add_shared_handler+0x13c>
100035ae:	f000 ffd3 	bl	10004558 <hard_assertion_failure>
100035b2:	e763      	b.n	1000347c <irq_add_shared_handler+0x64>
100035b4:	d0000124 	.word	0xd0000124
100035b8:	2000f071 	.word	0x2000f071
100035bc:	20000fac 	.word	0x20000fac
100035c0:	e000ed00 	.word	0xe000ed00
100035c4:	100001c1 	.word	0x100001c1
100035c8:	ffffa100 	.word	0xffffa100
100035cc:	20000fdc 	.word	0x20000fdc
100035d0:	ffffe000 	.word	0xffffe000
100035d4:	ffffbd01 	.word	0xffffbd01
100035d8:	0000aaaa 	.word	0x0000aaaa
100035dc:	47804801 	.word	0x47804801
100035e0:	0000bd01 	.word	0x0000bd01

100035e4 <irq_remove_handler>:
100035e4:	b5f0      	push	{r4, r5, r6, r7, lr}
100035e6:	4645      	mov	r5, r8
100035e8:	46de      	mov	lr, fp
100035ea:	4657      	mov	r7, sl
100035ec:	464e      	mov	r6, r9
100035ee:	b5e0      	push	{r5, r6, r7, lr}
100035f0:	000d      	movs	r5, r1
100035f2:	b083      	sub	sp, #12
100035f4:	f3ef 8810 	mrs	r8, PRIMASK
100035f8:	b672      	cpsid	i
100035fa:	4a60      	ldr	r2, [pc, #384]	@ (1000377c <irq_remove_handler+0x198>)
100035fc:	6813      	ldr	r3, [r2, #0]
100035fe:	2b00      	cmp	r3, #0
10003600:	d0fc      	beq.n	100035fc <irq_remove_handler+0x18>
10003602:	f3bf 8f5f 	dmb	sy
10003606:	4b5e      	ldr	r3, [pc, #376]	@ (10003780 <irq_remove_handler+0x19c>)
10003608:	495e      	ldr	r1, [pc, #376]	@ (10003784 <irq_remove_handler+0x1a0>)
1000360a:	689a      	ldr	r2, [r3, #8]
1000360c:	0003      	movs	r3, r0
1000360e:	3310      	adds	r3, #16
10003610:	009f      	lsls	r7, r3, #2
10003612:	59d4      	ldr	r4, [r2, r7]
10003614:	4699      	mov	r9, r3
10003616:	428c      	cmp	r4, r1
10003618:	d03e      	beq.n	10003698 <irq_remove_handler+0xb4>
1000361a:	42ac      	cmp	r4, r5
1000361c:	d04f      	beq.n	100036be <irq_remove_handler+0xda>
1000361e:	4e5a      	ldr	r6, [pc, #360]	@ (10003788 <irq_remove_handler+0x1a4>)
10003620:	1ba2      	subs	r2, r4, r6
10003622:	2a2f      	cmp	r2, #47	@ 0x2f
10003624:	d838      	bhi.n	10003698 <irq_remove_handler+0xb4>
10003626:	4b59      	ldr	r3, [pc, #356]	@ (1000378c <irq_remove_handler+0x1a8>)
10003628:	681a      	ldr	r2, [r3, #0]
1000362a:	469c      	mov	ip, r3
1000362c:	0013      	movs	r3, r2
1000362e:	2201      	movs	r2, #1
10003630:	4082      	lsls	r2, r0
10003632:	4013      	ands	r3, r2
10003634:	221f      	movs	r2, #31
10003636:	4002      	ands	r2, r0
10003638:	2001      	movs	r0, #1
1000363a:	469a      	mov	sl, r3
1000363c:	4090      	lsls	r0, r2
1000363e:	4663      	mov	r3, ip
10003640:	2280      	movs	r2, #128	@ 0x80
10003642:	4683      	mov	fp, r0
10003644:	5098      	str	r0, [r3, r2]
10003646:	f3bf 8f5f 	dmb	sy
1000364a:	f3ef 8305 	mrs	r3, IPSR
1000364e:	9301      	str	r3, [sp, #4]
10003650:	2b00      	cmp	r3, #0
10003652:	d036      	beq.n	100036c2 <irq_remove_handler+0xde>
10003654:	4599      	cmp	r9, r3
10003656:	d001      	beq.n	1000365c <irq_remove_handler+0x78>
10003658:	f000 ff7e 	bl	10004558 <hard_assertion_failure>
1000365c:	2301      	movs	r3, #1
1000365e:	0022      	movs	r2, r4
10003660:	439a      	bics	r2, r3
10003662:	6890      	ldr	r0, [r2, #8]
10003664:	4285      	cmp	r5, r0
10003666:	d108      	bne.n	1000367a <irq_remove_handler+0x96>
10003668:	e076      	b.n	10003758 <irq_remove_handler+0x174>
1000366a:	004b      	lsls	r3, r1, #1
1000366c:	185b      	adds	r3, r3, r1
1000366e:	009b      	lsls	r3, r3, #2
10003670:	18f3      	adds	r3, r6, r3
10003672:	6898      	ldr	r0, [r3, #8]
10003674:	4285      	cmp	r5, r0
10003676:	d036      	beq.n	100036e6 <irq_remove_handler+0x102>
10003678:	001a      	movs	r2, r3
1000367a:	2106      	movs	r1, #6
1000367c:	5651      	ldrsb	r1, [r2, r1]
1000367e:	2900      	cmp	r1, #0
10003680:	daf3      	bge.n	1000366a <irq_remove_handler+0x86>
10003682:	4285      	cmp	r5, r0
10003684:	d054      	beq.n	10003730 <irq_remove_handler+0x14c>
10003686:	4653      	mov	r3, sl
10003688:	2b00      	cmp	r3, #0
1000368a:	d027      	beq.n	100036dc <irq_remove_handler+0xf8>
1000368c:	22c0      	movs	r2, #192	@ 0xc0
1000368e:	4659      	mov	r1, fp
10003690:	4b3e      	ldr	r3, [pc, #248]	@ (1000378c <irq_remove_handler+0x1a8>)
10003692:	0052      	lsls	r2, r2, #1
10003694:	5099      	str	r1, [r3, r2]
10003696:	6019      	str	r1, [r3, #0]
10003698:	4b39      	ldr	r3, [pc, #228]	@ (10003780 <irq_remove_handler+0x19c>)
1000369a:	689b      	ldr	r3, [r3, #8]
1000369c:	51dc      	str	r4, [r3, r7]
1000369e:	f3bf 8f5f 	dmb	sy
100036a2:	f3bf 8f5f 	dmb	sy
100036a6:	2200      	movs	r2, #0
100036a8:	4b34      	ldr	r3, [pc, #208]	@ (1000377c <irq_remove_handler+0x198>)
100036aa:	601a      	str	r2, [r3, #0]
100036ac:	f388 8810 	msr	PRIMASK, r8
100036b0:	b003      	add	sp, #12
100036b2:	bcf0      	pop	{r4, r5, r6, r7}
100036b4:	46bb      	mov	fp, r7
100036b6:	46b2      	mov	sl, r6
100036b8:	46a9      	mov	r9, r5
100036ba:	46a0      	mov	r8, r4
100036bc:	bdf0      	pop	{r4, r5, r6, r7, pc}
100036be:	000c      	movs	r4, r1
100036c0:	e7ea      	b.n	10003698 <irq_remove_handler+0xb4>
100036c2:	0022      	movs	r2, r4
100036c4:	3301      	adds	r3, #1
100036c6:	439a      	bics	r2, r3
100036c8:	6890      	ldr	r0, [r2, #8]
100036ca:	4285      	cmp	r5, r0
100036cc:	d1d5      	bne.n	1000367a <irq_remove_handler+0x96>
100036ce:	2006      	movs	r0, #6
100036d0:	5610      	ldrsb	r0, [r2, r0]
100036d2:	0013      	movs	r3, r2
100036d4:	2800      	cmp	r0, #0
100036d6:	da0a      	bge.n	100036ee <irq_remove_handler+0x10a>
100036d8:	000c      	movs	r4, r1
100036da:	e031      	b.n	10003740 <irq_remove_handler+0x15c>
100036dc:	2380      	movs	r3, #128	@ 0x80
100036de:	4659      	mov	r1, fp
100036e0:	4a2a      	ldr	r2, [pc, #168]	@ (1000378c <irq_remove_handler+0x1a8>)
100036e2:	50d1      	str	r1, [r2, r3]
100036e4:	e7d8      	b.n	10003698 <irq_remove_handler+0xb4>
100036e6:	2006      	movs	r0, #6
100036e8:	5618      	ldrsb	r0, [r3, r0]
100036ea:	2800      	cmp	r0, #0
100036ec:	db21      	blt.n	10003732 <irq_remove_handler+0x14e>
100036ee:	0042      	lsls	r2, r0, #1
100036f0:	1811      	adds	r1, r2, r0
100036f2:	0089      	lsls	r1, r1, #2
100036f4:	1875      	adds	r5, r6, r1
100036f6:	4689      	mov	r9, r1
100036f8:	68a9      	ldr	r1, [r5, #8]
100036fa:	6099      	str	r1, [r3, #8]
100036fc:	79e9      	ldrb	r1, [r5, #7]
100036fe:	71d9      	strb	r1, [r3, #7]
10003700:	2106      	movs	r1, #6
10003702:	5669      	ldrsb	r1, [r5, r1]
10003704:	7199      	strb	r1, [r3, #6]
10003706:	2900      	cmp	r1, #0
10003708:	db24      	blt.n	10003754 <irq_remove_handler+0x170>
1000370a:	88ad      	ldrh	r5, [r5, #4]
1000370c:	1af1      	subs	r1, r6, r3
1000370e:	056d      	lsls	r5, r5, #21
10003710:	152d      	asrs	r5, r5, #20
10003712:	444d      	add	r5, r9
10003714:	1949      	adds	r1, r1, r5
10003716:	0509      	lsls	r1, r1, #20
10003718:	4d1d      	ldr	r5, [pc, #116]	@ (10003790 <irq_remove_handler+0x1ac>)
1000371a:	0d49      	lsrs	r1, r1, #21
1000371c:	4329      	orrs	r1, r5
1000371e:	8099      	strh	r1, [r3, #4]
10003720:	1813      	adds	r3, r2, r0
10003722:	4a1c      	ldr	r2, [pc, #112]	@ (10003794 <irq_remove_handler+0x1b0>)
10003724:	009b      	lsls	r3, r3, #2
10003726:	7811      	ldrb	r1, [r2, #0]
10003728:	18f3      	adds	r3, r6, r3
1000372a:	7199      	strb	r1, [r3, #6]
1000372c:	7010      	strb	r0, [r2, #0]
1000372e:	e7aa      	b.n	10003686 <irq_remove_handler+0xa2>
10003730:	0013      	movs	r3, r2
10003732:	9901      	ldr	r1, [sp, #4]
10003734:	2900      	cmp	r1, #0
10003736:	d114      	bne.n	10003762 <irq_remove_handler+0x17e>
10003738:	31ff      	adds	r1, #255	@ 0xff
1000373a:	7191      	strb	r1, [r2, #6]
1000373c:	4916      	ldr	r1, [pc, #88]	@ (10003798 <irq_remove_handler+0x1b4>)
1000373e:	8091      	strh	r1, [r2, #4]
10003740:	4914      	ldr	r1, [pc, #80]	@ (10003794 <irq_remove_handler+0x1b0>)
10003742:	780a      	ldrb	r2, [r1, #0]
10003744:	719a      	strb	r2, [r3, #6]
10003746:	4a15      	ldr	r2, [pc, #84]	@ (1000379c <irq_remove_handler+0x1b8>)
10003748:	1b9b      	subs	r3, r3, r6
1000374a:	415b      	adcs	r3, r3
1000374c:	435a      	muls	r2, r3
1000374e:	0d12      	lsrs	r2, r2, #20
10003750:	700a      	strb	r2, [r1, #0]
10003752:	e798      	b.n	10003686 <irq_remove_handler+0xa2>
10003754:	4910      	ldr	r1, [pc, #64]	@ (10003798 <irq_remove_handler+0x1b4>)
10003756:	e7e2      	b.n	1000371e <irq_remove_handler+0x13a>
10003758:	2006      	movs	r0, #6
1000375a:	5610      	ldrsb	r0, [r2, r0]
1000375c:	0013      	movs	r3, r2
1000375e:	2800      	cmp	r0, #0
10003760:	dac5      	bge.n	100036ee <irq_remove_handler+0x10a>
10003762:	4a0f      	ldr	r2, [pc, #60]	@ (100037a0 <irq_remove_handler+0x1bc>)
10003764:	490f      	ldr	r1, [pc, #60]	@ (100037a4 <irq_remove_handler+0x1c0>)
10003766:	1ad2      	subs	r2, r2, r3
10003768:	3a08      	subs	r2, #8
1000376a:	0250      	lsls	r0, r2, #9
1000376c:	0d40      	lsrs	r0, r0, #21
1000376e:	4301      	orrs	r1, r0
10003770:	8099      	strh	r1, [r3, #4]
10003772:	490d      	ldr	r1, [pc, #52]	@ (100037a8 <irq_remove_handler+0x1c4>)
10003774:	0852      	lsrs	r2, r2, #1
10003776:	430a      	orrs	r2, r1
10003778:	80da      	strh	r2, [r3, #6]
1000377a:	e784      	b.n	10003686 <irq_remove_handler+0xa2>
1000377c:	d0000124 	.word	0xd0000124
10003780:	e000ed00 	.word	0xe000ed00
10003784:	100001c1 	.word	0x100001c1
10003788:	20000fac 	.word	0x20000fac
1000378c:	e000e100 	.word	0xe000e100
10003790:	ffffe000 	.word	0xffffe000
10003794:	2000f071 	.word	0x2000f071
10003798:	ffffbd01 	.word	0xffffbd01
1000379c:	0000aaaa 	.word	0x0000aaaa
100037a0:	20000fe6 	.word	0x20000fe6
100037a4:	fffff000 	.word	0xfffff000
100037a8:	fffff800 	.word	0xfffff800

100037ac <irq_add_tail_to_free_list>:
100037ac:	2301      	movs	r3, #1
100037ae:	4303      	orrs	r3, r0
100037b0:	b570      	push	{r4, r5, r6, lr}
100037b2:	469c      	mov	ip, r3
100037b4:	f3ef 8105 	mrs	r1, IPSR
100037b8:	f3ef 8510 	mrs	r5, PRIMASK
100037bc:	b672      	cpsid	i
100037be:	4a21      	ldr	r2, [pc, #132]	@ (10003844 <irq_add_tail_to_free_list+0x98>)
100037c0:	6813      	ldr	r3, [r2, #0]
100037c2:	2b00      	cmp	r3, #0
100037c4:	d0fc      	beq.n	100037c0 <irq_add_tail_to_free_list+0x14>
100037c6:	f3bf 8f5f 	dmb	sy
100037ca:	4b1f      	ldr	r3, [pc, #124]	@ (10003848 <irq_add_tail_to_free_list+0x9c>)
100037cc:	0004      	movs	r4, r0
100037ce:	4a1f      	ldr	r2, [pc, #124]	@ (1000384c <irq_add_tail_to_free_list+0xa0>)
100037d0:	1ae4      	subs	r4, r4, r3
100037d2:	4164      	adcs	r4, r4
100037d4:	4362      	muls	r2, r4
100037d6:	0d12      	lsrs	r2, r2, #20
100037d8:	4c1d      	ldr	r4, [pc, #116]	@ (10003850 <irq_add_tail_to_free_list+0xa4>)
100037da:	0089      	lsls	r1, r1, #2
100037dc:	68a6      	ldr	r6, [r4, #8]
100037de:	b252      	sxtb	r2, r2
100037e0:	5876      	ldr	r6, [r6, r1]
100037e2:	4566      	cmp	r6, ip
100037e4:	d01c      	beq.n	10003820 <irq_add_tail_to_free_list+0x74>
100037e6:	2106      	movs	r1, #6
100037e8:	5659      	ldrsb	r1, [r3, r1]
100037ea:	4291      	cmp	r1, r2
100037ec:	d01c      	beq.n	10003828 <irq_add_tail_to_free_list+0x7c>
100037ee:	2112      	movs	r1, #18
100037f0:	5659      	ldrsb	r1, [r3, r1]
100037f2:	4291      	cmp	r1, r2
100037f4:	d022      	beq.n	1000383c <irq_add_tail_to_free_list+0x90>
100037f6:	211e      	movs	r1, #30
100037f8:	5659      	ldrsb	r1, [r3, r1]
100037fa:	4291      	cmp	r1, r2
100037fc:	d020      	beq.n	10003840 <irq_add_tail_to_free_list+0x94>
100037fe:	212a      	movs	r1, #42	@ 0x2a
10003800:	5659      	ldrsb	r1, [r3, r1]
10003802:	2403      	movs	r4, #3
10003804:	4291      	cmp	r1, r2
10003806:	d010      	beq.n	1000382a <irq_add_tail_to_free_list+0x7e>
10003808:	4b12      	ldr	r3, [pc, #72]	@ (10003854 <irq_add_tail_to_free_list+0xa8>)
1000380a:	7819      	ldrb	r1, [r3, #0]
1000380c:	701a      	strb	r2, [r3, #0]
1000380e:	7181      	strb	r1, [r0, #6]
10003810:	f3bf 8f5f 	dmb	sy
10003814:	2200      	movs	r2, #0
10003816:	4b0b      	ldr	r3, [pc, #44]	@ (10003844 <irq_add_tail_to_free_list+0x98>)
10003818:	601a      	str	r2, [r3, #0]
1000381a:	f385 8810 	msr	PRIMASK, r5
1000381e:	bd70      	pop	{r4, r5, r6, pc}
10003820:	68a3      	ldr	r3, [r4, #8]
10003822:	4c0d      	ldr	r4, [pc, #52]	@ (10003858 <irq_add_tail_to_free_list+0xac>)
10003824:	505c      	str	r4, [r3, r1]
10003826:	e7ef      	b.n	10003808 <irq_add_tail_to_free_list+0x5c>
10003828:	2400      	movs	r4, #0
1000382a:	0061      	lsls	r1, r4, #1
1000382c:	1909      	adds	r1, r1, r4
1000382e:	0089      	lsls	r1, r1, #2
10003830:	185b      	adds	r3, r3, r1
10003832:	21ff      	movs	r1, #255	@ 0xff
10003834:	7199      	strb	r1, [r3, #6]
10003836:	4909      	ldr	r1, [pc, #36]	@ (1000385c <irq_add_tail_to_free_list+0xb0>)
10003838:	8099      	strh	r1, [r3, #4]
1000383a:	e7e5      	b.n	10003808 <irq_add_tail_to_free_list+0x5c>
1000383c:	2401      	movs	r4, #1
1000383e:	e7f4      	b.n	1000382a <irq_add_tail_to_free_list+0x7e>
10003840:	2402      	movs	r4, #2
10003842:	e7f2      	b.n	1000382a <irq_add_tail_to_free_list+0x7e>
10003844:	d0000124 	.word	0xd0000124
10003848:	20000fac 	.word	0x20000fac
1000384c:	0000aaaa 	.word	0x0000aaaa
10003850:	e000ed00 	.word	0xe000ed00
10003854:	2000f071 	.word	0x2000f071
10003858:	100001c1 	.word	0x100001c1
1000385c:	ffffbd01 	.word	0xffffbd01

10003860 <lock_init>:
10003860:	4b02      	ldr	r3, [pc, #8]	@ (1000386c <lock_init+0xc>)
10003862:	18c9      	adds	r1, r1, r3
10003864:	0089      	lsls	r1, r1, #2
10003866:	6001      	str	r1, [r0, #0]
10003868:	4770      	bx	lr
1000386a:	46c0      	nop			@ (mov r8, r8)
1000386c:	34000040 	.word	0x34000040

10003870 <runtime_init_mutex>:
10003870:	b570      	push	{r4, r5, r6, lr}
10003872:	4c11      	ldr	r4, [pc, #68]	@ (100038b8 <runtime_init_mutex+0x48>)
10003874:	4d11      	ldr	r5, [pc, #68]	@ (100038bc <runtime_init_mutex+0x4c>)
10003876:	42ac      	cmp	r4, r5
10003878:	d20f      	bcs.n	1000389a <runtime_init_mutex+0x2a>
1000387a:	26ff      	movs	r6, #255	@ 0xff
1000387c:	6823      	ldr	r3, [r4, #0]
1000387e:	2b00      	cmp	r3, #0
10003880:	d00c      	beq.n	1000389c <runtime_init_mutex+0x2c>
10003882:	f7ff fd33 	bl	100032ec <next_striped_spin_lock_num>
10003886:	0001      	movs	r1, r0
10003888:	0020      	movs	r0, r4
1000388a:	f7ff ffe9 	bl	10003860 <lock_init>
1000388e:	80a6      	strh	r6, [r4, #4]
10003890:	f3bf 8f5f 	dmb	sy
10003894:	3408      	adds	r4, #8
10003896:	42ac      	cmp	r4, r5
10003898:	d3f0      	bcc.n	1000387c <runtime_init_mutex+0xc>
1000389a:	bd70      	pop	{r4, r5, r6, pc}
1000389c:	f7ff fd26 	bl	100032ec <next_striped_spin_lock_num>
100038a0:	0001      	movs	r1, r0
100038a2:	0020      	movs	r0, r4
100038a4:	f7ff ffdc 	bl	10003860 <lock_init>
100038a8:	7126      	strb	r6, [r4, #4]
100038aa:	f3bf 8f5f 	dmb	sy
100038ae:	3408      	adds	r4, #8
100038b0:	42ac      	cmp	r4, r5
100038b2:	d3e3      	bcc.n	1000387c <runtime_init_mutex+0xc>
100038b4:	e7f1      	b.n	1000389a <runtime_init_mutex+0x2a>
100038b6:	46c0      	nop			@ (mov r8, r8)
100038b8:	20001068 	.word	0x20001068
100038bc:	20001078 	.word	0x20001078

100038c0 <mutex_init>:
100038c0:	b510      	push	{r4, lr}
100038c2:	0004      	movs	r4, r0
100038c4:	f7ff fd12 	bl	100032ec <next_striped_spin_lock_num>
100038c8:	0001      	movs	r1, r0
100038ca:	0020      	movs	r0, r4
100038cc:	f7ff ffc8 	bl	10003860 <lock_init>
100038d0:	23ff      	movs	r3, #255	@ 0xff
100038d2:	7123      	strb	r3, [r4, #4]
100038d4:	f3bf 8f5f 	dmb	sy
100038d8:	bd10      	pop	{r4, pc}
100038da:	46c0      	nop			@ (mov r8, r8)

100038dc <critical_section_init>:
100038dc:	b510      	push	{r4, lr}
100038de:	0004      	movs	r4, r0
100038e0:	2001      	movs	r0, #1
100038e2:	f7ff fd0f 	bl	10003304 <spin_lock_claim_unused>
100038e6:	4b03      	ldr	r3, [pc, #12]	@ (100038f4 <critical_section_init+0x18>)
100038e8:	18c0      	adds	r0, r0, r3
100038ea:	0080      	lsls	r0, r0, #2
100038ec:	6020      	str	r0, [r4, #0]
100038ee:	f3bf 8f5f 	dmb	sy
100038f2:	bd10      	pop	{r4, pc}
100038f4:	34000040 	.word	0x34000040

100038f8 <sleep_until_callback>:
100038f8:	4b0a      	ldr	r3, [pc, #40]	@ (10003924 <sleep_until_callback+0x2c>)
100038fa:	6819      	ldr	r1, [r3, #0]
100038fc:	f3ef 8010 	mrs	r0, PRIMASK
10003900:	b672      	cpsid	i
10003902:	680a      	ldr	r2, [r1, #0]
10003904:	2a00      	cmp	r2, #0
10003906:	d0fc      	beq.n	10003902 <sleep_until_callback+0xa>
10003908:	f3bf 8f5f 	dmb	sy
1000390c:	681b      	ldr	r3, [r3, #0]
1000390e:	f3bf 8f5f 	dmb	sy
10003912:	2200      	movs	r2, #0
10003914:	601a      	str	r2, [r3, #0]
10003916:	f380 8810 	msr	PRIMASK, r0
1000391a:	bf40      	sev
1000391c:	2000      	movs	r0, #0
1000391e:	2100      	movs	r1, #0
10003920:	4770      	bx	lr
10003922:	46c0      	nop			@ (mov r8, r8)
10003924:	20006430 	.word	0x20006430

10003928 <alarm_pool_irq_handler>:
10003928:	b5f0      	push	{r4, r5, r6, r7, lr}
1000392a:	46de      	mov	lr, fp
1000392c:	4657      	mov	r7, sl
1000392e:	464e      	mov	r6, r9
10003930:	4645      	mov	r5, r8
10003932:	b5e0      	push	{r5, r6, r7, lr}
10003934:	b085      	sub	sp, #20
10003936:	f3ef 8305 	mrs	r3, IPSR
1000393a:	2203      	movs	r2, #3
1000393c:	401a      	ands	r2, r3
1000393e:	4bb3      	ldr	r3, [pc, #716]	@ (10003c0c <alarm_pool_irq_handler+0x2e4>)
10003940:	0091      	lsls	r1, r2, #2
10003942:	585f      	ldr	r7, [r3, r1]
10003944:	2301      	movs	r3, #1
10003946:	4093      	lsls	r3, r2
10003948:	469b      	mov	fp, r3
1000394a:	9202      	str	r2, [sp, #8]
1000394c:	465a      	mov	r2, fp
1000394e:	4688      	mov	r8, r1
10003950:	4baf      	ldr	r3, [pc, #700]	@ (10003c10 <alarm_pool_irq_handler+0x2e8>)
10003952:	601a      	str	r2, [r3, #0]
10003954:	4baf      	ldr	r3, [pc, #700]	@ (10003c14 <alarm_pool_irq_handler+0x2ec>)
10003956:	9303      	str	r3, [sp, #12]
10003958:	465b      	mov	r3, fp
1000395a:	48af      	ldr	r0, [pc, #700]	@ (10003c18 <alarm_pool_irq_handler+0x2f0>)
1000395c:	6343      	str	r3, [r0, #52]	@ 0x34
1000395e:	2308      	movs	r3, #8
10003960:	5efe      	ldrsh	r6, [r7, r3]
10003962:	2e00      	cmp	r6, #0
10003964:	da37      	bge.n	100039d6 <alarm_pool_irq_handler+0xae>
10003966:	88bb      	ldrh	r3, [r7, #4]
10003968:	b21b      	sxth	r3, r3
1000396a:	2b00      	cmp	r3, #0
1000396c:	db00      	blt.n	10003970 <alarm_pool_irq_handler+0x48>
1000396e:	e0a4      	b.n	10003aba <alarm_pool_irq_handler+0x192>
10003970:	79bb      	ldrb	r3, [r7, #6]
10003972:	2b00      	cmp	r3, #0
10003974:	d000      	beq.n	10003978 <alarm_pool_irq_handler+0x50>
10003976:	e0e5      	b.n	10003b44 <alarm_pool_irq_handler+0x21c>
10003978:	2308      	movs	r3, #8
1000397a:	5ef9      	ldrsh	r1, [r7, r3]
1000397c:	2900      	cmp	r1, #0
1000397e:	db20      	blt.n	100039c2 <alarm_pool_irq_handler+0x9a>
10003980:	004b      	lsls	r3, r1, #1
10003982:	697a      	ldr	r2, [r7, #20]
10003984:	185b      	adds	r3, r3, r1
10003986:	00db      	lsls	r3, r3, #3
10003988:	18d3      	adds	r3, r2, r3
1000398a:	689d      	ldr	r5, [r3, #8]
1000398c:	68dc      	ldr	r4, [r3, #12]
1000398e:	1c6b      	adds	r3, r5, #1
10003990:	d100      	bne.n	10003994 <alarm_pool_irq_handler+0x6c>
10003992:	e104      	b.n	10003b9e <alarm_pool_irq_handler+0x276>
10003994:	48a0      	ldr	r0, [pc, #640]	@ (10003c18 <alarm_pool_irq_handler+0x2f0>)
10003996:	0001      	movs	r1, r0
10003998:	4441      	add	r1, r8
1000399a:	6a82      	ldr	r2, [r0, #40]	@ 0x28
1000399c:	690b      	ldr	r3, [r1, #16]
1000399e:	1aae      	subs	r6, r5, r2
100039a0:	1a9b      	subs	r3, r3, r2
100039a2:	429e      	cmp	r6, r3
100039a4:	d315      	bcc.n	100039d2 <alarm_pool_irq_handler+0xaa>
100039a6:	2301      	movs	r3, #1
100039a8:	6a02      	ldr	r2, [r0, #32]
100039aa:	9802      	ldr	r0, [sp, #8]
100039ac:	4083      	lsls	r3, r0
100039ae:	421a      	tst	r2, r3
100039b0:	d00f      	beq.n	100039d2 <alarm_pool_irq_handler+0xaa>
100039b2:	4899      	ldr	r0, [pc, #612]	@ (10003c18 <alarm_pool_irq_handler+0x2f0>)
100039b4:	f000 fbba 	bl	1000412c <timer_time_us_64>
100039b8:	428c      	cmp	r4, r1
100039ba:	dc02      	bgt.n	100039c2 <alarm_pool_irq_handler+0x9a>
100039bc:	d1cc      	bne.n	10003958 <alarm_pool_irq_handler+0x30>
100039be:	4285      	cmp	r5, r0
100039c0:	d9ca      	bls.n	10003958 <alarm_pool_irq_handler+0x30>
100039c2:	bf40      	sev
100039c4:	b005      	add	sp, #20
100039c6:	bcf0      	pop	{r4, r5, r6, r7}
100039c8:	46bb      	mov	fp, r7
100039ca:	46b2      	mov	sl, r6
100039cc:	46a9      	mov	r9, r5
100039ce:	46a0      	mov	r8, r4
100039d0:	bdf0      	pop	{r4, r5, r6, r7, pc}
100039d2:	610d      	str	r5, [r1, #16]
100039d4:	e7ed      	b.n	100039b2 <alarm_pool_irq_handler+0x8a>
100039d6:	697a      	ldr	r2, [r7, #20]
100039d8:	0073      	lsls	r3, r6, #1
100039da:	4691      	mov	r9, r2
100039dc:	199b      	adds	r3, r3, r6
100039de:	00db      	lsls	r3, r3, #3
100039e0:	4499      	add	r9, r3
100039e2:	464b      	mov	r3, r9
100039e4:	689c      	ldr	r4, [r3, #8]
100039e6:	68dd      	ldr	r5, [r3, #12]
100039e8:	f000 fba0 	bl	1000412c <timer_time_us_64>
100039ec:	428d      	cmp	r5, r1
100039ee:	dcba      	bgt.n	10003966 <alarm_pool_irq_handler+0x3e>
100039f0:	d100      	bne.n	100039f4 <alarm_pool_irq_handler+0xcc>
100039f2:	e0f6      	b.n	10003be2 <alarm_pool_irq_handler+0x2ba>
100039f4:	2d00      	cmp	r5, #0
100039f6:	da00      	bge.n	100039fa <alarm_pool_irq_handler+0xd2>
100039f8:	e0db      	b.n	10003bb2 <alarm_pool_irq_handler+0x28a>
100039fa:	464a      	mov	r2, r9
100039fc:	464b      	mov	r3, r9
100039fe:	6952      	ldr	r2, [r2, #20]
10003a00:	691b      	ldr	r3, [r3, #16]
10003a02:	4692      	mov	sl, r2
10003a04:	9a03      	ldr	r2, [sp, #12]
10003a06:	4293      	cmp	r3, r2
10003a08:	d100      	bne.n	10003a0c <alarm_pool_irq_handler+0xe4>
10003a0a:	e0cc      	b.n	10003ba6 <alarm_pool_irq_handler+0x27e>
10003a0c:	464a      	mov	r2, r9
10003a0e:	2108      	movs	r1, #8
10003a10:	5e78      	ldrsh	r0, [r7, r1]
10003a12:	8852      	ldrh	r2, [r2, #2]
10003a14:	0400      	lsls	r0, r0, #16
10003a16:	4651      	mov	r1, sl
10003a18:	4310      	orrs	r0, r2
10003a1a:	4798      	blx	r3
10003a1c:	9000      	str	r0, [sp, #0]
10003a1e:	9101      	str	r1, [sp, #4]
10003a20:	9900      	ldr	r1, [sp, #0]
10003a22:	9a01      	ldr	r2, [sp, #4]
10003a24:	000b      	movs	r3, r1
10003a26:	4313      	orrs	r3, r2
10003a28:	d100      	bne.n	10003a2c <alarm_pool_irq_handler+0x104>
10003a2a:	e0c2      	b.n	10003bb2 <alarm_pool_irq_handler+0x28a>
10003a2c:	0013      	movs	r3, r2
10003a2e:	000a      	movs	r2, r1
10003a30:	2b00      	cmp	r3, #0
10003a32:	db00      	blt.n	10003a36 <alarm_pool_irq_handler+0x10e>
10003a34:	e0d9      	b.n	10003bea <alarm_pool_irq_handler+0x2c2>
10003a36:	0020      	movs	r0, r4
10003a38:	0029      	movs	r1, r5
10003a3a:	1a80      	subs	r0, r0, r2
10003a3c:	4199      	sbcs	r1, r3
10003a3e:	464b      	mov	r3, r9
10003a40:	6098      	str	r0, [r3, #8]
10003a42:	60d9      	str	r1, [r3, #12]
10003a44:	2200      	movs	r2, #0
10003a46:	5e9b      	ldrsh	r3, [r3, r2]
10003a48:	2b00      	cmp	r3, #0
10003a4a:	da00      	bge.n	10003a4e <alarm_pool_irq_handler+0x126>
10003a4c:	e78b      	b.n	10003966 <alarm_pool_irq_handler+0x3e>
10003a4e:	005d      	lsls	r5, r3, #1
10003a50:	697c      	ldr	r4, [r7, #20]
10003a52:	18ea      	adds	r2, r5, r3
10003a54:	00d2      	lsls	r2, r2, #3
10003a56:	18a2      	adds	r2, r4, r2
10003a58:	9400      	str	r4, [sp, #0]
10003a5a:	6894      	ldr	r4, [r2, #8]
10003a5c:	68d2      	ldr	r2, [r2, #12]
10003a5e:	46a2      	mov	sl, r4
10003a60:	428a      	cmp	r2, r1
10003a62:	dd00      	ble.n	10003a66 <alarm_pool_irq_handler+0x13e>
10003a64:	e77f      	b.n	10003966 <alarm_pool_irq_handler+0x3e>
10003a66:	d102      	bne.n	10003a6e <alarm_pool_irq_handler+0x146>
10003a68:	4284      	cmp	r4, r0
10003a6a:	d900      	bls.n	10003a6e <alarm_pool_irq_handler+0x146>
10003a6c:	e77b      	b.n	10003966 <alarm_pool_irq_handler+0x3e>
10003a6e:	2408      	movs	r4, #8
10003a70:	46a4      	mov	ip, r4
10003a72:	813b      	strh	r3, [r7, #8]
10003a74:	44bc      	add	ip, r7
10003a76:	9c00      	ldr	r4, [sp, #0]
10003a78:	9700      	str	r7, [sp, #0]
10003a7a:	002f      	movs	r7, r5
10003a7c:	4665      	mov	r5, ip
10003a7e:	46b4      	mov	ip, r6
10003a80:	003e      	movs	r6, r7
10003a82:	e006      	b.n	10003a92 <alarm_pool_irq_handler+0x16a>
10003a84:	005e      	lsls	r6, r3, #1
10003a86:	18f2      	adds	r2, r6, r3
10003a88:	00d2      	lsls	r2, r2, #3
10003a8a:	18a2      	adds	r2, r4, r2
10003a8c:	6897      	ldr	r7, [r2, #8]
10003a8e:	68d2      	ldr	r2, [r2, #12]
10003a90:	46ba      	mov	sl, r7
10003a92:	428a      	cmp	r2, r1
10003a94:	dc07      	bgt.n	10003aa6 <alarm_pool_irq_handler+0x17e>
10003a96:	d100      	bne.n	10003a9a <alarm_pool_irq_handler+0x172>
10003a98:	e0b4      	b.n	10003c04 <alarm_pool_irq_handler+0x2dc>
10003a9a:	18f3      	adds	r3, r6, r3
10003a9c:	00db      	lsls	r3, r3, #3
10003a9e:	18e5      	adds	r5, r4, r3
10003aa0:	5ee3      	ldrsh	r3, [r4, r3]
10003aa2:	2b00      	cmp	r3, #0
10003aa4:	daee      	bge.n	10003a84 <alarm_pool_irq_handler+0x15c>
10003aa6:	4666      	mov	r6, ip
10003aa8:	464a      	mov	r2, r9
10003aaa:	9f00      	ldr	r7, [sp, #0]
10003aac:	8013      	strh	r3, [r2, #0]
10003aae:	802e      	strh	r6, [r5, #0]
10003ab0:	88bb      	ldrh	r3, [r7, #4]
10003ab2:	b21b      	sxth	r3, r3
10003ab4:	2b00      	cmp	r3, #0
10003ab6:	da00      	bge.n	10003aba <alarm_pool_irq_handler+0x192>
10003ab8:	e75a      	b.n	10003970 <alarm_pool_irq_handler+0x48>
10003aba:	693a      	ldr	r2, [r7, #16]
10003abc:	f3ef 8110 	mrs	r1, PRIMASK
10003ac0:	b672      	cpsid	i
10003ac2:	6813      	ldr	r3, [r2, #0]
10003ac4:	2b00      	cmp	r3, #0
10003ac6:	d0fc      	beq.n	10003ac2 <alarm_pool_irq_handler+0x19a>
10003ac8:	f3bf 8f5f 	dmb	sy
10003acc:	2301      	movs	r3, #1
10003ace:	88be      	ldrh	r6, [r7, #4]
10003ad0:	425b      	negs	r3, r3
10003ad2:	80bb      	strh	r3, [r7, #4]
10003ad4:	b236      	sxth	r6, r6
10003ad6:	693b      	ldr	r3, [r7, #16]
10003ad8:	f3bf 8f5f 	dmb	sy
10003adc:	2200      	movs	r2, #0
10003ade:	601a      	str	r2, [r3, #0]
10003ae0:	f381 8810 	msr	PRIMASK, r1
10003ae4:	2e00      	cmp	r6, #0
10003ae6:	da00      	bge.n	10003aea <alarm_pool_irq_handler+0x1c2>
10003ae8:	e742      	b.n	10003970 <alarm_pool_irq_handler+0x48>
10003aea:	003b      	movs	r3, r7
10003aec:	3308      	adds	r3, #8
10003aee:	003a      	movs	r2, r7
10003af0:	4699      	mov	r9, r3
10003af2:	697d      	ldr	r5, [r7, #20]
10003af4:	0073      	lsls	r3, r6, #1
10003af6:	199b      	adds	r3, r3, r6
10003af8:	2408      	movs	r4, #8
10003afa:	5f11      	ldrsh	r1, [r2, r4]
10003afc:	00db      	lsls	r3, r3, #3
10003afe:	4648      	mov	r0, r9
10003b00:	18eb      	adds	r3, r5, r3
10003b02:	2900      	cmp	r1, #0
10003b04:	db13      	blt.n	10003b2e <alarm_pool_irq_handler+0x206>
10003b06:	689c      	ldr	r4, [r3, #8]
10003b08:	9300      	str	r3, [sp, #0]
10003b0a:	46a4      	mov	ip, r4
10003b0c:	68dc      	ldr	r4, [r3, #12]
10003b0e:	e006      	b.n	10003b1e <alarm_pool_irq_handler+0x1f6>
10003b10:	42a3      	cmp	r3, r4
10003b12:	d040      	beq.n	10003b96 <alarm_pool_irq_handler+0x26e>
10003b14:	2300      	movs	r3, #0
10003b16:	5ef9      	ldrsh	r1, [r7, r3]
10003b18:	0038      	movs	r0, r7
10003b1a:	2900      	cmp	r1, #0
10003b1c:	db06      	blt.n	10003b2c <alarm_pool_irq_handler+0x204>
10003b1e:	004f      	lsls	r7, r1, #1
10003b20:	187f      	adds	r7, r7, r1
10003b22:	00ff      	lsls	r7, r7, #3
10003b24:	19ef      	adds	r7, r5, r7
10003b26:	68fb      	ldr	r3, [r7, #12]
10003b28:	42a3      	cmp	r3, r4
10003b2a:	ddf1      	ble.n	10003b10 <alarm_pool_irq_handler+0x1e8>
10003b2c:	9b00      	ldr	r3, [sp, #0]
10003b2e:	8006      	strh	r6, [r0, #0]
10003b30:	2000      	movs	r0, #0
10003b32:	5e1e      	ldrsh	r6, [r3, r0]
10003b34:	8019      	strh	r1, [r3, #0]
10003b36:	2e00      	cmp	r6, #0
10003b38:	dadc      	bge.n	10003af4 <alarm_pool_irq_handler+0x1cc>
10003b3a:	0017      	movs	r7, r2
10003b3c:	79bb      	ldrb	r3, [r7, #6]
10003b3e:	2b00      	cmp	r3, #0
10003b40:	d100      	bne.n	10003b44 <alarm_pool_irq_handler+0x21c>
10003b42:	e719      	b.n	10003978 <alarm_pool_irq_handler+0x50>
10003b44:	2300      	movs	r3, #0
10003b46:	71bb      	strb	r3, [r7, #6]
10003b48:	2308      	movs	r3, #8
10003b4a:	5ef9      	ldrsh	r1, [r7, r3]
10003b4c:	1c4b      	adds	r3, r1, #1
10003b4e:	d100      	bne.n	10003b52 <alarm_pool_irq_handler+0x22a>
10003b50:	e737      	b.n	100039c2 <alarm_pool_irq_handler+0x9a>
10003b52:	003d      	movs	r5, r7
10003b54:	3508      	adds	r5, #8
10003b56:	46ac      	mov	ip, r5
10003b58:	697c      	ldr	r4, [r7, #20]
10003b5a:	e003      	b.n	10003b64 <alarm_pool_irq_handler+0x23c>
10003b5c:	4684      	mov	ip, r0
10003b5e:	1c4b      	adds	r3, r1, #1
10003b60:	d100      	bne.n	10003b64 <alarm_pool_irq_handler+0x23c>
10003b62:	e709      	b.n	10003978 <alarm_pool_irq_handler+0x50>
10003b64:	004b      	lsls	r3, r1, #1
10003b66:	185b      	adds	r3, r3, r1
10003b68:	00db      	lsls	r3, r3, #3
10003b6a:	18e0      	adds	r0, r4, r3
10003b6c:	000a      	movs	r2, r1
10003b6e:	5ee1      	ldrsh	r1, [r4, r3]
10003b70:	8843      	ldrh	r3, [r0, #2]
10003b72:	b21b      	sxth	r3, r3
10003b74:	2b00      	cmp	r3, #0
10003b76:	daf1      	bge.n	10003b5c <alarm_pool_irq_handler+0x234>
10003b78:	2501      	movs	r5, #1
10003b7a:	426d      	negs	r5, r5
10003b7c:	17ee      	asrs	r6, r5, #31
10003b7e:	6085      	str	r5, [r0, #8]
10003b80:	60c6      	str	r6, [r0, #12]
10003b82:	2508      	movs	r5, #8
10003b84:	5f7b      	ldrsh	r3, [r7, r5]
10003b86:	4293      	cmp	r3, r2
10003b88:	d0e9      	beq.n	10003b5e <alarm_pool_irq_handler+0x236>
10003b8a:	4663      	mov	r3, ip
10003b8c:	8019      	strh	r1, [r3, #0]
10003b8e:	893b      	ldrh	r3, [r7, #8]
10003b90:	8003      	strh	r3, [r0, #0]
10003b92:	813a      	strh	r2, [r7, #8]
10003b94:	e7e3      	b.n	10003b5e <alarm_pool_irq_handler+0x236>
10003b96:	68bb      	ldr	r3, [r7, #8]
10003b98:	4563      	cmp	r3, ip
10003b9a:	d9bb      	bls.n	10003b14 <alarm_pool_irq_handler+0x1ec>
10003b9c:	e7c6      	b.n	10003b2c <alarm_pool_irq_handler+0x204>
10003b9e:	1c63      	adds	r3, r4, #1
10003ba0:	d000      	beq.n	10003ba4 <alarm_pool_irq_handler+0x27c>
10003ba2:	e6f7      	b.n	10003994 <alarm_pool_irq_handler+0x6c>
10003ba4:	e705      	b.n	100039b2 <alarm_pool_irq_handler+0x8a>
10003ba6:	4653      	mov	r3, sl
10003ba8:	4650      	mov	r0, sl
10003baa:	691b      	ldr	r3, [r3, #16]
10003bac:	4798      	blx	r3
10003bae:	2800      	cmp	r0, #0
10003bb0:	d123      	bne.n	10003bfa <alarm_pool_irq_handler+0x2d2>
10003bb2:	464b      	mov	r3, r9
10003bb4:	881b      	ldrh	r3, [r3, #0]
10003bb6:	693a      	ldr	r2, [r7, #16]
10003bb8:	813b      	strh	r3, [r7, #8]
10003bba:	f3ef 8310 	mrs	r3, PRIMASK
10003bbe:	b672      	cpsid	i
10003bc0:	6811      	ldr	r1, [r2, #0]
10003bc2:	2900      	cmp	r1, #0
10003bc4:	d0fc      	beq.n	10003bc0 <alarm_pool_irq_handler+0x298>
10003bc6:	f3bf 8f5f 	dmb	sy
10003bca:	4649      	mov	r1, r9
10003bcc:	887a      	ldrh	r2, [r7, #2]
10003bce:	800a      	strh	r2, [r1, #0]
10003bd0:	693a      	ldr	r2, [r7, #16]
10003bd2:	807e      	strh	r6, [r7, #2]
10003bd4:	f3bf 8f5f 	dmb	sy
10003bd8:	2100      	movs	r1, #0
10003bda:	6011      	str	r1, [r2, #0]
10003bdc:	f383 8810 	msr	PRIMASK, r3
10003be0:	e6c1      	b.n	10003966 <alarm_pool_irq_handler+0x3e>
10003be2:	4284      	cmp	r4, r0
10003be4:	d800      	bhi.n	10003be8 <alarm_pool_irq_handler+0x2c0>
10003be6:	e705      	b.n	100039f4 <alarm_pool_irq_handler+0xcc>
10003be8:	e6bd      	b.n	10003966 <alarm_pool_irq_handler+0x3e>
10003bea:	480b      	ldr	r0, [pc, #44]	@ (10003c18 <alarm_pool_irq_handler+0x2f0>)
10003bec:	f000 fa9e 	bl	1000412c <timer_time_us_64>
10003bf0:	9b00      	ldr	r3, [sp, #0]
10003bf2:	9c01      	ldr	r4, [sp, #4]
10003bf4:	18c0      	adds	r0, r0, r3
10003bf6:	4161      	adcs	r1, r4
10003bf8:	e721      	b.n	10003a3e <alarm_pool_irq_handler+0x116>
10003bfa:	4653      	mov	r3, sl
10003bfc:	cb0c      	ldmia	r3, {r2, r3}
10003bfe:	9200      	str	r2, [sp, #0]
10003c00:	9301      	str	r3, [sp, #4]
10003c02:	e70d      	b.n	10003a20 <alarm_pool_irq_handler+0xf8>
10003c04:	4582      	cmp	sl, r0
10003c06:	d800      	bhi.n	10003c0a <alarm_pool_irq_handler+0x2e2>
10003c08:	e747      	b.n	10003a9a <alarm_pool_irq_handler+0x172>
10003c0a:	e74c      	b.n	10003aa6 <alarm_pool_irq_handler+0x17e>
10003c0c:	200057f0 	.word	0x200057f0
10003c10:	4005703c 	.word	0x4005703c
10003c14:	10003929 	.word	0x10003929
10003c18:	40054000 	.word	0x40054000

10003c1c <runtime_init_default_alarm_pool>:
10003c1c:	b570      	push	{r4, r5, r6, lr}
10003c1e:	4c2d      	ldr	r4, [pc, #180]	@ (10003cd4 <runtime_init_default_alarm_pool+0xb8>)
10003c20:	6925      	ldr	r5, [r4, #16]
10003c22:	2d00      	cmp	r5, #0
10003c24:	d004      	beq.n	10003c30 <runtime_init_default_alarm_pool+0x14>
10003c26:	210a      	movs	r1, #10
10003c28:	482b      	ldr	r0, [pc, #172]	@ (10003cd8 <runtime_init_default_alarm_pool+0xbc>)
10003c2a:	f7ff fe19 	bl	10003860 <lock_init>
10003c2e:	bd70      	pop	{r4, r5, r6, pc}
10003c30:	4e2a      	ldr	r6, [pc, #168]	@ (10003cdc <runtime_init_default_alarm_pool+0xc0>)
10003c32:	2103      	movs	r1, #3
10003c34:	4829      	ldr	r0, [pc, #164]	@ (10003cdc <runtime_init_default_alarm_pool+0xc0>)
10003c36:	f000 fa6f 	bl	10004118 <timer_hardware_alarm_claim>
10003c3a:	60e6      	str	r6, [r4, #12]
10003c3c:	f7ff fb56 	bl	100032ec <next_striped_spin_lock_num>
10003c40:	4b27      	ldr	r3, [pc, #156]	@ (10003ce0 <runtime_init_default_alarm_pool+0xc4>)
10003c42:	2203      	movs	r2, #3
10003c44:	18c0      	adds	r0, r0, r3
10003c46:	23d0      	movs	r3, #208	@ 0xd0
10003c48:	7022      	strb	r2, [r4, #0]
10003c4a:	061b      	lsls	r3, r3, #24
10003c4c:	681b      	ldr	r3, [r3, #0]
10003c4e:	2101      	movs	r1, #1
10003c50:	7063      	strb	r3, [r4, #1]
10003c52:	4b24      	ldr	r3, [pc, #144]	@ (10003ce4 <runtime_init_default_alarm_pool+0xc8>)
10003c54:	0080      	lsls	r0, r0, #2
10003c56:	60a3      	str	r3, [r4, #8]
10003c58:	230f      	movs	r3, #15
10003c5a:	6120      	str	r0, [r4, #16]
10003c5c:	2002      	movs	r0, #2
10003c5e:	8063      	strh	r3, [r4, #2]
10003c60:	6963      	ldr	r3, [r4, #20]
10003c62:	4249      	negs	r1, r1
10003c64:	80a1      	strh	r1, [r4, #4]
10003c66:	8019      	strh	r1, [r3, #0]
10003c68:	3102      	adds	r1, #2
10003c6a:	8619      	strh	r1, [r3, #48]	@ 0x30
10003c6c:	3147      	adds	r1, #71	@ 0x47
10003c6e:	831d      	strh	r5, [r3, #24]
10003c70:	5258      	strh	r0, [r3, r1]
10003c72:	3118      	adds	r1, #24
10003c74:	525a      	strh	r2, [r3, r1]
10003c76:	3275      	adds	r2, #117	@ 0x75
10003c78:	395c      	subs	r1, #92	@ 0x5c
10003c7a:	5299      	strh	r1, [r3, r2]
10003c7c:	3218      	adds	r2, #24
10003c7e:	3101      	adds	r1, #1
10003c80:	5299      	strh	r1, [r3, r2]
10003c82:	3218      	adds	r2, #24
10003c84:	3101      	adds	r1, #1
10003c86:	5299      	strh	r1, [r3, r2]
10003c88:	3218      	adds	r2, #24
10003c8a:	3101      	adds	r1, #1
10003c8c:	5299      	strh	r1, [r3, r2]
10003c8e:	3508      	adds	r5, #8
10003c90:	3218      	adds	r2, #24
10003c92:	529d      	strh	r5, [r3, r2]
10003c94:	3102      	adds	r1, #2
10003c96:	3218      	adds	r2, #24
10003c98:	5299      	strh	r1, [r3, r2]
10003c9a:	3218      	adds	r2, #24
10003c9c:	3101      	adds	r1, #1
10003c9e:	5299      	strh	r1, [r3, r2]
10003ca0:	3218      	adds	r2, #24
10003ca2:	3101      	adds	r1, #1
10003ca4:	5299      	strh	r1, [r3, r2]
10003ca6:	3218      	adds	r2, #24
10003ca8:	3101      	adds	r1, #1
10003caa:	5299      	strh	r1, [r3, r2]
10003cac:	3218      	adds	r2, #24
10003cae:	3101      	adds	r1, #1
10003cb0:	5299      	strh	r1, [r3, r2]
10003cb2:	3218      	adds	r2, #24
10003cb4:	3101      	adds	r1, #1
10003cb6:	5299      	strh	r1, [r3, r2]
10003cb8:	4b0b      	ldr	r3, [pc, #44]	@ (10003ce8 <runtime_init_default_alarm_pool+0xcc>)
10003cba:	490c      	ldr	r1, [pc, #48]	@ (10003cec <runtime_init_default_alarm_pool+0xd0>)
10003cbc:	60dc      	str	r4, [r3, #12]
10003cbe:	3001      	adds	r0, #1
10003cc0:	6235      	str	r5, [r6, #32]
10003cc2:	f7ff fb7f 	bl	100033c4 <irq_set_exclusive_handler>
10003cc6:	2101      	movs	r1, #1
10003cc8:	2003      	movs	r0, #3
10003cca:	f7ff fb5d 	bl	10003388 <irq_set_enabled>
10003cce:	4b08      	ldr	r3, [pc, #32]	@ (10003cf0 <runtime_init_default_alarm_pool+0xd4>)
10003cd0:	601d      	str	r5, [r3, #0]
10003cd2:	e7a8      	b.n	10003c26 <runtime_init_default_alarm_pool+0xa>
10003cd4:	20000ff4 	.word	0x20000ff4
10003cd8:	20006430 	.word	0x20006430
10003cdc:	40054000 	.word	0x40054000
10003ce0:	34000040 	.word	0x34000040
10003ce4:	0010ffff 	.word	0x0010ffff
10003ce8:	200057f0 	.word	0x200057f0
10003cec:	10003929 	.word	0x10003929
10003cf0:	40056038 	.word	0x40056038

10003cf4 <alarm_pool_get_default>:
10003cf4:	4800      	ldr	r0, [pc, #0]	@ (10003cf8 <alarm_pool_get_default+0x4>)
10003cf6:	4770      	bx	lr
10003cf8:	20000ff4 	.word	0x20000ff4

10003cfc <alarm_pool_add_alarm_at_force_in_context>:
10003cfc:	b570      	push	{r4, r5, r6, lr}
10003cfe:	b082      	sub	sp, #8
10003d00:	9200      	str	r2, [sp, #0]
10003d02:	9301      	str	r3, [sp, #4]
10003d04:	0001      	movs	r1, r0
10003d06:	6902      	ldr	r2, [r0, #16]
10003d08:	f3ef 8410 	mrs	r4, PRIMASK
10003d0c:	b672      	cpsid	i
10003d0e:	6813      	ldr	r3, [r2, #0]
10003d10:	2b00      	cmp	r3, #0
10003d12:	d0fc      	beq.n	10003d0e <alarm_pool_add_alarm_at_force_in_context+0x12>
10003d14:	f3bf 8f5f 	dmb	sy
10003d18:	2302      	movs	r3, #2
10003d1a:	5ec8      	ldrsh	r0, [r1, r3]
10003d1c:	690d      	ldr	r5, [r1, #16]
10003d1e:	2800      	cmp	r0, #0
10003d20:	db3f      	blt.n	10003da2 <alarm_pool_add_alarm_at_force_in_context+0xa6>
10003d22:	694a      	ldr	r2, [r1, #20]
10003d24:	0043      	lsls	r3, r0, #1
10003d26:	0016      	movs	r6, r2
10003d28:	181b      	adds	r3, r3, r0
10003d2a:	00db      	lsls	r3, r3, #3
10003d2c:	18d2      	adds	r2, r2, r3
10003d2e:	5af3      	ldrh	r3, [r6, r3]
10003d30:	804b      	strh	r3, [r1, #2]
10003d32:	f3bf 8f5f 	dmb	sy
10003d36:	2300      	movs	r3, #0
10003d38:	602b      	str	r3, [r5, #0]
10003d3a:	f384 8810 	msr	PRIMASK, r4
10003d3e:	9b06      	ldr	r3, [sp, #24]
10003d40:	6113      	str	r3, [r2, #16]
10003d42:	9b07      	ldr	r3, [sp, #28]
10003d44:	6153      	str	r3, [r2, #20]
10003d46:	9b00      	ldr	r3, [sp, #0]
10003d48:	9c01      	ldr	r4, [sp, #4]
10003d4a:	6093      	str	r3, [r2, #8]
10003d4c:	60d4      	str	r4, [r2, #12]
10003d4e:	8853      	ldrh	r3, [r2, #2]
10003d50:	3301      	adds	r3, #1
10003d52:	045b      	lsls	r3, r3, #17
10003d54:	0c5b      	lsrs	r3, r3, #17
10003d56:	1c1d      	adds	r5, r3, #0
10003d58:	2b00      	cmp	r3, #0
10003d5a:	d020      	beq.n	10003d9e <alarm_pool_add_alarm_at_force_in_context+0xa2>
10003d5c:	b2ac      	uxth	r4, r5
10003d5e:	0403      	lsls	r3, r0, #16
10003d60:	8055      	strh	r5, [r2, #2]
10003d62:	4323      	orrs	r3, r4
10003d64:	690d      	ldr	r5, [r1, #16]
10003d66:	f3ef 8c10 	mrs	ip, PRIMASK
10003d6a:	b672      	cpsid	i
10003d6c:	682c      	ldr	r4, [r5, #0]
10003d6e:	2c00      	cmp	r4, #0
10003d70:	d0fc      	beq.n	10003d6c <alarm_pool_add_alarm_at_force_in_context+0x70>
10003d72:	f3bf 8f5f 	dmb	sy
10003d76:	888c      	ldrh	r4, [r1, #4]
10003d78:	8014      	strh	r4, [r2, #0]
10003d7a:	8088      	strh	r0, [r1, #4]
10003d7c:	690a      	ldr	r2, [r1, #16]
10003d7e:	f3bf 8f5f 	dmb	sy
10003d82:	2000      	movs	r0, #0
10003d84:	6010      	str	r0, [r2, #0]
10003d86:	f38c 8810 	msr	PRIMASK, ip
10003d8a:	780a      	ldrb	r2, [r1, #0]
10003d8c:	3001      	adds	r0, #1
10003d8e:	4090      	lsls	r0, r2
10003d90:	68ca      	ldr	r2, [r1, #12]
10003d92:	4908      	ldr	r1, [pc, #32]	@ (10003db4 <alarm_pool_add_alarm_at_force_in_context+0xb8>)
10003d94:	1852      	adds	r2, r2, r1
10003d96:	6010      	str	r0, [r2, #0]
10003d98:	0018      	movs	r0, r3
10003d9a:	b002      	add	sp, #8
10003d9c:	bd70      	pop	{r4, r5, r6, pc}
10003d9e:	2501      	movs	r5, #1
10003da0:	e7dc      	b.n	10003d5c <alarm_pool_add_alarm_at_force_in_context+0x60>
10003da2:	f3bf 8f5f 	dmb	sy
10003da6:	2300      	movs	r3, #0
10003da8:	602b      	str	r3, [r5, #0]
10003daa:	f384 8810 	msr	PRIMASK, r4
10003dae:	3b01      	subs	r3, #1
10003db0:	e7f2      	b.n	10003d98 <alarm_pool_add_alarm_at_force_in_context+0x9c>
10003db2:	46c0      	nop			@ (mov r8, r8)
10003db4:	0000203c 	.word	0x0000203c

10003db8 <alarm_pool_cancel_alarm>:
10003db8:	b510      	push	{r4, lr}
10003dba:	8943      	ldrh	r3, [r0, #10]
10003dbc:	140a      	asrs	r2, r1, #16
10003dbe:	4293      	cmp	r3, r2
10003dc0:	dd1a      	ble.n	10003df8 <alarm_pool_cancel_alarm+0x40>
10003dc2:	0053      	lsls	r3, r2, #1
10003dc4:	189b      	adds	r3, r3, r2
10003dc6:	6942      	ldr	r2, [r0, #20]
10003dc8:	00db      	lsls	r3, r3, #3
10003dca:	18d3      	adds	r3, r2, r3
10003dcc:	6904      	ldr	r4, [r0, #16]
10003dce:	f3ef 8c10 	mrs	ip, PRIMASK
10003dd2:	b672      	cpsid	i
10003dd4:	6822      	ldr	r2, [r4, #0]
10003dd6:	2a00      	cmp	r2, #0
10003dd8:	d0fc      	beq.n	10003dd4 <alarm_pool_cancel_alarm+0x1c>
10003dda:	f3bf 8f5f 	dmb	sy
10003dde:	885a      	ldrh	r2, [r3, #2]
10003de0:	0409      	lsls	r1, r1, #16
10003de2:	b294      	uxth	r4, r2
10003de4:	0c09      	lsrs	r1, r1, #16
10003de6:	428a      	cmp	r2, r1
10003de8:	d008      	beq.n	10003dfc <alarm_pool_cancel_alarm+0x44>
10003dea:	6903      	ldr	r3, [r0, #16]
10003dec:	f3bf 8f5f 	dmb	sy
10003df0:	2200      	movs	r2, #0
10003df2:	601a      	str	r2, [r3, #0]
10003df4:	f38c 8810 	msr	PRIMASK, ip
10003df8:	2000      	movs	r0, #0
10003dfa:	bd10      	pop	{r4, pc}
10003dfc:	4a09      	ldr	r2, [pc, #36]	@ (10003e24 <alarm_pool_cancel_alarm+0x6c>)
10003dfe:	4322      	orrs	r2, r4
10003e00:	805a      	strh	r2, [r3, #2]
10003e02:	2301      	movs	r3, #1
10003e04:	6902      	ldr	r2, [r0, #16]
10003e06:	7183      	strb	r3, [r0, #6]
10003e08:	f3bf 8f5f 	dmb	sy
10003e0c:	2100      	movs	r1, #0
10003e0e:	6011      	str	r1, [r2, #0]
10003e10:	f38c 8810 	msr	PRIMASK, ip
10003e14:	7802      	ldrb	r2, [r0, #0]
10003e16:	4904      	ldr	r1, [pc, #16]	@ (10003e28 <alarm_pool_cancel_alarm+0x70>)
10003e18:	4093      	lsls	r3, r2
10003e1a:	68c2      	ldr	r2, [r0, #12]
10003e1c:	2001      	movs	r0, #1
10003e1e:	1852      	adds	r2, r2, r1
10003e20:	6013      	str	r3, [r2, #0]
10003e22:	e7ea      	b.n	10003dfa <alarm_pool_cancel_alarm+0x42>
10003e24:	ffff8000 	.word	0xffff8000
10003e28:	0000203c 	.word	0x0000203c

10003e2c <alarm_pool_core_num>:
10003e2c:	7840      	ldrb	r0, [r0, #1]
10003e2e:	4770      	bx	lr

10003e30 <sleep_us>:
10003e30:	b5f0      	push	{r4, r5, r6, r7, lr}
10003e32:	46c6      	mov	lr, r8
10003e34:	b500      	push	{lr}
10003e36:	b082      	sub	sp, #8
10003e38:	0004      	movs	r4, r0
10003e3a:	000d      	movs	r5, r1
10003e3c:	f000 f97e 	bl	1000413c <time_us_64>
10003e40:	1824      	adds	r4, r4, r0
10003e42:	414d      	adcs	r5, r1
10003e44:	2d00      	cmp	r5, #0
10003e46:	da02      	bge.n	10003e4e <sleep_us+0x1e>
10003e48:	2401      	movs	r4, #1
10003e4a:	4d2f      	ldr	r5, [pc, #188]	@ (10003f08 <sleep_us+0xd8>)
10003e4c:	4264      	negs	r4, r4
10003e4e:	2606      	movs	r6, #6
10003e50:	4276      	negs	r6, r6
10003e52:	17f7      	asrs	r7, r6, #31
10003e54:	1936      	adds	r6, r6, r4
10003e56:	416f      	adcs	r7, r5
10003e58:	42af      	cmp	r7, r5
10003e5a:	d814      	bhi.n	10003e86 <sleep_us+0x56>
10003e5c:	d011      	beq.n	10003e82 <sleep_us+0x52>
10003e5e:	f000 f96d 	bl	1000413c <time_us_64>
10003e62:	0032      	movs	r2, r6
10003e64:	003b      	movs	r3, r7
10003e66:	1a12      	subs	r2, r2, r0
10003e68:	418b      	sbcs	r3, r1
10003e6a:	2b00      	cmp	r3, #0
10003e6c:	dc15      	bgt.n	10003e9a <sleep_us+0x6a>
10003e6e:	2b00      	cmp	r3, #0
10003e70:	d046      	beq.n	10003f00 <sleep_us+0xd0>
10003e72:	0020      	movs	r0, r4
10003e74:	0029      	movs	r1, r5
10003e76:	f000 f96b 	bl	10004150 <busy_wait_until>
10003e7a:	b002      	add	sp, #8
10003e7c:	bc80      	pop	{r7}
10003e7e:	46b8      	mov	r8, r7
10003e80:	bdf0      	pop	{r4, r5, r6, r7, pc}
10003e82:	42a6      	cmp	r6, r4
10003e84:	d9eb      	bls.n	10003e5e <sleep_us+0x2e>
10003e86:	2600      	movs	r6, #0
10003e88:	2700      	movs	r7, #0
10003e8a:	f000 f957 	bl	1000413c <time_us_64>
10003e8e:	0032      	movs	r2, r6
10003e90:	003b      	movs	r3, r7
10003e92:	1a12      	subs	r2, r2, r0
10003e94:	418b      	sbcs	r3, r1
10003e96:	2b00      	cmp	r3, #0
10003e98:	dde9      	ble.n	10003e6e <sleep_us+0x3e>
10003e9a:	f000 f94f 	bl	1000413c <time_us_64>
10003e9e:	0032      	movs	r2, r6
10003ea0:	003b      	movs	r3, r7
10003ea2:	1a12      	subs	r2, r2, r0
10003ea4:	418b      	sbcs	r3, r1
10003ea6:	2b00      	cmp	r3, #0
10003ea8:	db0a      	blt.n	10003ec0 <sleep_us+0x90>
10003eaa:	2300      	movs	r3, #0
10003eac:	9301      	str	r3, [sp, #4]
10003eae:	4b17      	ldr	r3, [pc, #92]	@ (10003f0c <sleep_us+0xdc>)
10003eb0:	0032      	movs	r2, r6
10003eb2:	9300      	str	r3, [sp, #0]
10003eb4:	4816      	ldr	r0, [pc, #88]	@ (10003f10 <sleep_us+0xe0>)
10003eb6:	003b      	movs	r3, r7
10003eb8:	f7ff ff20 	bl	10003cfc <alarm_pool_add_alarm_at_force_in_context>
10003ebc:	3001      	adds	r0, #1
10003ebe:	d0d8      	beq.n	10003e72 <sleep_us+0x42>
10003ec0:	2300      	movs	r3, #0
10003ec2:	0039      	movs	r1, r7
10003ec4:	46b0      	mov	r8, r6
10003ec6:	469c      	mov	ip, r3
10003ec8:	4a12      	ldr	r2, [pc, #72]	@ (10003f14 <sleep_us+0xe4>)
10003eca:	4813      	ldr	r0, [pc, #76]	@ (10003f18 <sleep_us+0xe8>)
10003ecc:	6a53      	ldr	r3, [r2, #36]	@ 0x24
10003ece:	4299      	cmp	r1, r3
10003ed0:	d804      	bhi.n	10003edc <sleep_us+0xac>
10003ed2:	6a96      	ldr	r6, [r2, #40]	@ 0x28
10003ed4:	4546      	cmp	r6, r8
10003ed6:	d2cc      	bcs.n	10003e72 <sleep_us+0x42>
10003ed8:	4299      	cmp	r1, r3
10003eda:	d1ca      	bne.n	10003e72 <sleep_us+0x42>
10003edc:	6806      	ldr	r6, [r0, #0]
10003ede:	f3ef 8710 	mrs	r7, PRIMASK
10003ee2:	b672      	cpsid	i
10003ee4:	6833      	ldr	r3, [r6, #0]
10003ee6:	2b00      	cmp	r3, #0
10003ee8:	d0fc      	beq.n	10003ee4 <sleep_us+0xb4>
10003eea:	f3bf 8f5f 	dmb	sy
10003eee:	6803      	ldr	r3, [r0, #0]
10003ef0:	f3bf 8f5f 	dmb	sy
10003ef4:	4666      	mov	r6, ip
10003ef6:	601e      	str	r6, [r3, #0]
10003ef8:	f387 8810 	msr	PRIMASK, r7
10003efc:	bf20      	wfe
10003efe:	e7e5      	b.n	10003ecc <sleep_us+0x9c>
10003f00:	2a00      	cmp	r2, #0
10003f02:	d0b6      	beq.n	10003e72 <sleep_us+0x42>
10003f04:	e7c9      	b.n	10003e9a <sleep_us+0x6a>
10003f06:	46c0      	nop			@ (mov r8, r8)
10003f08:	7fffffff 	.word	0x7fffffff
10003f0c:	100038f9 	.word	0x100038f9
10003f10:	20000ff4 	.word	0x20000ff4
10003f14:	40054000 	.word	0x40054000
10003f18:	20006430 	.word	0x20006430

10003f1c <sleep_ms>:
10003f1c:	b5f0      	push	{r4, r5, r6, r7, lr}
10003f1e:	46c6      	mov	lr, r8
10003f20:	b500      	push	{lr}
10003f22:	b082      	sub	sp, #8
10003f24:	0004      	movs	r4, r0
10003f26:	f000 f909 	bl	1000413c <time_us_64>
10003f2a:	22fa      	movs	r2, #250	@ 0xfa
10003f2c:	0006      	movs	r6, r0
10003f2e:	000f      	movs	r7, r1
10003f30:	0020      	movs	r0, r4
10003f32:	2300      	movs	r3, #0
10003f34:	2100      	movs	r1, #0
10003f36:	0092      	lsls	r2, r2, #2
10003f38:	f001 fa9a 	bl	10005470 <__wrap___aeabi_lmul>
10003f3c:	1980      	adds	r0, r0, r6
10003f3e:	4179      	adcs	r1, r7
10003f40:	0004      	movs	r4, r0
10003f42:	1e0d      	subs	r5, r1, #0
10003f44:	da02      	bge.n	10003f4c <sleep_ms+0x30>
10003f46:	2401      	movs	r4, #1
10003f48:	4d2e      	ldr	r5, [pc, #184]	@ (10004004 <sleep_ms+0xe8>)
10003f4a:	4264      	negs	r4, r4
10003f4c:	2606      	movs	r6, #6
10003f4e:	4276      	negs	r6, r6
10003f50:	17f7      	asrs	r7, r6, #31
10003f52:	1936      	adds	r6, r6, r4
10003f54:	416f      	adcs	r7, r5
10003f56:	42af      	cmp	r7, r5
10003f58:	d814      	bhi.n	10003f84 <sleep_ms+0x68>
10003f5a:	d011      	beq.n	10003f80 <sleep_ms+0x64>
10003f5c:	f000 f8ee 	bl	1000413c <time_us_64>
10003f60:	0032      	movs	r2, r6
10003f62:	003b      	movs	r3, r7
10003f64:	1a12      	subs	r2, r2, r0
10003f66:	418b      	sbcs	r3, r1
10003f68:	2b00      	cmp	r3, #0
10003f6a:	dc15      	bgt.n	10003f98 <sleep_ms+0x7c>
10003f6c:	2b00      	cmp	r3, #0
10003f6e:	d046      	beq.n	10003ffe <sleep_ms+0xe2>
10003f70:	0020      	movs	r0, r4
10003f72:	0029      	movs	r1, r5
10003f74:	f000 f8ec 	bl	10004150 <busy_wait_until>
10003f78:	b002      	add	sp, #8
10003f7a:	bc80      	pop	{r7}
10003f7c:	46b8      	mov	r8, r7
10003f7e:	bdf0      	pop	{r4, r5, r6, r7, pc}
10003f80:	42a6      	cmp	r6, r4
10003f82:	d9eb      	bls.n	10003f5c <sleep_ms+0x40>
10003f84:	2600      	movs	r6, #0
10003f86:	2700      	movs	r7, #0
10003f88:	f000 f8d8 	bl	1000413c <time_us_64>
10003f8c:	0032      	movs	r2, r6
10003f8e:	003b      	movs	r3, r7
10003f90:	1a12      	subs	r2, r2, r0
10003f92:	418b      	sbcs	r3, r1
10003f94:	2b00      	cmp	r3, #0
10003f96:	dde9      	ble.n	10003f6c <sleep_ms+0x50>
10003f98:	f000 f8d0 	bl	1000413c <time_us_64>
10003f9c:	0032      	movs	r2, r6
10003f9e:	003b      	movs	r3, r7
10003fa0:	1a12      	subs	r2, r2, r0
10003fa2:	418b      	sbcs	r3, r1
10003fa4:	2b00      	cmp	r3, #0
10003fa6:	db0a      	blt.n	10003fbe <sleep_ms+0xa2>
10003fa8:	2300      	movs	r3, #0
10003faa:	9301      	str	r3, [sp, #4]
10003fac:	4b16      	ldr	r3, [pc, #88]	@ (10004008 <sleep_ms+0xec>)
10003fae:	0032      	movs	r2, r6
10003fb0:	9300      	str	r3, [sp, #0]
10003fb2:	4816      	ldr	r0, [pc, #88]	@ (1000400c <sleep_ms+0xf0>)
10003fb4:	003b      	movs	r3, r7
10003fb6:	f7ff fea1 	bl	10003cfc <alarm_pool_add_alarm_at_force_in_context>
10003fba:	3001      	adds	r0, #1
10003fbc:	d0d8      	beq.n	10003f70 <sleep_ms+0x54>
10003fbe:	2300      	movs	r3, #0
10003fc0:	0039      	movs	r1, r7
10003fc2:	46b0      	mov	r8, r6
10003fc4:	469c      	mov	ip, r3
10003fc6:	4a12      	ldr	r2, [pc, #72]	@ (10004010 <sleep_ms+0xf4>)
10003fc8:	4812      	ldr	r0, [pc, #72]	@ (10004014 <sleep_ms+0xf8>)
10003fca:	6a53      	ldr	r3, [r2, #36]	@ 0x24
10003fcc:	4299      	cmp	r1, r3
10003fce:	d804      	bhi.n	10003fda <sleep_ms+0xbe>
10003fd0:	6a96      	ldr	r6, [r2, #40]	@ 0x28
10003fd2:	4546      	cmp	r6, r8
10003fd4:	d2cc      	bcs.n	10003f70 <sleep_ms+0x54>
10003fd6:	4299      	cmp	r1, r3
10003fd8:	d1ca      	bne.n	10003f70 <sleep_ms+0x54>
10003fda:	6806      	ldr	r6, [r0, #0]
10003fdc:	f3ef 8710 	mrs	r7, PRIMASK
10003fe0:	b672      	cpsid	i
10003fe2:	6833      	ldr	r3, [r6, #0]
10003fe4:	2b00      	cmp	r3, #0
10003fe6:	d0fc      	beq.n	10003fe2 <sleep_ms+0xc6>
10003fe8:	f3bf 8f5f 	dmb	sy
10003fec:	6803      	ldr	r3, [r0, #0]
10003fee:	f3bf 8f5f 	dmb	sy
10003ff2:	4666      	mov	r6, ip
10003ff4:	601e      	str	r6, [r3, #0]
10003ff6:	f387 8810 	msr	PRIMASK, r7
10003ffa:	bf20      	wfe
10003ffc:	e7e5      	b.n	10003fca <sleep_ms+0xae>
10003ffe:	2a00      	cmp	r2, #0
10004000:	d0b6      	beq.n	10003f70 <sleep_ms+0x54>
10004002:	e7c9      	b.n	10003f98 <sleep_ms+0x7c>
10004004:	7fffffff 	.word	0x7fffffff
10004008:	100038f9 	.word	0x100038f9
1000400c:	20000ff4 	.word	0x20000ff4
10004010:	40054000 	.word	0x40054000
10004014:	20006430 	.word	0x20006430

10004018 <best_effort_wfe_or_timeout>:
10004018:	b5f0      	push	{r4, r5, r6, r7, lr}
1000401a:	46ce      	mov	lr, r9
1000401c:	4647      	mov	r7, r8
1000401e:	b580      	push	{r7, lr}
10004020:	0004      	movs	r4, r0
10004022:	000d      	movs	r5, r1
10004024:	b085      	sub	sp, #20
10004026:	f3ef 8605 	mrs	r6, IPSR
1000402a:	4689      	mov	r9, r1
1000402c:	2e00      	cmp	r6, #0
1000402e:	d010      	beq.n	10004052 <best_effort_wfe_or_timeout+0x3a>
10004030:	4936      	ldr	r1, [pc, #216]	@ (1000410c <best_effort_wfe_or_timeout+0xf4>)
10004032:	2000      	movs	r0, #0
10004034:	6a4b      	ldr	r3, [r1, #36]	@ 0x24
10004036:	42ab      	cmp	r3, r5
10004038:	d306      	bcc.n	10004048 <best_effort_wfe_or_timeout+0x30>
1000403a:	6a8a      	ldr	r2, [r1, #40]	@ 0x28
1000403c:	1b5b      	subs	r3, r3, r5
1000403e:	1e59      	subs	r1, r3, #1
10004040:	418b      	sbcs	r3, r1
10004042:	42a2      	cmp	r2, r4
10004044:	4140      	adcs	r0, r0
10004046:	4318      	orrs	r0, r3
10004048:	b005      	add	sp, #20
1000404a:	bcc0      	pop	{r6, r7}
1000404c:	46b9      	mov	r9, r7
1000404e:	46b0      	mov	r8, r6
10004050:	bdf0      	pop	{r4, r5, r6, r7, pc}
10004052:	4f2f      	ldr	r7, [pc, #188]	@ (10004110 <best_effort_wfe_or_timeout+0xf8>)
10004054:	68fb      	ldr	r3, [r7, #12]
10004056:	783a      	ldrb	r2, [r7, #0]
10004058:	4698      	mov	r8, r3
1000405a:	0018      	movs	r0, r3
1000405c:	9203      	str	r2, [sp, #12]
1000405e:	f000 f865 	bl	1000412c <timer_time_us_64>
10004062:	9a03      	ldr	r2, [sp, #12]
10004064:	1d13      	adds	r3, r2, #4
10004066:	4642      	mov	r2, r8
10004068:	009b      	lsls	r3, r3, #2
1000406a:	589b      	ldr	r3, [r3, r2]
1000406c:	0022      	movs	r2, r4
1000406e:	1a1b      	subs	r3, r3, r0
10004070:	469c      	mov	ip, r3
10004072:	002b      	movs	r3, r5
10004074:	1a12      	subs	r2, r2, r0
10004076:	418b      	sbcs	r3, r1
10004078:	429e      	cmp	r6, r3
1000407a:	dc10      	bgt.n	1000409e <best_effort_wfe_or_timeout+0x86>
1000407c:	d00d      	beq.n	1000409a <best_effort_wfe_or_timeout+0x82>
1000407e:	bf20      	wfe
10004080:	4a22      	ldr	r2, [pc, #136]	@ (1000410c <best_effort_wfe_or_timeout+0xf4>)
10004082:	2000      	movs	r0, #0
10004084:	6a53      	ldr	r3, [r2, #36]	@ 0x24
10004086:	454b      	cmp	r3, r9
10004088:	d3de      	bcc.n	10004048 <best_effort_wfe_or_timeout+0x30>
1000408a:	6a92      	ldr	r2, [r2, #40]	@ 0x28
1000408c:	1b5b      	subs	r3, r3, r5
1000408e:	1e59      	subs	r1, r3, #1
10004090:	418b      	sbcs	r3, r1
10004092:	42a2      	cmp	r2, r4
10004094:	4140      	adcs	r0, r0
10004096:	4318      	orrs	r0, r3
10004098:	e7d6      	b.n	10004048 <best_effort_wfe_or_timeout+0x30>
1000409a:	4594      	cmp	ip, r2
1000409c:	d9ef      	bls.n	1000407e <best_effort_wfe_or_timeout+0x66>
1000409e:	f000 f84d 	bl	1000413c <time_us_64>
100040a2:	0022      	movs	r2, r4
100040a4:	002b      	movs	r3, r5
100040a6:	1a12      	subs	r2, r2, r0
100040a8:	418b      	sbcs	r3, r1
100040aa:	2b00      	cmp	r3, #0
100040ac:	db1b      	blt.n	100040e6 <best_effort_wfe_or_timeout+0xce>
100040ae:	2300      	movs	r3, #0
100040b0:	9301      	str	r3, [sp, #4]
100040b2:	4b18      	ldr	r3, [pc, #96]	@ (10004114 <best_effort_wfe_or_timeout+0xfc>)
100040b4:	0022      	movs	r2, r4
100040b6:	9300      	str	r3, [sp, #0]
100040b8:	0038      	movs	r0, r7
100040ba:	002b      	movs	r3, r5
100040bc:	f7ff fe1e 	bl	10003cfc <alarm_pool_add_alarm_at_force_in_context>
100040c0:	2800      	cmp	r0, #0
100040c2:	dd10      	ble.n	100040e6 <best_effort_wfe_or_timeout+0xce>
100040c4:	4b11      	ldr	r3, [pc, #68]	@ (1000410c <best_effort_wfe_or_timeout+0xf4>)
100040c6:	6a5a      	ldr	r2, [r3, #36]	@ 0x24
100040c8:	454a      	cmp	r2, r9
100040ca:	d31c      	bcc.n	10004106 <best_effort_wfe_or_timeout+0xee>
100040cc:	6a9b      	ldr	r3, [r3, #40]	@ 0x28
100040ce:	42a3      	cmp	r3, r4
100040d0:	d317      	bcc.n	10004102 <best_effort_wfe_or_timeout+0xea>
100040d2:	0001      	movs	r1, r0
100040d4:	0038      	movs	r0, r7
100040d6:	f7ff fe6f 	bl	10003db8 <alarm_pool_cancel_alarm>
100040da:	4a0c      	ldr	r2, [pc, #48]	@ (1000410c <best_effort_wfe_or_timeout+0xf4>)
100040dc:	2000      	movs	r0, #0
100040de:	6a53      	ldr	r3, [r2, #36]	@ 0x24
100040e0:	454b      	cmp	r3, r9
100040e2:	d3b1      	bcc.n	10004048 <best_effort_wfe_or_timeout+0x30>
100040e4:	e7d1      	b.n	1000408a <best_effort_wfe_or_timeout+0x72>
100040e6:	4a09      	ldr	r2, [pc, #36]	@ (1000410c <best_effort_wfe_or_timeout+0xf4>)
100040e8:	2000      	movs	r0, #0
100040ea:	6a53      	ldr	r3, [r2, #36]	@ 0x24
100040ec:	454b      	cmp	r3, r9
100040ee:	d3ab      	bcc.n	10004048 <best_effort_wfe_or_timeout+0x30>
100040f0:	2000      	movs	r0, #0
100040f2:	6a92      	ldr	r2, [r2, #40]	@ 0x28
100040f4:	1b5b      	subs	r3, r3, r5
100040f6:	42a2      	cmp	r2, r4
100040f8:	4140      	adcs	r0, r0
100040fa:	1e5a      	subs	r2, r3, #1
100040fc:	4193      	sbcs	r3, r2
100040fe:	4318      	orrs	r0, r3
10004100:	e7a2      	b.n	10004048 <best_effort_wfe_or_timeout+0x30>
10004102:	454a      	cmp	r2, r9
10004104:	d1e5      	bne.n	100040d2 <best_effort_wfe_or_timeout+0xba>
10004106:	bf20      	wfe
10004108:	e7e3      	b.n	100040d2 <best_effort_wfe_or_timeout+0xba>
1000410a:	46c0      	nop			@ (mov r8, r8)
1000410c:	40054000 	.word	0x40054000
10004110:	20000ff4 	.word	0x20000ff4
10004114:	100038f9 	.word	0x100038f9

10004118 <timer_hardware_alarm_claim>:
10004118:	b510      	push	{r4, lr}
1000411a:	4a02      	ldr	r2, [pc, #8]	@ (10004124 <timer_hardware_alarm_claim+0xc>)
1000411c:	4802      	ldr	r0, [pc, #8]	@ (10004128 <timer_hardware_alarm_claim+0x10>)
1000411e:	f7ff f879 	bl	10003214 <hw_claim_or_assert>
10004122:	bd10      	pop	{r4, pc}
10004124:	1000add8 	.word	0x1000add8
10004128:	20004a68 	.word	0x20004a68

1000412c <timer_time_us_64>:
1000412c:	0003      	movs	r3, r0
1000412e:	6a41      	ldr	r1, [r0, #36]	@ 0x24
10004130:	000a      	movs	r2, r1
10004132:	6a98      	ldr	r0, [r3, #40]	@ 0x28
10004134:	6a59      	ldr	r1, [r3, #36]	@ 0x24
10004136:	428a      	cmp	r2, r1
10004138:	d1fa      	bne.n	10004130 <timer_time_us_64+0x4>
1000413a:	4770      	bx	lr

1000413c <time_us_64>:
1000413c:	4b03      	ldr	r3, [pc, #12]	@ (1000414c <time_us_64+0x10>)
1000413e:	6a59      	ldr	r1, [r3, #36]	@ 0x24
10004140:	000a      	movs	r2, r1
10004142:	6a98      	ldr	r0, [r3, #40]	@ 0x28
10004144:	6a59      	ldr	r1, [r3, #36]	@ 0x24
10004146:	4291      	cmp	r1, r2
10004148:	d1fa      	bne.n	10004140 <time_us_64+0x4>
1000414a:	4770      	bx	lr
1000414c:	40054000 	.word	0x40054000

10004150 <busy_wait_until>:
10004150:	4a06      	ldr	r2, [pc, #24]	@ (1000416c <busy_wait_until+0x1c>)
10004152:	6a53      	ldr	r3, [r2, #36]	@ 0x24
10004154:	4299      	cmp	r1, r3
10004156:	d8fc      	bhi.n	10004152 <busy_wait_until+0x2>
10004158:	d107      	bne.n	1000416a <busy_wait_until+0x1a>
1000415a:	4b04      	ldr	r3, [pc, #16]	@ (1000416c <busy_wait_until+0x1c>)
1000415c:	e002      	b.n	10004164 <busy_wait_until+0x14>
1000415e:	6a5a      	ldr	r2, [r3, #36]	@ 0x24
10004160:	4291      	cmp	r1, r2
10004162:	d102      	bne.n	1000416a <busy_wait_until+0x1a>
10004164:	6a9a      	ldr	r2, [r3, #40]	@ 0x28
10004166:	4290      	cmp	r0, r2
10004168:	d8f9      	bhi.n	1000415e <busy_wait_until+0xe>
1000416a:	4770      	bx	lr
1000416c:	40054000 	.word	0x40054000

10004170 <clock_configure_int_divider>:
10004170:	b5f8      	push	{r3, r4, r5, r6, r7, lr}
10004172:	46de      	mov	lr, fp
10004174:	464e      	mov	r6, r9
10004176:	4645      	mov	r5, r8
10004178:	4657      	mov	r7, sl
1000417a:	b5e0      	push	{r5, r6, r7, lr}
1000417c:	0005      	movs	r5, r0
1000417e:	468b      	mov	fp, r1
10004180:	0018      	movs	r0, r3
10004182:	990a      	ldr	r1, [sp, #40]	@ 0x28
10004184:	4691      	mov	r9, r2
10004186:	f000 fb4f 	bl	10004828 <__wrap___aeabi_uidiv>
1000418a:	9b0a      	ldr	r3, [sp, #40]	@ 0x28
1000418c:	006c      	lsls	r4, r5, #1
1000418e:	021e      	lsls	r6, r3, #8
10004190:	1964      	adds	r4, r4, r5
10004192:	4b30      	ldr	r3, [pc, #192]	@ (10004254 <clock_configure_int_divider+0xe4>)
10004194:	00a4      	lsls	r4, r4, #2
10004196:	18e4      	adds	r4, r4, r3
10004198:	6863      	ldr	r3, [r4, #4]
1000419a:	4680      	mov	r8, r0
1000419c:	429e      	cmp	r6, r3
1000419e:	d900      	bls.n	100041a2 <clock_configure_int_divider+0x32>
100041a0:	6066      	str	r6, [r4, #4]
100041a2:	1f2f      	subs	r7, r5, #4
100041a4:	b2fb      	uxtb	r3, r7
100041a6:	469a      	mov	sl, r3
100041a8:	2b01      	cmp	r3, #1
100041aa:	d92f      	bls.n	1000420c <clock_configure_int_divider+0x9c>
100041ac:	23c0      	movs	r3, #192	@ 0xc0
100041ae:	2280      	movs	r2, #128	@ 0x80
100041b0:	4f29      	ldr	r7, [pc, #164]	@ (10004258 <clock_configure_int_divider+0xe8>)
100041b2:	00ad      	lsls	r5, r5, #2
100041b4:	019b      	lsls	r3, r3, #6
100041b6:	5979      	ldr	r1, [r7, r5]
100041b8:	0112      	lsls	r2, r2, #4
100041ba:	18e3      	adds	r3, r4, r3
100041bc:	601a      	str	r2, [r3, #0]
100041be:	2900      	cmp	r1, #0
100041c0:	d11b      	bne.n	100041fa <clock_configure_int_divider+0x8a>
100041c2:	464b      	mov	r3, r9
100041c4:	6822      	ldr	r2, [r4, #0]
100041c6:	015b      	lsls	r3, r3, #5
100041c8:	4053      	eors	r3, r2
100041ca:	22e0      	movs	r2, #224	@ 0xe0
100041cc:	4013      	ands	r3, r2
100041ce:	2280      	movs	r2, #128	@ 0x80
100041d0:	0152      	lsls	r2, r2, #5
100041d2:	18a2      	adds	r2, r4, r2
100041d4:	6013      	str	r3, [r2, #0]
100041d6:	4653      	mov	r3, sl
100041d8:	2b01      	cmp	r3, #1
100041da:	d92f      	bls.n	1000423c <clock_configure_int_divider+0xcc>
100041dc:	2380      	movs	r3, #128	@ 0x80
100041de:	2280      	movs	r2, #128	@ 0x80
100041e0:	019b      	lsls	r3, r3, #6
100041e2:	18e3      	adds	r3, r4, r3
100041e4:	0112      	lsls	r2, r2, #4
100041e6:	601a      	str	r2, [r3, #0]
100041e8:	4643      	mov	r3, r8
100041ea:	6066      	str	r6, [r4, #4]
100041ec:	517b      	str	r3, [r7, r5]
100041ee:	bcf0      	pop	{r4, r5, r6, r7}
100041f0:	46bb      	mov	fp, r7
100041f2:	46b2      	mov	sl, r6
100041f4:	46a9      	mov	r9, r5
100041f6:	46a0      	mov	r8, r4
100041f8:	bdf8      	pop	{r3, r4, r5, r6, r7, pc}
100041fa:	6978      	ldr	r0, [r7, #20]
100041fc:	f000 fb14 	bl	10004828 <__wrap___aeabi_uidiv>
10004200:	3001      	adds	r0, #1
10004202:	0043      	lsls	r3, r0, #1
10004204:	181b      	adds	r3, r3, r0
10004206:	3b03      	subs	r3, #3
10004208:	d2fd      	bcs.n	10004206 <clock_configure_int_divider+0x96>
1000420a:	e7da      	b.n	100041c2 <clock_configure_int_divider+0x52>
1000420c:	465b      	mov	r3, fp
1000420e:	2b01      	cmp	r3, #1
10004210:	d1cc      	bne.n	100041ac <clock_configure_int_divider+0x3c>
10004212:	23c0      	movs	r3, #192	@ 0xc0
10004214:	2203      	movs	r2, #3
10004216:	019b      	lsls	r3, r3, #6
10004218:	18e3      	adds	r3, r4, r3
1000421a:	601a      	str	r2, [r3, #0]
1000421c:	3a02      	subs	r2, #2
1000421e:	68a3      	ldr	r3, [r4, #8]
10004220:	421a      	tst	r2, r3
10004222:	d0fc      	beq.n	1000421e <clock_configure_int_divider+0xae>
10004224:	464a      	mov	r2, r9
10004226:	6823      	ldr	r3, [r4, #0]
10004228:	0152      	lsls	r2, r2, #5
1000422a:	405a      	eors	r2, r3
1000422c:	23e0      	movs	r3, #224	@ 0xe0
1000422e:	4013      	ands	r3, r2
10004230:	2280      	movs	r2, #128	@ 0x80
10004232:	0152      	lsls	r2, r2, #5
10004234:	18a2      	adds	r2, r4, r2
10004236:	4f08      	ldr	r7, [pc, #32]	@ (10004258 <clock_configure_int_divider+0xe8>)
10004238:	6013      	str	r3, [r2, #0]
1000423a:	00ad      	lsls	r5, r5, #2
1000423c:	4658      	mov	r0, fp
1000423e:	2303      	movs	r3, #3
10004240:	6821      	ldr	r1, [r4, #0]
10004242:	4041      	eors	r1, r0
10004244:	400b      	ands	r3, r1
10004246:	6013      	str	r3, [r2, #0]
10004248:	2201      	movs	r2, #1
1000424a:	4082      	lsls	r2, r0
1000424c:	68a3      	ldr	r3, [r4, #8]
1000424e:	421a      	tst	r2, r3
10004250:	d0fc      	beq.n	1000424c <clock_configure_int_divider+0xdc>
10004252:	e7c3      	b.n	100041dc <clock_configure_int_divider+0x6c>
10004254:	40008000 	.word	0x40008000
10004258:	20004a70 	.word	0x20004a70

1000425c <clock_configure_undivided>:
1000425c:	b5f0      	push	{r4, r5, r6, r7, lr}
1000425e:	46d6      	mov	lr, sl
10004260:	464f      	mov	r7, r9
10004262:	4646      	mov	r6, r8
10004264:	0044      	lsls	r4, r0, #1
10004266:	4698      	mov	r8, r3
10004268:	1824      	adds	r4, r4, r0
1000426a:	4b32      	ldr	r3, [pc, #200]	@ (10004334 <clock_configure_undivided+0xd8>)
1000426c:	00a4      	lsls	r4, r4, #2
1000426e:	18e4      	adds	r4, r4, r3
10004270:	6863      	ldr	r3, [r4, #4]
10004272:	468a      	mov	sl, r1
10004274:	4691      	mov	r9, r2
10004276:	b5c0      	push	{r6, r7, lr}
10004278:	2bff      	cmp	r3, #255	@ 0xff
1000427a:	d802      	bhi.n	10004282 <clock_configure_undivided+0x26>
1000427c:	2380      	movs	r3, #128	@ 0x80
1000427e:	005b      	lsls	r3, r3, #1
10004280:	6063      	str	r3, [r4, #4]
10004282:	1f06      	subs	r6, r0, #4
10004284:	b2f6      	uxtb	r6, r6
10004286:	2e01      	cmp	r6, #1
10004288:	d92f      	bls.n	100042ea <clock_configure_undivided+0x8e>
1000428a:	23c0      	movs	r3, #192	@ 0xc0
1000428c:	2280      	movs	r2, #128	@ 0x80
1000428e:	4f2a      	ldr	r7, [pc, #168]	@ (10004338 <clock_configure_undivided+0xdc>)
10004290:	0085      	lsls	r5, r0, #2
10004292:	019b      	lsls	r3, r3, #6
10004294:	5979      	ldr	r1, [r7, r5]
10004296:	0112      	lsls	r2, r2, #4
10004298:	18e3      	adds	r3, r4, r3
1000429a:	601a      	str	r2, [r3, #0]
1000429c:	2900      	cmp	r1, #0
1000429e:	d11b      	bne.n	100042d8 <clock_configure_undivided+0x7c>
100042a0:	464b      	mov	r3, r9
100042a2:	6822      	ldr	r2, [r4, #0]
100042a4:	015b      	lsls	r3, r3, #5
100042a6:	4053      	eors	r3, r2
100042a8:	22e0      	movs	r2, #224	@ 0xe0
100042aa:	4013      	ands	r3, r2
100042ac:	2280      	movs	r2, #128	@ 0x80
100042ae:	0152      	lsls	r2, r2, #5
100042b0:	18a2      	adds	r2, r4, r2
100042b2:	6013      	str	r3, [r2, #0]
100042b4:	2e01      	cmp	r6, #1
100042b6:	d930      	bls.n	1000431a <clock_configure_undivided+0xbe>
100042b8:	2380      	movs	r3, #128	@ 0x80
100042ba:	2280      	movs	r2, #128	@ 0x80
100042bc:	019b      	lsls	r3, r3, #6
100042be:	18e3      	adds	r3, r4, r3
100042c0:	0112      	lsls	r2, r2, #4
100042c2:	601a      	str	r2, [r3, #0]
100042c4:	2380      	movs	r3, #128	@ 0x80
100042c6:	005b      	lsls	r3, r3, #1
100042c8:	6063      	str	r3, [r4, #4]
100042ca:	4643      	mov	r3, r8
100042cc:	517b      	str	r3, [r7, r5]
100042ce:	bce0      	pop	{r5, r6, r7}
100042d0:	46ba      	mov	sl, r7
100042d2:	46b1      	mov	r9, r6
100042d4:	46a8      	mov	r8, r5
100042d6:	bdf0      	pop	{r4, r5, r6, r7, pc}
100042d8:	6978      	ldr	r0, [r7, #20]
100042da:	f000 faa5 	bl	10004828 <__wrap___aeabi_uidiv>
100042de:	3001      	adds	r0, #1
100042e0:	0043      	lsls	r3, r0, #1
100042e2:	181b      	adds	r3, r3, r0
100042e4:	3b03      	subs	r3, #3
100042e6:	d2fd      	bcs.n	100042e4 <clock_configure_undivided+0x88>
100042e8:	e7da      	b.n	100042a0 <clock_configure_undivided+0x44>
100042ea:	4653      	mov	r3, sl
100042ec:	2b01      	cmp	r3, #1
100042ee:	d1cc      	bne.n	1000428a <clock_configure_undivided+0x2e>
100042f0:	23c0      	movs	r3, #192	@ 0xc0
100042f2:	2203      	movs	r2, #3
100042f4:	019b      	lsls	r3, r3, #6
100042f6:	18e3      	adds	r3, r4, r3
100042f8:	601a      	str	r2, [r3, #0]
100042fa:	3a02      	subs	r2, #2
100042fc:	68a3      	ldr	r3, [r4, #8]
100042fe:	421a      	tst	r2, r3
10004300:	d0fc      	beq.n	100042fc <clock_configure_undivided+0xa0>
10004302:	464a      	mov	r2, r9
10004304:	6823      	ldr	r3, [r4, #0]
10004306:	0152      	lsls	r2, r2, #5
10004308:	405a      	eors	r2, r3
1000430a:	23e0      	movs	r3, #224	@ 0xe0
1000430c:	4013      	ands	r3, r2
1000430e:	2280      	movs	r2, #128	@ 0x80
10004310:	0152      	lsls	r2, r2, #5
10004312:	18a2      	adds	r2, r4, r2
10004314:	4f08      	ldr	r7, [pc, #32]	@ (10004338 <clock_configure_undivided+0xdc>)
10004316:	6013      	str	r3, [r2, #0]
10004318:	0085      	lsls	r5, r0, #2
1000431a:	4650      	mov	r0, sl
1000431c:	2303      	movs	r3, #3
1000431e:	6821      	ldr	r1, [r4, #0]
10004320:	4041      	eors	r1, r0
10004322:	400b      	ands	r3, r1
10004324:	6013      	str	r3, [r2, #0]
10004326:	2201      	movs	r2, #1
10004328:	4082      	lsls	r2, r0
1000432a:	68a3      	ldr	r3, [r4, #8]
1000432c:	421a      	tst	r2, r3
1000432e:	d0fc      	beq.n	1000432a <clock_configure_undivided+0xce>
10004330:	e7c2      	b.n	100042b8 <clock_configure_undivided+0x5c>
10004332:	46c0      	nop			@ (mov r8, r8)
10004334:	40008000 	.word	0x40008000
10004338:	20004a70 	.word	0x20004a70

1000433c <clock_get_hz>:
1000433c:	4b01      	ldr	r3, [pc, #4]	@ (10004344 <clock_get_hz+0x8>)
1000433e:	0080      	lsls	r0, r0, #2
10004340:	58c0      	ldr	r0, [r0, r3]
10004342:	4770      	bx	lr
10004344:	20004a70 	.word	0x20004a70

10004348 <pll_init>:
10004348:	b5f0      	push	{r4, r5, r6, r7, lr}
1000434a:	46c6      	mov	lr, r8
1000434c:	0004      	movs	r4, r0
1000434e:	b500      	push	{lr}
10004350:	4823      	ldr	r0, [pc, #140]	@ (100043e0 <pll_init+0x98>)
10004352:	0016      	movs	r6, r2
10004354:	4698      	mov	r8, r3
10004356:	000d      	movs	r5, r1
10004358:	f000 fa66 	bl	10004828 <__wrap___aeabi_uidiv>
1000435c:	0001      	movs	r1, r0
1000435e:	0030      	movs	r0, r6
10004360:	f000 fa62 	bl	10004828 <__wrap___aeabi_uidiv>
10004364:	4643      	mov	r3, r8
10004366:	9a06      	ldr	r2, [sp, #24]
10004368:	041b      	lsls	r3, r3, #16
1000436a:	0312      	lsls	r2, r2, #12
1000436c:	4313      	orrs	r3, r2
1000436e:	469c      	mov	ip, r3
10004370:	6823      	ldr	r3, [r4, #0]
10004372:	0006      	movs	r6, r0
10004374:	2b00      	cmp	r3, #0
10004376:	db22      	blt.n	100043be <pll_init+0x76>
10004378:	4b1a      	ldr	r3, [pc, #104]	@ (100043e4 <pll_init+0x9c>)
1000437a:	481b      	ldr	r0, [pc, #108]	@ (100043e8 <pll_init+0xa0>)
1000437c:	18e2      	adds	r2, r4, r3
1000437e:	1e53      	subs	r3, r2, #1
10004380:	419a      	sbcs	r2, r3
10004382:	2380      	movs	r3, #128	@ 0x80
10004384:	4252      	negs	r2, r2
10004386:	0b12      	lsrs	r2, r2, #12
10004388:	019b      	lsls	r3, r3, #6
1000438a:	0312      	lsls	r2, r2, #12
1000438c:	18d2      	adds	r2, r2, r3
1000438e:	4b17      	ldr	r3, [pc, #92]	@ (100043ec <pll_init+0xa4>)
10004390:	601a      	str	r2, [r3, #0]
10004392:	4b17      	ldr	r3, [pc, #92]	@ (100043f0 <pll_init+0xa8>)
10004394:	601a      	str	r2, [r3, #0]
10004396:	0013      	movs	r3, r2
10004398:	6801      	ldr	r1, [r0, #0]
1000439a:	438b      	bics	r3, r1
1000439c:	d1fb      	bne.n	10004396 <pll_init+0x4e>
1000439e:	2221      	movs	r2, #33	@ 0x21
100043a0:	4b14      	ldr	r3, [pc, #80]	@ (100043f4 <pll_init+0xac>)
100043a2:	6025      	str	r5, [r4, #0]
100043a4:	18e3      	adds	r3, r4, r3
100043a6:	60a6      	str	r6, [r4, #8]
100043a8:	601a      	str	r2, [r3, #0]
100043aa:	6822      	ldr	r2, [r4, #0]
100043ac:	2a00      	cmp	r2, #0
100043ae:	dafc      	bge.n	100043aa <pll_init+0x62>
100043b0:	4662      	mov	r2, ip
100043b2:	60e2      	str	r2, [r4, #12]
100043b4:	2208      	movs	r2, #8
100043b6:	601a      	str	r2, [r3, #0]
100043b8:	bc80      	pop	{r7}
100043ba:	46b8      	mov	r8, r7
100043bc:	bdf0      	pop	{r4, r5, r6, r7, pc}
100043be:	233f      	movs	r3, #63	@ 0x3f
100043c0:	6822      	ldr	r2, [r4, #0]
100043c2:	4013      	ands	r3, r2
100043c4:	42ab      	cmp	r3, r5
100043c6:	d1d7      	bne.n	10004378 <pll_init+0x30>
100043c8:	68a3      	ldr	r3, [r4, #8]
100043ca:	051b      	lsls	r3, r3, #20
100043cc:	0d1b      	lsrs	r3, r3, #20
100043ce:	4283      	cmp	r3, r0
100043d0:	d1d2      	bne.n	10004378 <pll_init+0x30>
100043d2:	22ee      	movs	r2, #238	@ 0xee
100043d4:	68e3      	ldr	r3, [r4, #12]
100043d6:	02d2      	lsls	r2, r2, #11
100043d8:	4013      	ands	r3, r2
100043da:	4563      	cmp	r3, ip
100043dc:	d1cc      	bne.n	10004378 <pll_init+0x30>
100043de:	e7eb      	b.n	100043b8 <pll_init+0x70>
100043e0:	00b71b00 	.word	0x00b71b00
100043e4:	bffd4000 	.word	0xbffd4000
100043e8:	4000c008 	.word	0x4000c008
100043ec:	4000e000 	.word	0x4000e000
100043f0:	4000f000 	.word	0x4000f000
100043f4:	00003004 	.word	0x00003004

100043f8 <watchdog_reboot>:
100043f8:	b510      	push	{r4, lr}
100043fa:	2480      	movs	r4, #128	@ 0x80
100043fc:	4b1c      	ldr	r3, [pc, #112]	@ (10004470 <watchdog_reboot+0x78>)
100043fe:	05e4      	lsls	r4, r4, #23
10004400:	601c      	str	r4, [r3, #0]
10004402:	2800      	cmp	r0, #0
10004404:	d01a      	beq.n	1000443c <watchdog_reboot+0x44>
10004406:	2301      	movs	r3, #1
10004408:	4c1a      	ldr	r4, [pc, #104]	@ (10004474 <watchdog_reboot+0x7c>)
1000440a:	4318      	orrs	r0, r3
1000440c:	4b1a      	ldr	r3, [pc, #104]	@ (10004478 <watchdog_reboot+0x80>)
1000440e:	61dc      	str	r4, [r3, #28]
10004410:	4c1a      	ldr	r4, [pc, #104]	@ (1000447c <watchdog_reboot+0x84>)
10004412:	4044      	eors	r4, r0
10004414:	621c      	str	r4, [r3, #32]
10004416:	6259      	str	r1, [r3, #36]	@ 0x24
10004418:	6298      	str	r0, [r3, #40]	@ 0x28
1000441a:	2180      	movs	r1, #128	@ 0x80
1000441c:	4b14      	ldr	r3, [pc, #80]	@ (10004470 <watchdog_reboot+0x78>)
1000441e:	05c9      	lsls	r1, r1, #23
10004420:	6019      	str	r1, [r3, #0]
10004422:	4817      	ldr	r0, [pc, #92]	@ (10004480 <watchdog_reboot+0x88>)
10004424:	4917      	ldr	r1, [pc, #92]	@ (10004484 <watchdog_reboot+0x8c>)
10004426:	6008      	str	r0, [r1, #0]
10004428:	21e0      	movs	r1, #224	@ 0xe0
1000442a:	04c9      	lsls	r1, r1, #19
1000442c:	6019      	str	r1, [r3, #0]
1000442e:	2a00      	cmp	r2, #0
10004430:	d107      	bne.n	10004442 <watchdog_reboot+0x4a>
10004432:	2280      	movs	r2, #128	@ 0x80
10004434:	4b14      	ldr	r3, [pc, #80]	@ (10004488 <watchdog_reboot+0x90>)
10004436:	0612      	lsls	r2, r2, #24
10004438:	601a      	str	r2, [r3, #0]
1000443a:	bd10      	pop	{r4, pc}
1000443c:	4b0e      	ldr	r3, [pc, #56]	@ (10004478 <watchdog_reboot+0x80>)
1000443e:	61d8      	str	r0, [r3, #28]
10004440:	e7eb      	b.n	1000441a <watchdog_reboot+0x22>
10004442:	0153      	lsls	r3, r2, #5
10004444:	1a9b      	subs	r3, r3, r2
10004446:	009b      	lsls	r3, r3, #2
10004448:	189a      	adds	r2, r3, r2
1000444a:	2380      	movs	r3, #128	@ 0x80
1000444c:	0112      	lsls	r2, r2, #4
1000444e:	045b      	lsls	r3, r3, #17
10004450:	429a      	cmp	r2, r3
10004452:	d209      	bcs.n	10004468 <watchdog_reboot+0x70>
10004454:	0013      	movs	r3, r2
10004456:	490d      	ldr	r1, [pc, #52]	@ (1000448c <watchdog_reboot+0x94>)
10004458:	600b      	str	r3, [r1, #0]
1000445a:	4b07      	ldr	r3, [pc, #28]	@ (10004478 <watchdog_reboot+0x80>)
1000445c:	605a      	str	r2, [r3, #4]
1000445e:	2280      	movs	r2, #128	@ 0x80
10004460:	4b09      	ldr	r3, [pc, #36]	@ (10004488 <watchdog_reboot+0x90>)
10004462:	05d2      	lsls	r2, r2, #23
10004464:	601a      	str	r2, [r3, #0]
10004466:	e7e8      	b.n	1000443a <watchdog_reboot+0x42>
10004468:	4b09      	ldr	r3, [pc, #36]	@ (10004490 <watchdog_reboot+0x98>)
1000446a:	001a      	movs	r2, r3
1000446c:	e7f3      	b.n	10004456 <watchdog_reboot+0x5e>
1000446e:	46c0      	nop			@ (mov r8, r8)
10004470:	4005b000 	.word	0x4005b000
10004474:	b007c0d3 	.word	0xb007c0d3
10004478:	40058000 	.word	0x40058000
1000447c:	4ff83f2d 	.word	0x4ff83f2d
10004480:	0001fffc 	.word	0x0001fffc
10004484:	40012008 	.word	0x40012008
10004488:	4005a000 	.word	0x4005a000
1000448c:	20005628 	.word	0x20005628
10004490:	00ffffff 	.word	0x00ffffff

10004494 <tick_start>:
10004494:	2380      	movs	r3, #128	@ 0x80
10004496:	4a02      	ldr	r2, [pc, #8]	@ (100044a0 <tick_start+0xc>)
10004498:	009b      	lsls	r3, r3, #2
1000449a:	430b      	orrs	r3, r1
1000449c:	62d3      	str	r3, [r2, #44]	@ 0x2c
1000449e:	4770      	bx	lr
100044a0:	40058000 	.word	0x40058000

100044a4 <rom_func_lookup>:
100044a4:	2300      	movs	r3, #0
100044a6:	b510      	push	{r4, lr}
100044a8:	0001      	movs	r1, r0
100044aa:	8a98      	ldrh	r0, [r3, #20]
100044ac:	8b1b      	ldrh	r3, [r3, #24]
100044ae:	4798      	blx	r3
100044b0:	bd10      	pop	{r4, pc}
100044b2:	46c0      	nop			@ (mov r8, r8)

100044b4 <rom_data_lookup>:
100044b4:	2316      	movs	r3, #22
100044b6:	b510      	push	{r4, lr}
100044b8:	0001      	movs	r1, r0
100044ba:	8818      	ldrh	r0, [r3, #0]
100044bc:	885b      	ldrh	r3, [r3, #2]
100044be:	4798      	blx	r3
100044c0:	bd10      	pop	{r4, pc}
100044c2:	46c0      	nop			@ (mov r8, r8)

100044c4 <rom_funcs_lookup>:
100044c4:	b5f8      	push	{r3, r4, r5, r6, r7, lr}
100044c6:	4647      	mov	r7, r8
100044c8:	46ce      	mov	lr, r9
100044ca:	b580      	push	{r7, lr}
100044cc:	1e0f      	subs	r7, r1, #0
100044ce:	d018      	beq.n	10004502 <rom_funcs_lookup+0x3e>
100044d0:	2314      	movs	r3, #20
100044d2:	4699      	mov	r9, r3
100044d4:	3304      	adds	r3, #4
100044d6:	0004      	movs	r4, r0
100044d8:	2500      	movs	r5, #0
100044da:	2601      	movs	r6, #1
100044dc:	4698      	mov	r8, r3
100044de:	464b      	mov	r3, r9
100044e0:	8818      	ldrh	r0, [r3, #0]
100044e2:	4643      	mov	r3, r8
100044e4:	6821      	ldr	r1, [r4, #0]
100044e6:	881b      	ldrh	r3, [r3, #0]
100044e8:	4798      	blx	r3
100044ea:	c401      	stmia	r4!, {r0}
100044ec:	1e43      	subs	r3, r0, #1
100044ee:	4198      	sbcs	r0, r3
100044f0:	3501      	adds	r5, #1
100044f2:	4006      	ands	r6, r0
100044f4:	42af      	cmp	r7, r5
100044f6:	d1f2      	bne.n	100044de <rom_funcs_lookup+0x1a>
100044f8:	0030      	movs	r0, r6
100044fa:	bcc0      	pop	{r6, r7}
100044fc:	46b9      	mov	r9, r7
100044fe:	46b0      	mov	r8, r6
10004500:	bdf8      	pop	{r3, r4, r5, r6, r7, pc}
10004502:	2601      	movs	r6, #1
10004504:	e7f8      	b.n	100044f8 <rom_funcs_lookup+0x34>
10004506:	46c0      	nop			@ (mov r8, r8)

10004508 <rom_reset_usb_boot_extra>:
10004508:	2300      	movs	r3, #0
1000450a:	b570      	push	{r4, r5, r6, lr}
1000450c:	0004      	movs	r4, r0
1000450e:	000d      	movs	r5, r1
10004510:	8a98      	ldrh	r0, [r3, #20]
10004512:	4905      	ldr	r1, [pc, #20]	@ (10004528 <rom_reset_usb_boot_extra+0x20>)
10004514:	8b1b      	ldrh	r3, [r3, #24]
10004516:	4798      	blx	r3
10004518:	0003      	movs	r3, r0
1000451a:	2000      	movs	r0, #0
1000451c:	2c00      	cmp	r4, #0
1000451e:	db01      	blt.n	10004524 <rom_reset_usb_boot_extra+0x1c>
10004520:	3001      	adds	r0, #1
10004522:	40a0      	lsls	r0, r4
10004524:	0029      	movs	r1, r5
10004526:	4798      	blx	r3
10004528:	00004255 	.word	0x00004255

1000452c <xosc_init>:
1000452c:	23aa      	movs	r3, #170	@ 0xaa
1000452e:	4a06      	ldr	r2, [pc, #24]	@ (10004548 <xosc_init+0x1c>)
10004530:	011b      	lsls	r3, r3, #4
10004532:	6013      	str	r3, [r2, #0]
10004534:	238d      	movs	r3, #141	@ 0x8d
10004536:	005b      	lsls	r3, r3, #1
10004538:	60d3      	str	r3, [r2, #12]
1000453a:	4904      	ldr	r1, [pc, #16]	@ (1000454c <xosc_init+0x20>)
1000453c:	4b04      	ldr	r3, [pc, #16]	@ (10004550 <xosc_init+0x24>)
1000453e:	6019      	str	r1, [r3, #0]
10004540:	6853      	ldr	r3, [r2, #4]
10004542:	2b00      	cmp	r3, #0
10004544:	dafc      	bge.n	10004540 <xosc_init+0x14>
10004546:	4770      	bx	lr
10004548:	40024000 	.word	0x40024000
1000454c:	00fab000 	.word	0x00fab000
10004550:	40026000 	.word	0x40026000

10004554 <first_per_core_initializer>:
10004554:	4770      	bx	lr
10004556:	46c0      	nop			@ (mov r8, r8)

10004558 <hard_assertion_failure>:
10004558:	b510      	push	{r4, lr}
1000455a:	4801      	ldr	r0, [pc, #4]	@ (10004560 <hard_assertion_failure+0x8>)
1000455c:	f7fe fe2c 	bl	100031b8 <panic>
10004560:	1000adfc 	.word	0x1000adfc

10004564 <runtime_run_initializers>:
10004564:	b570      	push	{r4, r5, r6, lr}
10004566:	4d07      	ldr	r5, [pc, #28]	@ (10004584 <runtime_run_initializers+0x20>)
10004568:	4e07      	ldr	r6, [pc, #28]	@ (10004588 <runtime_run_initializers+0x24>)
1000456a:	42b5      	cmp	r5, r6
1000456c:	d209      	bcs.n	10004582 <runtime_run_initializers+0x1e>
1000456e:	2400      	movs	r4, #0
10004570:	3e01      	subs	r6, #1
10004572:	1b76      	subs	r6, r6, r5
10004574:	08b6      	lsrs	r6, r6, #2
10004576:	3601      	adds	r6, #1
10004578:	cd08      	ldmia	r5!, {r3}
1000457a:	3401      	adds	r4, #1
1000457c:	4798      	blx	r3
1000457e:	42b4      	cmp	r4, r6
10004580:	d1fa      	bne.n	10004578 <runtime_run_initializers+0x14>
10004582:	bd70      	pop	{r4, r5, r6, pc}
10004584:	1000a520 	.word	0x1000a520
10004588:	1000a55c 	.word	0x1000a55c

1000458c <runtime_run_per_core_initializers>:
1000458c:	b570      	push	{r4, r5, r6, lr}
1000458e:	4d07      	ldr	r5, [pc, #28]	@ (100045ac <runtime_run_per_core_initializers+0x20>)
10004590:	4e07      	ldr	r6, [pc, #28]	@ (100045b0 <runtime_run_per_core_initializers+0x24>)
10004592:	42b5      	cmp	r5, r6
10004594:	d209      	bcs.n	100045aa <runtime_run_per_core_initializers+0x1e>
10004596:	2400      	movs	r4, #0
10004598:	3e01      	subs	r6, #1
1000459a:	1b76      	subs	r6, r6, r5
1000459c:	08b6      	lsrs	r6, r6, #2
1000459e:	3601      	adds	r6, #1
100045a0:	cd08      	ldmia	r5!, {r3}
100045a2:	3401      	adds	r4, #1
100045a4:	4798      	blx	r3
100045a6:	42b4      	cmp	r4, r6
100045a8:	d1fa      	bne.n	100045a0 <runtime_run_per_core_initializers+0x14>
100045aa:	bd70      	pop	{r4, r5, r6, pc}
100045ac:	1000a554 	.word	0x1000a554
100045b0:	1000a55c 	.word	0x1000a55c

100045b4 <runtime_init_early_resets>:
100045b4:	4b05      	ldr	r3, [pc, #20]	@ (100045cc <runtime_init_early_resets+0x18>)
100045b6:	4a06      	ldr	r2, [pc, #24]	@ (100045d0 <runtime_init_early_resets+0x1c>)
100045b8:	4906      	ldr	r1, [pc, #24]	@ (100045d4 <runtime_init_early_resets+0x20>)
100045ba:	601a      	str	r2, [r3, #0]
100045bc:	4a06      	ldr	r2, [pc, #24]	@ (100045d8 <runtime_init_early_resets+0x24>)
100045be:	4b07      	ldr	r3, [pc, #28]	@ (100045dc <runtime_init_early_resets+0x28>)
100045c0:	601a      	str	r2, [r3, #0]
100045c2:	0010      	movs	r0, r2
100045c4:	680b      	ldr	r3, [r1, #0]
100045c6:	4398      	bics	r0, r3
100045c8:	d1fb      	bne.n	100045c2 <runtime_init_early_resets+0xe>
100045ca:	4770      	bx	lr
100045cc:	4000e000 	.word	0x4000e000
100045d0:	fefbcdbf 	.word	0xfefbcdbf
100045d4:	4000c008 	.word	0x4000c008
100045d8:	003c7ffe 	.word	0x003c7ffe
100045dc:	4000f000 	.word	0x4000f000

100045e0 <runtime_init_usb_power_down>:
100045e0:	4b04      	ldr	r3, [pc, #16]	@ (100045f4 <runtime_init_usb_power_down+0x14>)
100045e2:	6cdb      	ldr	r3, [r3, #76]	@ 0x4c
100045e4:	2b00      	cmp	r3, #0
100045e6:	d103      	bne.n	100045f0 <runtime_init_usb_power_down+0x10>
100045e8:	2280      	movs	r2, #128	@ 0x80
100045ea:	4b03      	ldr	r3, [pc, #12]	@ (100045f8 <runtime_init_usb_power_down+0x18>)
100045ec:	02d2      	lsls	r2, r2, #11
100045ee:	601a      	str	r2, [r3, #0]
100045f0:	4770      	bx	lr
100045f2:	46c0      	nop			@ (mov r8, r8)
100045f4:	50110000 	.word	0x50110000
100045f8:	5011204c 	.word	0x5011204c

100045fc <runtime_init_post_clock_resets>:
100045fc:	4a04      	ldr	r2, [pc, #16]	@ (10004610 <runtime_init_post_clock_resets+0x14>)
100045fe:	4b05      	ldr	r3, [pc, #20]	@ (10004614 <runtime_init_post_clock_resets+0x18>)
10004600:	601a      	str	r2, [r3, #0]
10004602:	4a05      	ldr	r2, [pc, #20]	@ (10004618 <runtime_init_post_clock_resets+0x1c>)
10004604:	6813      	ldr	r3, [r2, #0]
10004606:	01db      	lsls	r3, r3, #7
10004608:	3380      	adds	r3, #128	@ 0x80
1000460a:	d1fb      	bne.n	10004604 <runtime_init_post_clock_resets+0x8>
1000460c:	4770      	bx	lr
1000460e:	46c0      	nop			@ (mov r8, r8)
10004610:	01ffffff 	.word	0x01ffffff
10004614:	4000f000 	.word	0x4000f000
10004618:	4000c008 	.word	0x4000c008

1000461c <runtime_init_rp2040_gpio_ie_disable>:
1000461c:	2240      	movs	r2, #64	@ 0x40
1000461e:	4b03      	ldr	r3, [pc, #12]	@ (1000462c <runtime_init_rp2040_gpio_ie_disable+0x10>)
10004620:	679a      	str	r2, [r3, #120]	@ 0x78
10004622:	675a      	str	r2, [r3, #116]	@ 0x74
10004624:	671a      	str	r2, [r3, #112]	@ 0x70
10004626:	66da      	str	r2, [r3, #108]	@ 0x6c
10004628:	4770      	bx	lr
1000462a:	46c0      	nop			@ (mov r8, r8)
1000462c:	4001f000 	.word	0x4001f000

10004630 <runtime_init_spin_locks_reset>:
10004630:	b510      	push	{r4, lr}
10004632:	f7fe fe77 	bl	10003324 <spin_locks_reset>
10004636:	bd10      	pop	{r4, pc}

10004638 <runtime_init_install_ram_vector_table>:
10004638:	b570      	push	{r4, r5, r6, lr}
1000463a:	4928      	ldr	r1, [pc, #160]	@ (100046dc <runtime_init_install_ram_vector_table+0xa4>)
1000463c:	4d28      	ldr	r5, [pc, #160]	@ (100046e0 <runtime_init_install_ram_vector_table+0xa8>)
1000463e:	4e29      	ldr	r6, [pc, #164]	@ (100046e4 <runtime_init_install_ram_vector_table+0xac>)
10004640:	1a6d      	subs	r5, r5, r1
10004642:	10ac      	asrs	r4, r5, #2
10004644:	0022      	movs	r2, r4
10004646:	2c30      	cmp	r4, #48	@ 0x30
10004648:	d900      	bls.n	1000464c <runtime_init_install_ram_vector_table+0x14>
1000464a:	2230      	movs	r2, #48	@ 0x30
1000464c:	0030      	movs	r0, r6
1000464e:	0092      	lsls	r2, r2, #2
10004650:	f000 ffd2 	bl	100055f8 <__wrap___aeabi_memcpy>
10004654:	2dbc      	cmp	r5, #188	@ 0xbc
10004656:	d83d      	bhi.n	100046d4 <runtime_init_install_ram_vector_table+0x9c>
10004658:	0023      	movs	r3, r4
1000465a:	3b2a      	subs	r3, #42	@ 0x2a
1000465c:	4a22      	ldr	r2, [pc, #136]	@ (100046e8 <runtime_init_install_ram_vector_table+0xb0>)
1000465e:	2b05      	cmp	r3, #5
10004660:	d91d      	bls.n	1000469e <runtime_init_install_ram_vector_table+0x66>
10004662:	2030      	movs	r0, #48	@ 0x30
10004664:	1975      	adds	r5, r6, r5
10004666:	076d      	lsls	r5, r5, #29
10004668:	46a4      	mov	ip, r4
1000466a:	1b00      	subs	r0, r0, r4
1000466c:	0feb      	lsrs	r3, r5, #31
1000466e:	2d00      	cmp	r5, #0
10004670:	da03      	bge.n	1000467a <runtime_init_install_ram_vector_table+0x42>
10004672:	1c61      	adds	r1, r4, #1
10004674:	468c      	mov	ip, r1
10004676:	00a1      	lsls	r1, r4, #2
10004678:	5072      	str	r2, [r6, r1]
1000467a:	1ac0      	subs	r0, r0, r3
1000467c:	18e3      	adds	r3, r4, r3
1000467e:	009b      	lsls	r3, r3, #2
10004680:	0841      	lsrs	r1, r0, #1
10004682:	18f3      	adds	r3, r6, r3
10004684:	00c9      	lsls	r1, r1, #3
10004686:	18c9      	adds	r1, r1, r3
10004688:	601a      	str	r2, [r3, #0]
1000468a:	605a      	str	r2, [r3, #4]
1000468c:	3308      	adds	r3, #8
1000468e:	4299      	cmp	r1, r3
10004690:	d1fa      	bne.n	10004688 <runtime_init_install_ram_vector_table+0x50>
10004692:	2301      	movs	r3, #1
10004694:	4203      	tst	r3, r0
10004696:	d01d      	beq.n	100046d4 <runtime_init_install_ram_vector_table+0x9c>
10004698:	4398      	bics	r0, r3
1000469a:	4460      	add	r0, ip
1000469c:	0004      	movs	r4, r0
1000469e:	00a3      	lsls	r3, r4, #2
100046a0:	50f2      	str	r2, [r6, r3]
100046a2:	1c63      	adds	r3, r4, #1
100046a4:	2c2f      	cmp	r4, #47	@ 0x2f
100046a6:	d015      	beq.n	100046d4 <runtime_init_install_ram_vector_table+0x9c>
100046a8:	009b      	lsls	r3, r3, #2
100046aa:	50f2      	str	r2, [r6, r3]
100046ac:	1ca3      	adds	r3, r4, #2
100046ae:	2c2e      	cmp	r4, #46	@ 0x2e
100046b0:	d010      	beq.n	100046d4 <runtime_init_install_ram_vector_table+0x9c>
100046b2:	009b      	lsls	r3, r3, #2
100046b4:	50f2      	str	r2, [r6, r3]
100046b6:	1ce3      	adds	r3, r4, #3
100046b8:	2c2d      	cmp	r4, #45	@ 0x2d
100046ba:	d00b      	beq.n	100046d4 <runtime_init_install_ram_vector_table+0x9c>
100046bc:	009b      	lsls	r3, r3, #2
100046be:	50f2      	str	r2, [r6, r3]
100046c0:	1d23      	adds	r3, r4, #4
100046c2:	2c2c      	cmp	r4, #44	@ 0x2c
100046c4:	d006      	beq.n	100046d4 <runtime_init_install_ram_vector_table+0x9c>
100046c6:	009b      	lsls	r3, r3, #2
100046c8:	50f2      	str	r2, [r6, r3]
100046ca:	1d63      	adds	r3, r4, #5
100046cc:	2c2b      	cmp	r4, #43	@ 0x2b
100046ce:	d001      	beq.n	100046d4 <runtime_init_install_ram_vector_table+0x9c>
100046d0:	009b      	lsls	r3, r3, #2
100046d2:	50f2      	str	r2, [r6, r3]
100046d4:	4b05      	ldr	r3, [pc, #20]	@ (100046ec <runtime_init_install_ram_vector_table+0xb4>)
100046d6:	609e      	str	r6, [r3, #8]
100046d8:	bd70      	pop	{r4, r5, r6, pc}
100046da:	46c0      	nop			@ (mov r8, r8)
100046dc:	10000100 	.word	0x10000100
100046e0:	100001c0 	.word	0x100001c0
100046e4:	20000000 	.word	0x20000000
100046e8:	100001c1 	.word	0x100001c1
100046ec:	e000ed00 	.word	0xe000ed00

100046f0 <runtime_init_clocks>:
100046f0:	2300      	movs	r3, #0
100046f2:	b510      	push	{r4, lr}
100046f4:	4c29      	ldr	r4, [pc, #164]	@ (1000479c <runtime_init_clocks+0xac>)
100046f6:	b082      	sub	sp, #8
100046f8:	67a3      	str	r3, [r4, #120]	@ 0x78
100046fa:	f7ff ff17 	bl	1000452c <xosc_init>
100046fe:	2201      	movs	r2, #1
10004700:	4b27      	ldr	r3, [pc, #156]	@ (100047a0 <runtime_init_clocks+0xb0>)
10004702:	601a      	str	r2, [r3, #0]
10004704:	6c63      	ldr	r3, [r4, #68]	@ 0x44
10004706:	2b01      	cmp	r3, #1
10004708:	d1fc      	bne.n	10004704 <runtime_init_clocks+0x14>
1000470a:	2203      	movs	r2, #3
1000470c:	4b25      	ldr	r3, [pc, #148]	@ (100047a4 <runtime_init_clocks+0xb4>)
1000470e:	601a      	str	r2, [r3, #0]
10004710:	4a22      	ldr	r2, [pc, #136]	@ (1000479c <runtime_init_clocks+0xac>)
10004712:	6b93      	ldr	r3, [r2, #56]	@ 0x38
10004714:	2b01      	cmp	r3, #1
10004716:	d1fc      	bne.n	10004712 <runtime_init_clocks+0x22>
10004718:	3301      	adds	r3, #1
1000471a:	9300      	str	r3, [sp, #0]
1000471c:	2101      	movs	r1, #1
1000471e:	4a22      	ldr	r2, [pc, #136]	@ (100047a8 <runtime_init_clocks+0xb8>)
10004720:	4822      	ldr	r0, [pc, #136]	@ (100047ac <runtime_init_clocks+0xbc>)
10004722:	3304      	adds	r3, #4
10004724:	f7ff fe10 	bl	10004348 <pll_init>
10004728:	2305      	movs	r3, #5
1000472a:	2101      	movs	r1, #1
1000472c:	9300      	str	r3, [sp, #0]
1000472e:	4a20      	ldr	r2, [pc, #128]	@ (100047b0 <runtime_init_clocks+0xc0>)
10004730:	4820      	ldr	r0, [pc, #128]	@ (100047b4 <runtime_init_clocks+0xc4>)
10004732:	f7ff fe09 	bl	10004348 <pll_init>
10004736:	2200      	movs	r2, #0
10004738:	2102      	movs	r1, #2
1000473a:	2004      	movs	r0, #4
1000473c:	4b1e      	ldr	r3, [pc, #120]	@ (100047b8 <runtime_init_clocks+0xc8>)
1000473e:	f7ff fd8d 	bl	1000425c <clock_configure_undivided>
10004742:	2200      	movs	r2, #0
10004744:	2101      	movs	r1, #1
10004746:	2005      	movs	r0, #5
10004748:	4b1c      	ldr	r3, [pc, #112]	@ (100047bc <runtime_init_clocks+0xcc>)
1000474a:	f7ff fd87 	bl	1000425c <clock_configure_undivided>
1000474e:	2200      	movs	r2, #0
10004750:	2100      	movs	r1, #0
10004752:	2007      	movs	r0, #7
10004754:	4b1a      	ldr	r3, [pc, #104]	@ (100047c0 <runtime_init_clocks+0xd0>)
10004756:	f7ff fd81 	bl	1000425c <clock_configure_undivided>
1000475a:	2200      	movs	r2, #0
1000475c:	2100      	movs	r1, #0
1000475e:	2008      	movs	r0, #8
10004760:	4b17      	ldr	r3, [pc, #92]	@ (100047c0 <runtime_init_clocks+0xd0>)
10004762:	f7ff fd7b 	bl	1000425c <clock_configure_undivided>
10004766:	2380      	movs	r3, #128	@ 0x80
10004768:	00db      	lsls	r3, r3, #3
1000476a:	9300      	str	r3, [sp, #0]
1000476c:	2200      	movs	r2, #0
1000476e:	2100      	movs	r1, #0
10004770:	2009      	movs	r0, #9
10004772:	4b13      	ldr	r3, [pc, #76]	@ (100047c0 <runtime_init_clocks+0xd0>)
10004774:	f7ff fcfc 	bl	10004170 <clock_configure_int_divider>
10004778:	2200      	movs	r2, #0
1000477a:	4b10      	ldr	r3, [pc, #64]	@ (100047bc <runtime_init_clocks+0xcc>)
1000477c:	2100      	movs	r1, #0
1000477e:	2006      	movs	r0, #6
10004780:	f7ff fd6c 	bl	1000425c <clock_configure_undivided>
10004784:	2004      	movs	r0, #4
10004786:	f7ff fdd9 	bl	1000433c <clock_get_hz>
1000478a:	490e      	ldr	r1, [pc, #56]	@ (100047c4 <runtime_init_clocks+0xd4>)
1000478c:	f000 f84c 	bl	10004828 <__wrap___aeabi_uidiv>
10004790:	0001      	movs	r1, r0
10004792:	2000      	movs	r0, #0
10004794:	f7ff fe7e 	bl	10004494 <tick_start>
10004798:	b002      	add	sp, #8
1000479a:	bd10      	pop	{r4, pc}
1000479c:	40008000 	.word	0x40008000
100047a0:	4000b03c 	.word	0x4000b03c
100047a4:	4000b030 	.word	0x4000b030
100047a8:	59682f00 	.word	0x59682f00
100047ac:	40028000 	.word	0x40028000
100047b0:	47868c00 	.word	0x47868c00
100047b4:	4002c000 	.word	0x4002c000
100047b8:	00b71b00 	.word	0x00b71b00
100047bc:	07735940 	.word	0x07735940
100047c0:	02dc6c00 	.word	0x02dc6c00
100047c4:	000f4240 	.word	0x000f4240

100047c8 <__aeabi_bits_init>:
100047c8:	4801      	ldr	r0, [pc, #4]	@ (100047d0 <__aeabi_bits_init+0x8>)
100047ca:	2104      	movs	r1, #4
100047cc:	4b01      	ldr	r3, [pc, #4]	@ (100047d4 <__aeabi_bits_init+0xc>)
100047ce:	4718      	bx	r3
100047d0:	20001010 	.word	0x20001010
100047d4:	100044c5 	.word	0x100044c5

100047d8 <__wrap___aeabi_idiv>:
100047d8:	4a12      	ldr	r2, [pc, #72]	@ (10004824 <divmod_s32s32_savestate+0x18>)
100047da:	6f93      	ldr	r3, [r2, #120]	@ 0x78
100047dc:	089b      	lsrs	r3, r3, #2
100047de:	d215      	bcs.n	1000480c <divmod_s32s32_savestate>

100047e0 <divmod_s32s32_unsafe>:
100047e0:	6690      	str	r0, [r2, #104]	@ 0x68
100047e2:	66d1      	str	r1, [r2, #108]	@ 0x6c
100047e4:	2900      	cmp	r1, #0
100047e6:	d005      	beq.n	100047f4 <divmod_s32s32_unsafe+0x14>
100047e8:	e7ff      	b.n	100047ea <divmod_s32s32_unsafe+0xa>
100047ea:	e7ff      	b.n	100047ec <divmod_s32s32_unsafe+0xc>
100047ec:	e7ff      	b.n	100047ee <divmod_s32s32_unsafe+0xe>
100047ee:	6f51      	ldr	r1, [r2, #116]	@ 0x74
100047f0:	6f10      	ldr	r0, [r2, #112]	@ 0x70
100047f2:	4770      	bx	lr
100047f4:	b504      	push	{r2, lr}
100047f6:	2180      	movs	r1, #128	@ 0x80
100047f8:	0609      	lsls	r1, r1, #24
100047fa:	17c2      	asrs	r2, r0, #31
100047fc:	4051      	eors	r1, r2
100047fe:	2800      	cmp	r0, #0
10004800:	d000      	beq.n	10004804 <divmod_s32s32_unsafe+0x24>
10004802:	43c8      	mvns	r0, r1
10004804:	f005 fe64 	bl	1000a4d0 <____aeabi_idiv0_veneer>
10004808:	2100      	movs	r1, #0
1000480a:	bd04      	pop	{r2, pc}

1000480c <divmod_s32s32_savestate>:
1000480c:	b5f0      	push	{r4, r5, r6, r7, lr}
1000480e:	6e14      	ldr	r4, [r2, #96]	@ 0x60
10004810:	6e55      	ldr	r5, [r2, #100]	@ 0x64
10004812:	6f57      	ldr	r7, [r2, #116]	@ 0x74
10004814:	6f16      	ldr	r6, [r2, #112]	@ 0x70
10004816:	f7ff ffe3 	bl	100047e0 <divmod_s32s32_unsafe>
1000481a:	6614      	str	r4, [r2, #96]	@ 0x60
1000481c:	6655      	str	r5, [r2, #100]	@ 0x64
1000481e:	6757      	str	r7, [r2, #116]	@ 0x74
10004820:	6716      	str	r6, [r2, #112]	@ 0x70
10004822:	bdf0      	pop	{r4, r5, r6, r7, pc}
10004824:	d0000000 	.word	0xd0000000

10004828 <__wrap___aeabi_uidiv>:
10004828:	4a11      	ldr	r2, [pc, #68]	@ (10004870 <divmod_u32u32_savestate+0x18>)
1000482a:	6f93      	ldr	r3, [r2, #120]	@ 0x78
1000482c:	089b      	lsrs	r3, r3, #2
1000482e:	d213      	bcs.n	10004858 <divmod_u32u32_savestate>

10004830 <divmod_u32u32_unsafe>:
10004830:	6610      	str	r0, [r2, #96]	@ 0x60
10004832:	6651      	str	r1, [r2, #100]	@ 0x64
10004834:	2900      	cmp	r1, #0
10004836:	d005      	beq.n	10004844 <divmod_u32u32_unsafe+0x14>
10004838:	e7ff      	b.n	1000483a <divmod_u32u32_unsafe+0xa>
1000483a:	e7ff      	b.n	1000483c <divmod_u32u32_unsafe+0xc>
1000483c:	e7ff      	b.n	1000483e <divmod_u32u32_unsafe+0xe>
1000483e:	6f51      	ldr	r1, [r2, #116]	@ 0x74
10004840:	6f10      	ldr	r0, [r2, #112]	@ 0x70
10004842:	4770      	bx	lr
10004844:	b504      	push	{r2, lr}
10004846:	2800      	cmp	r0, #0
10004848:	d001      	beq.n	1000484e <divmod_u32u32_unsafe+0x1e>
1000484a:	2000      	movs	r0, #0
1000484c:	43c0      	mvns	r0, r0
1000484e:	f005 fe3f 	bl	1000a4d0 <____aeabi_idiv0_veneer>
10004852:	2100      	movs	r1, #0
10004854:	bd04      	pop	{r2, pc}
10004856:	46c0      	nop			@ (mov r8, r8)

10004858 <divmod_u32u32_savestate>:
10004858:	b5f0      	push	{r4, r5, r6, r7, lr}
1000485a:	6e14      	ldr	r4, [r2, #96]	@ 0x60
1000485c:	6e55      	ldr	r5, [r2, #100]	@ 0x64
1000485e:	6f57      	ldr	r7, [r2, #116]	@ 0x74
10004860:	6f16      	ldr	r6, [r2, #112]	@ 0x70
10004862:	f7ff ffe5 	bl	10004830 <divmod_u32u32_unsafe>
10004866:	6614      	str	r4, [r2, #96]	@ 0x60
10004868:	6655      	str	r5, [r2, #100]	@ 0x64
1000486a:	6757      	str	r7, [r2, #116]	@ 0x74
1000486c:	6716      	str	r6, [r2, #112]	@ 0x70
1000486e:	bdf0      	pop	{r4, r5, r6, r7, pc}
10004870:	d0000000 	.word	0xd0000000

10004874 <__wrap___aeabi_ldivmod>:
10004874:	4694      	mov	ip, r2
10004876:	4a4a      	ldr	r2, [pc, #296]	@ (100049a0 <udiv0+0x1a>)
10004878:	6f92      	ldr	r2, [r2, #120]	@ 0x78
1000487a:	0892      	lsrs	r2, r2, #2
1000487c:	4662      	mov	r2, ip
1000487e:	d201      	bcs.n	10004884 <divmod_s64s64_savestate>
10004880:	e028      	b.n	100048d4 <divmod_s64s64_unsafe>
10004882:	46c0      	nop			@ (mov r8, r8)

10004884 <divmod_s64s64_savestate>:
10004884:	b5f0      	push	{r4, r5, r6, r7, lr}
10004886:	4e46      	ldr	r6, [pc, #280]	@ (100049a0 <udiv0+0x1a>)
10004888:	6e34      	ldr	r4, [r6, #96]	@ 0x60
1000488a:	6e75      	ldr	r5, [r6, #100]	@ 0x64
1000488c:	6f77      	ldr	r7, [r6, #116]	@ 0x74
1000488e:	6f36      	ldr	r6, [r6, #112]	@ 0x70
10004890:	f000 f820 	bl	100048d4 <divmod_s64s64_unsafe>
10004894:	4694      	mov	ip, r2
10004896:	4a42      	ldr	r2, [pc, #264]	@ (100049a0 <udiv0+0x1a>)
10004898:	6614      	str	r4, [r2, #96]	@ 0x60
1000489a:	6655      	str	r5, [r2, #100]	@ 0x64
1000489c:	6757      	str	r7, [r2, #116]	@ 0x74
1000489e:	6716      	str	r6, [r2, #112]	@ 0x70
100048a0:	4662      	mov	r2, ip
100048a2:	bdf0      	pop	{r4, r5, r6, r7, pc}

100048a4 <__wrap___aeabi_uldivmod>:
100048a4:	4694      	mov	ip, r2
100048a6:	4a3e      	ldr	r2, [pc, #248]	@ (100049a0 <udiv0+0x1a>)
100048a8:	6f92      	ldr	r2, [r2, #120]	@ 0x78
100048aa:	0892      	lsrs	r2, r2, #2
100048ac:	4662      	mov	r2, ip
100048ae:	d201      	bcs.n	100048b4 <divmod_u64u64_savestate>
100048b0:	e054      	b.n	1000495c <divmod_u64u64_unsafe>
100048b2:	46c0      	nop			@ (mov r8, r8)

100048b4 <divmod_u64u64_savestate>:
100048b4:	b5f0      	push	{r4, r5, r6, r7, lr}
100048b6:	4e3a      	ldr	r6, [pc, #232]	@ (100049a0 <udiv0+0x1a>)
100048b8:	6e34      	ldr	r4, [r6, #96]	@ 0x60
100048ba:	6e75      	ldr	r5, [r6, #100]	@ 0x64
100048bc:	6f77      	ldr	r7, [r6, #116]	@ 0x74
100048be:	6f36      	ldr	r6, [r6, #112]	@ 0x70
100048c0:	f000 f84c 	bl	1000495c <divmod_u64u64_unsafe>
100048c4:	4694      	mov	ip, r2
100048c6:	4a36      	ldr	r2, [pc, #216]	@ (100049a0 <udiv0+0x1a>)
100048c8:	6614      	str	r4, [r2, #96]	@ 0x60
100048ca:	6655      	str	r5, [r2, #100]	@ 0x64
100048cc:	6757      	str	r7, [r2, #116]	@ 0x74
100048ce:	6716      	str	r6, [r2, #112]	@ 0x70
100048d0:	4662      	mov	r2, ip
100048d2:	bdf0      	pop	{r4, r5, r6, r7, pc}

100048d4 <divmod_s64s64_unsafe>:
100048d4:	2b00      	cmp	r3, #0
100048d6:	db24      	blt.n	10004922 <l42_1+0x26>
100048d8:	d011      	beq.n	100048fe <l42_1+0x2>
100048da:	2900      	cmp	r1, #0
100048dc:	da3e      	bge.n	1000495c <divmod_u64u64_unsafe>
100048de:	b500      	push	{lr}
100048e0:	43c9      	mvns	r1, r1
100048e2:	4240      	negs	r0, r0
100048e4:	d100      	bne.n	100048e8 <l40_1>
100048e6:	3101      	adds	r1, #1

100048e8 <l40_1>:
100048e8:	f000 f838 	bl	1000495c <divmod_u64u64_unsafe>
100048ec:	43c9      	mvns	r1, r1
100048ee:	4240      	negs	r0, r0
100048f0:	d100      	bne.n	100048f4 <l41_1>
100048f2:	3101      	adds	r1, #1

100048f4 <l41_1>:
100048f4:	43db      	mvns	r3, r3
100048f6:	4252      	negs	r2, r2
100048f8:	d100      	bne.n	100048fc <l42_1>
100048fa:	3301      	adds	r3, #1

100048fc <l42_1>:
100048fc:	bd00      	pop	{pc}
100048fe:	2a00      	cmp	r2, #0
10004900:	d1eb      	bne.n	100048da <divmod_s64s64_unsafe+0x6>
10004902:	2800      	cmp	r0, #0
10004904:	d101      	bne.n	1000490a <l42_1+0xe>
10004906:	2900      	cmp	r1, #0
10004908:	d005      	beq.n	10004916 <l42_1+0x1a>
1000490a:	2000      	movs	r0, #0
1000490c:	0fc9      	lsrs	r1, r1, #31
1000490e:	07c9      	lsls	r1, r1, #31
10004910:	d101      	bne.n	10004916 <l42_1+0x1a>
10004912:	43c0      	mvns	r0, r0
10004914:	0841      	lsrs	r1, r0, #1
10004916:	b500      	push	{lr}
10004918:	f005 fdca 	bl	1000a4b0 <____aeabi_ldiv0_veneer>
1000491c:	2200      	movs	r2, #0
1000491e:	2300      	movs	r3, #0
10004920:	bd00      	pop	{pc}
10004922:	b500      	push	{lr}
10004924:	2900      	cmp	r1, #0
10004926:	db0a      	blt.n	1000493e <l44_1+0x2>
10004928:	43db      	mvns	r3, r3
1000492a:	4252      	negs	r2, r2
1000492c:	d100      	bne.n	10004930 <l43_1>
1000492e:	3301      	adds	r3, #1

10004930 <l43_1>:
10004930:	f000 f814 	bl	1000495c <divmod_u64u64_unsafe>
10004934:	43c9      	mvns	r1, r1
10004936:	4240      	negs	r0, r0
10004938:	d100      	bne.n	1000493c <l44_1>
1000493a:	3101      	adds	r1, #1

1000493c <l44_1>:
1000493c:	bd00      	pop	{pc}
1000493e:	43c9      	mvns	r1, r1
10004940:	4240      	negs	r0, r0
10004942:	d100      	bne.n	10004946 <l45_1>
10004944:	3101      	adds	r1, #1

10004946 <l45_1>:
10004946:	43db      	mvns	r3, r3
10004948:	4252      	negs	r2, r2
1000494a:	d100      	bne.n	1000494e <l46_1>
1000494c:	3301      	adds	r3, #1

1000494e <l46_1>:
1000494e:	f000 f805 	bl	1000495c <divmod_u64u64_unsafe>
10004952:	43db      	mvns	r3, r3
10004954:	4252      	negs	r2, r2
10004956:	d100      	bne.n	1000495a <l47_1>
10004958:	3301      	adds	r3, #1

1000495a <l47_1>:
1000495a:	bd00      	pop	{pc}

1000495c <divmod_u64u64_unsafe>:
1000495c:	2900      	cmp	r1, #0
1000495e:	d123      	bne.n	100049a8 <y64>
10004960:	2b00      	cmp	r3, #0
10004962:	d118      	bne.n	10004996 <udiv0+0x10>
10004964:	2a00      	cmp	r2, #0
10004966:	d00c      	beq.n	10004982 <divmod_u64u64_unsafe+0x26>
10004968:	46bc      	mov	ip, r7
1000496a:	4f0d      	ldr	r7, [pc, #52]	@ (100049a0 <udiv0+0x1a>)
1000496c:	6638      	str	r0, [r7, #96]	@ 0x60
1000496e:	667a      	str	r2, [r7, #100]	@ 0x64
10004970:	2100      	movs	r1, #0
10004972:	2300      	movs	r3, #0
10004974:	e7ff      	b.n	10004976 <divmod_u64u64_unsafe+0x1a>
10004976:	e7ff      	b.n	10004978 <divmod_u64u64_unsafe+0x1c>
10004978:	e7ff      	b.n	1000497a <divmod_u64u64_unsafe+0x1e>
1000497a:	6f7a      	ldr	r2, [r7, #116]	@ 0x74
1000497c:	6f38      	ldr	r0, [r7, #112]	@ 0x70
1000497e:	4667      	mov	r7, ip
10004980:	4770      	bx	lr
10004982:	2800      	cmp	r0, #0
10004984:	d001      	beq.n	1000498a <udiv0+0x4>

10004986 <udiv0>:
10004986:	4807      	ldr	r0, [pc, #28]	@ (100049a4 <udiv0+0x1e>)
10004988:	0001      	movs	r1, r0
1000498a:	b500      	push	{lr}
1000498c:	f005 fd90 	bl	1000a4b0 <____aeabi_ldiv0_veneer>
10004990:	2200      	movs	r2, #0
10004992:	2300      	movs	r3, #0
10004994:	bd00      	pop	{pc}
10004996:	0002      	movs	r2, r0
10004998:	000b      	movs	r3, r1
1000499a:	2000      	movs	r0, #0
1000499c:	2100      	movs	r1, #0
1000499e:	4770      	bx	lr
100049a0:	d0000000 	.word	0xd0000000
100049a4:	ffffffff 	.word	0xffffffff

100049a8 <y64>:
100049a8:	2b00      	cmp	r3, #0
100049aa:	d000      	beq.n	100049ae <y64+0x6>
100049ac:	e0bf      	b.n	10004b2e <y64_x48>
100049ae:	0c13      	lsrs	r3, r2, #16
100049b0:	d128      	bne.n	10004a04 <y64_x32>
100049b2:	2a00      	cmp	r2, #0
100049b4:	d0e7      	beq.n	10004986 <udiv0>
100049b6:	b480      	push	{r7}
100049b8:	4f11      	ldr	r7, [pc, #68]	@ (10004a00 <y64+0x58>)
100049ba:	6639      	str	r1, [r7, #96]	@ 0x60
100049bc:	667a      	str	r2, [r7, #100]	@ 0x64
100049be:	e7ff      	b.n	100049c0 <y64+0x18>
100049c0:	e7ff      	b.n	100049c2 <y64+0x1a>
100049c2:	b430      	push	{r4, r5}
100049c4:	0c04      	lsrs	r4, r0, #16
100049c6:	6f7b      	ldr	r3, [r7, #116]	@ 0x74
100049c8:	6f39      	ldr	r1, [r7, #112]	@ 0x70
100049ca:	041b      	lsls	r3, r3, #16
100049cc:	4323      	orrs	r3, r4
100049ce:	663b      	str	r3, [r7, #96]	@ 0x60
100049d0:	667a      	str	r2, [r7, #100]	@ 0x64
100049d2:	e7ff      	b.n	100049d4 <y64+0x2c>
100049d4:	e7ff      	b.n	100049d6 <y64+0x2e>
100049d6:	e7ff      	b.n	100049d8 <y64+0x30>
100049d8:	46c0      	nop			@ (mov r8, r8)
100049da:	b284      	uxth	r4, r0
100049dc:	6f7b      	ldr	r3, [r7, #116]	@ 0x74
100049de:	6f3d      	ldr	r5, [r7, #112]	@ 0x70
100049e0:	041b      	lsls	r3, r3, #16
100049e2:	4323      	orrs	r3, r4
100049e4:	663b      	str	r3, [r7, #96]	@ 0x60
100049e6:	667a      	str	r2, [r7, #100]	@ 0x64
100049e8:	e7ff      	b.n	100049ea <y64+0x42>
100049ea:	e7ff      	b.n	100049ec <y64+0x44>
100049ec:	46c0      	nop			@ (mov r8, r8)
100049ee:	2300      	movs	r3, #0
100049f0:	042c      	lsls	r4, r5, #16
100049f2:	0c2d      	lsrs	r5, r5, #16
100049f4:	6f7a      	ldr	r2, [r7, #116]	@ 0x74
100049f6:	6f38      	ldr	r0, [r7, #112]	@ 0x70
100049f8:	1900      	adds	r0, r0, r4
100049fa:	4169      	adcs	r1, r5
100049fc:	bcb0      	pop	{r4, r5, r7}
100049fe:	4770      	bx	lr
10004a00:	d0000000 	.word	0xd0000000

10004a04 <y64_x32>:
10004a04:	b5f0      	push	{r4, r5, r6, r7, lr}
10004a06:	4694      	mov	ip, r2
10004a08:	2500      	movs	r5, #0
10004a0a:	0e14      	lsrs	r4, r2, #24
10004a0c:	d101      	bne.n	10004a12 <y64_x32+0xe>
10004a0e:	0212      	lsls	r2, r2, #8
10004a10:	3508      	adds	r5, #8
10004a12:	0f14      	lsrs	r4, r2, #28
10004a14:	d101      	bne.n	10004a1a <y64_x32+0x16>
10004a16:	0112      	lsls	r2, r2, #4
10004a18:	3504      	adds	r5, #4
10004a1a:	0f94      	lsrs	r4, r2, #30
10004a1c:	d101      	bne.n	10004a22 <y64_x32+0x1e>
10004a1e:	0092      	lsls	r2, r2, #2
10004a20:	3502      	adds	r5, #2
10004a22:	0fd4      	lsrs	r4, r2, #31
10004a24:	d101      	bne.n	10004a2a <y64_x32+0x26>
10004a26:	0052      	lsls	r2, r2, #1
10004a28:	3501      	adds	r5, #1
10004a2a:	0bd4      	lsrs	r4, r2, #15
10004a2c:	3401      	adds	r4, #1
10004a2e:	4f25      	ldr	r7, [pc, #148]	@ (10004ac4 <y64_x32+0xc0>)
10004a30:	667c      	str	r4, [r7, #100]	@ 0x64
10004a32:	4c25      	ldr	r4, [pc, #148]	@ (10004ac8 <y64_x32+0xc4>)
10004a34:	663c      	str	r4, [r7, #96]	@ 0x60
10004a36:	0c0e      	lsrs	r6, r1, #16
10004a38:	b293      	uxth	r3, r2
10004a3a:	e7ff      	b.n	10004a3c <y64_x32+0x38>
10004a3c:	e7ff      	b.n	10004a3e <y64_x32+0x3a>
10004a3e:	e7ff      	b.n	10004a40 <y64_x32+0x3c>
10004a40:	6f3c      	ldr	r4, [r7, #112]	@ 0x70
10004a42:	4366      	muls	r6, r4
10004a44:	0c36      	lsrs	r6, r6, #16
10004a46:	0377      	lsls	r7, r6, #13
10004a48:	46be      	mov	lr, r7
10004a4a:	4373      	muls	r3, r6
10004a4c:	0bdf      	lsrs	r7, r3, #15
10004a4e:	045b      	lsls	r3, r3, #17
10004a50:	1ac0      	subs	r0, r0, r3
10004a52:	41b9      	sbcs	r1, r7
10004a54:	0c13      	lsrs	r3, r2, #16
10004a56:	4373      	muls	r3, r6
10004a58:	18db      	adds	r3, r3, r3
10004a5a:	1ac9      	subs	r1, r1, r3
10004a5c:	08ce      	lsrs	r6, r1, #3
10004a5e:	4366      	muls	r6, r4
10004a60:	0c36      	lsrs	r6, r6, #16
10004a62:	44b6      	add	lr, r6
10004a64:	b293      	uxth	r3, r2
10004a66:	4373      	muls	r3, r6
10004a68:	0f1f      	lsrs	r7, r3, #28
10004a6a:	011b      	lsls	r3, r3, #4
10004a6c:	1ac0      	subs	r0, r0, r3
10004a6e:	41b9      	sbcs	r1, r7
10004a70:	0c13      	lsrs	r3, r2, #16
10004a72:	4373      	muls	r3, r6
10004a74:	0b1f      	lsrs	r7, r3, #12
10004a76:	051b      	lsls	r3, r3, #20
10004a78:	1ac0      	subs	r0, r0, r3
10004a7a:	41b9      	sbcs	r1, r7
10004a7c:	0d86      	lsrs	r6, r0, #22
10004a7e:	028f      	lsls	r7, r1, #10
10004a80:	433e      	orrs	r6, r7
10004a82:	4366      	muls	r6, r4
10004a84:	0c36      	lsrs	r6, r6, #16
10004a86:	2d09      	cmp	r5, #9
10004a88:	db24      	blt.n	10004ad4 <last0>
10004a8a:	0a52      	lsrs	r2, r2, #9
10004a8c:	4372      	muls	r2, r6
10004a8e:	1a80      	subs	r0, r0, r2
10004a90:	0377      	lsls	r7, r6, #13
10004a92:	0a46      	lsrs	r6, r0, #9
10004a94:	4366      	muls	r6, r4
10004a96:	0c36      	lsrs	r6, r6, #16
10004a98:	2316      	movs	r3, #22
10004a9a:	1b5b      	subs	r3, r3, r5
10004a9c:	40de      	lsrs	r6, r3
10004a9e:	40df      	lsrs	r7, r3
10004aa0:	19bf      	adds	r7, r7, r6
10004aa2:	4664      	mov	r4, ip
10004aa4:	4366      	muls	r6, r4
10004aa6:	1b82      	subs	r2, r0, r6
10004aa8:	4670      	mov	r0, lr
10004aaa:	3504      	adds	r5, #4
10004aac:	3306      	adds	r3, #6
10004aae:	0001      	movs	r1, r0
10004ab0:	40d9      	lsrs	r1, r3
10004ab2:	40a8      	lsls	r0, r5
10004ab4:	19c0      	adds	r0, r0, r7
10004ab6:	d300      	bcc.n	10004aba <y64_x32+0xb6>
10004ab8:	3101      	adds	r1, #1
10004aba:	42a2      	cmp	r2, r4
10004abc:	d206      	bcs.n	10004acc <y64_x32+0xc8>
10004abe:	2300      	movs	r3, #0
10004ac0:	bdf0      	pop	{r4, r5, r6, r7, pc}
10004ac2:	0000      	.short	0x0000
10004ac4:	d0000000 	.word	0xd0000000
10004ac8:	ffffffff 	.word	0xffffffff
10004acc:	1b12      	subs	r2, r2, r4
10004ace:	3001      	adds	r0, #1
10004ad0:	d3f3      	bcc.n	10004aba <y64_x32+0xb6>
10004ad2:	e7f1      	b.n	10004ab8 <y64_x32+0xb4>

10004ad4 <last0>:
10004ad4:	2709      	movs	r7, #9
10004ad6:	1b7f      	subs	r7, r7, r5
10004ad8:	40fe      	lsrs	r6, r7
10004ada:	4664      	mov	r4, ip
10004adc:	b2a2      	uxth	r2, r4
10004ade:	4372      	muls	r2, r6
10004ae0:	1a80      	subs	r0, r0, r2
10004ae2:	d200      	bcs.n	10004ae6 <last0+0x12>
10004ae4:	3901      	subs	r1, #1
10004ae6:	0c22      	lsrs	r2, r4, #16
10004ae8:	4372      	muls	r2, r6
10004aea:	0c13      	lsrs	r3, r2, #16
10004aec:	0412      	lsls	r2, r2, #16
10004aee:	1a82      	subs	r2, r0, r2
10004af0:	4199      	sbcs	r1, r3
10004af2:	000b      	movs	r3, r1
10004af4:	4670      	mov	r0, lr
10004af6:	3504      	adds	r5, #4
10004af8:	3713      	adds	r7, #19
10004afa:	0001      	movs	r1, r0
10004afc:	40f9      	lsrs	r1, r7
10004afe:	40a8      	lsls	r0, r5
10004b00:	1980      	adds	r0, r0, r6
10004b02:	d300      	bcc.n	10004b06 <last0+0x32>
10004b04:	3101      	adds	r1, #1
10004b06:	2b00      	cmp	r3, #0
10004b08:	d102      	bne.n	10004b10 <last0+0x3c>
10004b0a:	42a2      	cmp	r2, r4
10004b0c:	d20a      	bcs.n	10004b24 <last0+0x50>
10004b0e:	bdf0      	pop	{r4, r5, r6, r7, pc}
10004b10:	3001      	adds	r0, #1
10004b12:	d300      	bcc.n	10004b16 <last0+0x42>
10004b14:	3101      	adds	r1, #1
10004b16:	1b12      	subs	r2, r2, r4
10004b18:	d2fa      	bcs.n	10004b10 <last0+0x3c>
10004b1a:	3b01      	subs	r3, #1
10004b1c:	d1f8      	bne.n	10004b10 <last0+0x3c>
10004b1e:	42a2      	cmp	r2, r4
10004b20:	d200      	bcs.n	10004b24 <last0+0x50>
10004b22:	bdf0      	pop	{r4, r5, r6, r7, pc}
10004b24:	3001      	adds	r0, #1
10004b26:	d300      	bcc.n	10004b2a <last0+0x56>
10004b28:	3101      	adds	r1, #1
10004b2a:	1b12      	subs	r2, r2, r4
10004b2c:	e7f7      	b.n	10004b1e <last0+0x4a>

10004b2e <y64_x48>:
10004b2e:	b5f0      	push	{r4, r5, r6, r7, lr}
10004b30:	0c1c      	lsrs	r4, r3, #16
10004b32:	d000      	beq.n	10004b36 <y64_x48+0x8>
10004b34:	e080      	b.n	10004c38 <y64_x64>
10004b36:	b40c      	push	{r2, r3}
10004b38:	2500      	movs	r5, #0
10004b3a:	0a1c      	lsrs	r4, r3, #8
10004b3c:	d104      	bne.n	10004b48 <y64_x48+0x1a>
10004b3e:	021b      	lsls	r3, r3, #8
10004b40:	0e16      	lsrs	r6, r2, #24
10004b42:	4333      	orrs	r3, r6
10004b44:	0212      	lsls	r2, r2, #8
10004b46:	3508      	adds	r5, #8
10004b48:	0b1c      	lsrs	r4, r3, #12
10004b4a:	d104      	bne.n	10004b56 <y64_x48+0x28>
10004b4c:	011b      	lsls	r3, r3, #4
10004b4e:	0f16      	lsrs	r6, r2, #28
10004b50:	4333      	orrs	r3, r6
10004b52:	0112      	lsls	r2, r2, #4
10004b54:	3504      	adds	r5, #4
10004b56:	0b9c      	lsrs	r4, r3, #14
10004b58:	d104      	bne.n	10004b64 <y64_x48+0x36>
10004b5a:	009b      	lsls	r3, r3, #2
10004b5c:	0f96      	lsrs	r6, r2, #30
10004b5e:	4333      	orrs	r3, r6
10004b60:	0092      	lsls	r2, r2, #2
10004b62:	3502      	adds	r5, #2
10004b64:	0bdc      	lsrs	r4, r3, #15
10004b66:	d102      	bne.n	10004b6e <y64_x48+0x40>
10004b68:	1892      	adds	r2, r2, r2
10004b6a:	415b      	adcs	r3, r3
10004b6c:	3501      	adds	r5, #1
10004b6e:	001c      	movs	r4, r3
10004b70:	1897      	adds	r7, r2, r2
10004b72:	4164      	adcs	r4, r4
10004b74:	3401      	adds	r4, #1
10004b76:	4f46      	ldr	r7, [pc, #280]	@ (10004c90 <y64_x64+0x58>)
10004b78:	667c      	str	r4, [r7, #100]	@ 0x64
10004b7a:	4c46      	ldr	r4, [pc, #280]	@ (10004c94 <y64_x64+0x5c>)
10004b7c:	663c      	str	r4, [r7, #96]	@ 0x60
10004b7e:	0c0e      	lsrs	r6, r1, #16
10004b80:	e7ff      	b.n	10004b82 <y64_x48+0x54>
10004b82:	e7ff      	b.n	10004b84 <y64_x48+0x56>
10004b84:	e7ff      	b.n	10004b86 <y64_x48+0x58>
10004b86:	46c0      	nop			@ (mov r8, r8)
10004b88:	6f3c      	ldr	r4, [r7, #112]	@ 0x70
10004b8a:	4366      	muls	r6, r4
10004b8c:	0c36      	lsrs	r6, r6, #16
10004b8e:	0377      	lsls	r7, r6, #13
10004b90:	46be      	mov	lr, r7
10004b92:	b297      	uxth	r7, r2
10004b94:	4377      	muls	r7, r6
10004b96:	1bc0      	subs	r0, r0, r7
10004b98:	d200      	bcs.n	10004b9c <y64_x48+0x6e>
10004b9a:	3901      	subs	r1, #1
10004b9c:	1bc0      	subs	r0, r0, r7
10004b9e:	d200      	bcs.n	10004ba2 <y64_x48+0x74>
10004ba0:	3901      	subs	r1, #1
10004ba2:	b29f      	uxth	r7, r3
10004ba4:	4377      	muls	r7, r6
10004ba6:	1bc9      	subs	r1, r1, r7
10004ba8:	1bc9      	subs	r1, r1, r7
10004baa:	0c17      	lsrs	r7, r2, #16
10004bac:	4377      	muls	r7, r6
10004bae:	047e      	lsls	r6, r7, #17
10004bb0:	0bff      	lsrs	r7, r7, #15
10004bb2:	1b80      	subs	r0, r0, r6
10004bb4:	41b9      	sbcs	r1, r7
10004bb6:	08ce      	lsrs	r6, r1, #3
10004bb8:	4366      	muls	r6, r4
10004bba:	0c36      	lsrs	r6, r6, #16
10004bbc:	2d0c      	cmp	r5, #12
10004bbe:	db33      	blt.n	10004c28 <last1>
10004bc0:	44b6      	add	lr, r6
10004bc2:	0b12      	lsrs	r2, r2, #12
10004bc4:	051f      	lsls	r7, r3, #20
10004bc6:	433a      	orrs	r2, r7
10004bc8:	0b1b      	lsrs	r3, r3, #12
10004bca:	b297      	uxth	r7, r2
10004bcc:	4377      	muls	r7, r6
10004bce:	1bc0      	subs	r0, r0, r7
10004bd0:	d200      	bcs.n	10004bd4 <y64_x48+0xa6>
10004bd2:	3901      	subs	r1, #1
10004bd4:	b29f      	uxth	r7, r3
10004bd6:	4377      	muls	r7, r6
10004bd8:	1bc9      	subs	r1, r1, r7
10004bda:	0c17      	lsrs	r7, r2, #16
10004bdc:	4377      	muls	r7, r6
10004bde:	043e      	lsls	r6, r7, #16
10004be0:	0c3f      	lsrs	r7, r7, #16
10004be2:	1b80      	subs	r0, r0, r6
10004be4:	41b9      	sbcs	r1, r7
10004be6:	0d86      	lsrs	r6, r0, #22
10004be8:	028f      	lsls	r7, r1, #10
10004bea:	433e      	orrs	r6, r7
10004bec:	4366      	muls	r6, r4
10004bee:	2729      	movs	r7, #41	@ 0x29
10004bf0:	1b7f      	subs	r7, r7, r5
10004bf2:	40fe      	lsrs	r6, r7
10004bf4:	3d0c      	subs	r5, #12
10004bf6:	4677      	mov	r7, lr
10004bf8:	40af      	lsls	r7, r5
10004bfa:	19bf      	adds	r7, r7, r6
10004bfc:	bc30      	pop	{r4, r5}
10004bfe:	b2a2      	uxth	r2, r4
10004c00:	b2ab      	uxth	r3, r5
10004c02:	4372      	muls	r2, r6
10004c04:	4373      	muls	r3, r6
10004c06:	1a80      	subs	r0, r0, r2
10004c08:	4199      	sbcs	r1, r3
10004c0a:	0c22      	lsrs	r2, r4, #16
10004c0c:	4372      	muls	r2, r6
10004c0e:	0c13      	lsrs	r3, r2, #16
10004c10:	0412      	lsls	r2, r2, #16
10004c12:	1a80      	subs	r0, r0, r2
10004c14:	4199      	sbcs	r1, r3
10004c16:	0002      	movs	r2, r0
10004c18:	000b      	movs	r3, r1
10004c1a:	3701      	adds	r7, #1
10004c1c:	1b00      	subs	r0, r0, r4
10004c1e:	41a9      	sbcs	r1, r5
10004c20:	d2f9      	bcs.n	10004c16 <y64_x48+0xe8>
10004c22:	1e78      	subs	r0, r7, #1
10004c24:	2100      	movs	r1, #0
10004c26:	bdf0      	pop	{r4, r5, r6, r7, pc}

10004c28 <last1>:
10004c28:	270c      	movs	r7, #12
10004c2a:	1b7f      	subs	r7, r7, r5
10004c2c:	40fe      	lsrs	r6, r7
10004c2e:	4677      	mov	r7, lr
10004c30:	0b7f      	lsrs	r7, r7, #13
10004c32:	40af      	lsls	r7, r5
10004c34:	19ff      	adds	r7, r7, r7
10004c36:	e7e0      	b.n	10004bfa <y64_x48+0xcc>

10004c38 <y64_x64>:
10004c38:	2400      	movs	r4, #0
10004c3a:	1c5d      	adds	r5, r3, #1
10004c3c:	d007      	beq.n	10004c4e <y64_x64+0x16>
10004c3e:	4f14      	ldr	r7, [pc, #80]	@ (10004c90 <y64_x64+0x58>)
10004c40:	667d      	str	r5, [r7, #100]	@ 0x64
10004c42:	6639      	str	r1, [r7, #96]	@ 0x60
10004c44:	e7ff      	b.n	10004c46 <y64_x64+0xe>
10004c46:	e7ff      	b.n	10004c48 <y64_x64+0x10>
10004c48:	e7ff      	b.n	10004c4a <y64_x64+0x12>
10004c4a:	e7ff      	b.n	10004c4c <y64_x64+0x14>
10004c4c:	6f3c      	ldr	r4, [r7, #112]	@ 0x70
10004c4e:	b295      	uxth	r5, r2
10004c50:	b29e      	uxth	r6, r3
10004c52:	4365      	muls	r5, r4
10004c54:	4366      	muls	r6, r4
10004c56:	1b40      	subs	r0, r0, r5
10004c58:	41b1      	sbcs	r1, r6
10004c5a:	0c15      	lsrs	r5, r2, #16
10004c5c:	0c1e      	lsrs	r6, r3, #16
10004c5e:	4365      	muls	r5, r4
10004c60:	4366      	muls	r6, r4
10004c62:	0436      	lsls	r6, r6, #16
10004c64:	0c2f      	lsrs	r7, r5, #16
10004c66:	433e      	orrs	r6, r7
10004c68:	042d      	lsls	r5, r5, #16
10004c6a:	1b40      	subs	r0, r0, r5
10004c6c:	41b1      	sbcs	r1, r6
10004c6e:	4299      	cmp	r1, r3
10004c70:	d204      	bcs.n	10004c7c <y64_x64+0x44>
10004c72:	0002      	movs	r2, r0
10004c74:	000b      	movs	r3, r1
10004c76:	0020      	movs	r0, r4
10004c78:	2100      	movs	r1, #0
10004c7a:	bdf0      	pop	{r4, r5, r6, r7, pc}
10004c7c:	d101      	bne.n	10004c82 <y64_x64+0x4a>
10004c7e:	4290      	cmp	r0, r2
10004c80:	d3f7      	bcc.n	10004c72 <y64_x64+0x3a>
10004c82:	1a80      	subs	r0, r0, r2
10004c84:	4199      	sbcs	r1, r3
10004c86:	3401      	adds	r4, #1
10004c88:	4299      	cmp	r1, r3
10004c8a:	d3f2      	bcc.n	10004c72 <y64_x64+0x3a>
10004c8c:	e7f6      	b.n	10004c7c <y64_x64+0x44>
10004c8e:	0000      	.short	0x0000
10004c90:	d0000000 	.word	0xd0000000
10004c94:	ffffffff 	.word	0xffffffff

10004c98 <__wrap___aeabi_drsub>:
10004c98:	4048      	eors	r0, r1
10004c9a:	4041      	eors	r1, r0
10004c9c:	4048      	eors	r0, r1

10004c9e <__wrap___aeabi_dsub>:
10004c9e:	b418      	push	{r3, r4}
10004ca0:	4b1b      	ldr	r3, [pc, #108]	@ (10004d10 <__wrap___aeabi_dmul+0x12>)
10004ca2:	685b      	ldr	r3, [r3, #4]
10004ca4:	46fc      	mov	ip, pc
10004ca6:	9301      	str	r3, [sp, #4]
10004ca8:	bd08      	pop	{r3, pc}
10004caa:	df04      	.short	0xdf04
10004cac:	10004f43 	.word	0x10004f43

10004cb0 <__wrap___aeabi_dadd>:
10004cb0:	b418      	push	{r3, r4}
10004cb2:	4b17      	ldr	r3, [pc, #92]	@ (10004d10 <__wrap___aeabi_dmul+0x12>)
10004cb4:	681b      	ldr	r3, [r3, #0]
10004cb6:	46fc      	mov	ip, pc
10004cb8:	9301      	str	r3, [sp, #4]
10004cba:	bd08      	pop	{r3, pc}
10004cbc:	4f4ddf00 	.word	0x4f4ddf00
10004cc0:	1000      	.short	0x1000

10004cc2 <__wrap___aeabi_ddiv>:
10004cc2:	4694      	mov	ip, r2
10004cc4:	4a13      	ldr	r2, [pc, #76]	@ (10004d14 <__wrap___aeabi_dmul+0x16>)
10004cc6:	6f92      	ldr	r2, [r2, #120]	@ 0x78
10004cc8:	0892      	lsrs	r2, r2, #2
10004cca:	d209      	bcs.n	10004ce0 <ddiv_save_state>
10004ccc:	4662      	mov	r2, ip

10004cce <ddiv_shim_call>:
10004cce:	b418      	push	{r3, r4}
10004cd0:	4b0f      	ldr	r3, [pc, #60]	@ (10004d10 <__wrap___aeabi_dmul+0x12>)
10004cd2:	68db      	ldr	r3, [r3, #12]
10004cd4:	46fc      	mov	ip, pc
10004cd6:	9301      	str	r3, [sp, #4]
10004cd8:	bd08      	pop	{r3, pc}
10004cda:	df0c      	.short	0xdf0c
10004cdc:	10005205 	.word	0x10005205

10004ce0 <ddiv_save_state>:
10004ce0:	4a0c      	ldr	r2, [pc, #48]	@ (10004d14 <__wrap___aeabi_dmul+0x16>)
10004ce2:	b5f0      	push	{r4, r5, r6, r7, lr}
10004ce4:	6e14      	ldr	r4, [r2, #96]	@ 0x60
10004ce6:	6e55      	ldr	r5, [r2, #100]	@ 0x64
10004ce8:	6f57      	ldr	r7, [r2, #116]	@ 0x74
10004cea:	6f16      	ldr	r6, [r2, #112]	@ 0x70
10004cec:	4662      	mov	r2, ip
10004cee:	f7ff ffee 	bl	10004cce <ddiv_shim_call>
10004cf2:	4a08      	ldr	r2, [pc, #32]	@ (10004d14 <__wrap___aeabi_dmul+0x16>)
10004cf4:	6614      	str	r4, [r2, #96]	@ 0x60
10004cf6:	6655      	str	r5, [r2, #100]	@ 0x64
10004cf8:	6757      	str	r7, [r2, #116]	@ 0x74
10004cfa:	6716      	str	r6, [r2, #112]	@ 0x70
10004cfc:	bdf0      	pop	{r4, r5, r6, r7, pc}

10004cfe <__wrap___aeabi_dmul>:
10004cfe:	b418      	push	{r3, r4}
10004d00:	4b03      	ldr	r3, [pc, #12]	@ (10004d10 <__wrap___aeabi_dmul+0x12>)
10004d02:	689b      	ldr	r3, [r3, #8]
10004d04:	46fc      	mov	ip, pc
10004d06:	9301      	str	r3, [sp, #4]
10004d08:	bd08      	pop	{r3, pc}
10004d0a:	df08      	.short	0xdf08
10004d0c:	100050a9 	.word	0x100050a9
10004d10:	20002d20 	.word	0x20002d20
10004d14:	d0000000 	.word	0xd0000000

10004d18 <__wrap___aeabi_cdrcmple>:
10004d18:	b5ff      	push	{r0, r1, r2, r3, r4, r5, r6, r7, lr}
10004d1a:	4050      	eors	r0, r2
10004d1c:	4042      	eors	r2, r0
10004d1e:	4050      	eors	r0, r2
10004d20:	4059      	eors	r1, r3
10004d22:	404b      	eors	r3, r1
10004d24:	4059      	eors	r1, r3
10004d26:	e000      	b.n	10004d2a <__aeabi_dfcmple_guts>

10004d28 <__wrap___aeabi_cdcmpeq>:
10004d28:	b5ff      	push	{r0, r1, r2, r3, r4, r5, r6, r7, lr}

10004d2a <__aeabi_dfcmple_guts>:
10004d2a:	4f15      	ldr	r7, [pc, #84]	@ (10004d80 <__aeabi_dfcmple_guts+0x56>)
10004d2c:	004c      	lsls	r4, r1, #1
10004d2e:	0d64      	lsrs	r4, r4, #21
10004d30:	d003      	beq.n	10004d3a <__aeabi_dfcmple_guts+0x10>
10004d32:	42bc      	cmp	r4, r7
10004d34:	d104      	bne.n	10004d40 <__aeabi_dfcmple_guts+0x16>
10004d36:	030c      	lsls	r4, r1, #12
10004d38:	d814      	bhi.n	10004d64 <__aeabi_dfcmple_guts+0x3a>
10004d3a:	2000      	movs	r0, #0
10004d3c:	0d09      	lsrs	r1, r1, #20
10004d3e:	0509      	lsls	r1, r1, #20
10004d40:	005c      	lsls	r4, r3, #1
10004d42:	0d64      	lsrs	r4, r4, #21
10004d44:	d003      	beq.n	10004d4e <__aeabi_dfcmple_guts+0x24>
10004d46:	42bc      	cmp	r4, r7
10004d48:	d104      	bne.n	10004d54 <__aeabi_dfcmple_guts+0x2a>
10004d4a:	031c      	lsls	r4, r3, #12
10004d4c:	d80a      	bhi.n	10004d64 <__aeabi_dfcmple_guts+0x3a>
10004d4e:	2200      	movs	r2, #0
10004d50:	0d1b      	lsrs	r3, r3, #20
10004d52:	051b      	lsls	r3, r3, #20
10004d54:	2601      	movs	r6, #1
10004d56:	404b      	eors	r3, r1
10004d58:	d409      	bmi.n	10004d6e <__aeabi_dfcmple_guts+0x44>
10004d5a:	404b      	eors	r3, r1
10004d5c:	d503      	bpl.n	10004d66 <__aeabi_dfcmple_guts+0x3c>
10004d5e:	428b      	cmp	r3, r1
10004d60:	d100      	bne.n	10004d64 <__aeabi_dfcmple_guts+0x3a>
10004d62:	4282      	cmp	r2, r0
10004d64:	bdff      	pop	{r0, r1, r2, r3, r4, r5, r6, r7, pc}
10004d66:	4299      	cmp	r1, r3
10004d68:	d1fc      	bne.n	10004d64 <__aeabi_dfcmple_guts+0x3a>
10004d6a:	4290      	cmp	r0, r2
10004d6c:	bdff      	pop	{r0, r1, r2, r3, r4, r5, r6, r7, pc}
10004d6e:	430b      	orrs	r3, r1
10004d70:	18db      	adds	r3, r3, r3
10004d72:	4303      	orrs	r3, r0
10004d74:	4313      	orrs	r3, r2
10004d76:	d0f5      	beq.n	10004d64 <__aeabi_dfcmple_guts+0x3a>
10004d78:	43c9      	mvns	r1, r1
10004d7a:	1849      	adds	r1, r1, r1
10004d7c:	bdff      	pop	{r0, r1, r2, r3, r4, r5, r6, r7, pc}
10004d7e:	0000      	.short	0x0000
10004d80:	000007ff 	.word	0x000007ff

10004d84 <__wrap___aeabi_dcmplt>:
10004d84:	b500      	push	{lr}
10004d86:	f7ff ffcf 	bl	10004d28 <__wrap___aeabi_cdcmpeq>
10004d8a:	4180      	sbcs	r0, r0
10004d8c:	bd00      	pop	{pc}
10004d8e:	46c0      	nop			@ (mov r8, r8)

10004d90 <__wrap___aeabi_dcmple>:
10004d90:	b500      	push	{lr}
10004d92:	f7ff ffc9 	bl	10004d28 <__wrap___aeabi_cdcmpeq>
10004d96:	d901      	bls.n	10004d9c <__wrap___aeabi_dcmple+0xc>
10004d98:	2000      	movs	r0, #0
10004d9a:	bd00      	pop	{pc}
10004d9c:	2001      	movs	r0, #1
10004d9e:	bd00      	pop	{pc}

10004da0 <__wrap___aeabi_dcmpge>:
10004da0:	b500      	push	{lr}
10004da2:	f7ff ffb9 	bl	10004d18 <__wrap___aeabi_cdrcmple>
10004da6:	d901      	bls.n	10004dac <__wrap___aeabi_dcmpge+0xc>
10004da8:	2000      	movs	r0, #0
10004daa:	bd00      	pop	{pc}
10004dac:	2001      	movs	r0, #1
10004dae:	bd00      	pop	{pc}

10004db0 <__wrap___aeabi_dcmpgt>:
10004db0:	b500      	push	{lr}
10004db2:	f7ff ffb1 	bl	10004d18 <__wrap___aeabi_cdrcmple>
10004db6:	4180      	sbcs	r0, r0
10004db8:	bd00      	pop	{pc}

10004dba <__wrap___aeabi_dcmpun>:
10004dba:	2001      	movs	r0, #1
10004dbc:	0540      	lsls	r0, r0, #21
10004dbe:	004a      	lsls	r2, r1, #1
10004dc0:	1812      	adds	r2, r2, r0
10004dc2:	d804      	bhi.n	10004dce <__wrap___aeabi_dcmpun+0x14>
10004dc4:	005a      	lsls	r2, r3, #1
10004dc6:	1812      	adds	r2, r2, r0
10004dc8:	d801      	bhi.n	10004dce <__wrap___aeabi_dcmpun+0x14>
10004dca:	2000      	movs	r0, #0
10004dcc:	4770      	bx	lr
10004dce:	2001      	movs	r0, #1
10004dd0:	4770      	bx	lr
	...

10004dd4 <__wrap___aeabi_ui2d>:
10004dd4:	2100      	movs	r1, #0
10004dd6:	2800      	cmp	r0, #0
10004dd8:	d105      	bne.n	10004de6 <__wrap___aeabi_i2d+0xa>
10004dda:	4770      	bx	lr

10004ddc <__wrap___aeabi_i2d>:
10004ddc:	17c1      	asrs	r1, r0, #31
10004dde:	4048      	eors	r0, r1
10004de0:	1a40      	subs	r0, r0, r1
10004de2:	d0fa      	beq.n	10004dda <__wrap___aeabi_ui2d+0x6>
10004de4:	07c9      	lsls	r1, r1, #31
10004de6:	b513      	push	{r0, r1, r4, lr}
10004de8:	4b06      	ldr	r3, [pc, #24]	@ (10004e04 <__wrap___aeabi_i2d+0x28>)
10004dea:	681b      	ldr	r3, [r3, #0]
10004dec:	4798      	blx	r3
10004dee:	bc0c      	pop	{r2, r3}
10004df0:	1c44      	adds	r4, r0, #1
10004df2:	40a2      	lsls	r2, r4
10004df4:	0510      	lsls	r0, r2, #20
10004df6:	0b12      	lsrs	r2, r2, #12
10004df8:	4903      	ldr	r1, [pc, #12]	@ (10004e08 <__wrap___aeabi_i2d+0x2c>)
10004dfa:	1b09      	subs	r1, r1, r4
10004dfc:	0509      	lsls	r1, r1, #20
10004dfe:	4319      	orrs	r1, r3
10004e00:	4311      	orrs	r1, r2
10004e02:	bd10      	pop	{r4, pc}
10004e04:	2000582c 	.word	0x2000582c
10004e08:	0000041f 	.word	0x0000041f

10004e0c <__wrap___aeabi_d2iz>:
10004e0c:	b510      	push	{r4, lr}
10004e0e:	004c      	lsls	r4, r1, #1
10004e10:	0d62      	lsrs	r2, r4, #21
10004e12:	2380      	movs	r3, #128	@ 0x80
10004e14:	18d2      	adds	r2, r2, r3
10004e16:	00db      	lsls	r3, r3, #3
10004e18:	1ad2      	subs	r2, r2, r3
10004e1a:	055b      	lsls	r3, r3, #21
10004e1c:	2a7e      	cmp	r2, #126	@ 0x7e
10004e1e:	dd10      	ble.n	10004e42 <__wrap___aeabi_d2iz+0x36>
10004e20:	3a9e      	subs	r2, #158	@ 0x9e
10004e22:	da13      	bge.n	10004e4c <__wrap___aeabi_d2iz+0x40>
10004e24:	17cc      	asrs	r4, r1, #31
10004e26:	0309      	lsls	r1, r1, #12
10004e28:	0849      	lsrs	r1, r1, #1
10004e2a:	4319      	orrs	r1, r3
10004e2c:	4252      	negs	r2, r2
10004e2e:	40d1      	lsrs	r1, r2
10004e30:	0064      	lsls	r4, r4, #1
10004e32:	3401      	adds	r4, #1
10004e34:	3215      	adds	r2, #21
10004e36:	2a20      	cmp	r2, #32
10004e38:	da05      	bge.n	10004e46 <__wrap___aeabi_d2iz+0x3a>
10004e3a:	40d0      	lsrs	r0, r2
10004e3c:	4308      	orrs	r0, r1
10004e3e:	4360      	muls	r0, r4
10004e40:	bd10      	pop	{r4, pc}
10004e42:	2000      	movs	r0, #0
10004e44:	bd10      	pop	{r4, pc}
10004e46:	4608      	mov	r0, r1
10004e48:	4360      	muls	r0, r4
10004e4a:	bd10      	pop	{r4, pc}
10004e4c:	0fc8      	lsrs	r0, r1, #31
10004e4e:	18c0      	adds	r0, r0, r3
10004e50:	3801      	subs	r0, #1
10004e52:	bd10      	pop	{r4, pc}

10004e54 <__wrap___aeabi_d2uiz>:
10004e54:	b418      	push	{r3, r4}
10004e56:	4b04      	ldr	r3, [pc, #16]	@ (10004e68 <__wrap___aeabi_d2uiz+0x14>)
10004e58:	6a5b      	ldr	r3, [r3, #36]	@ 0x24
10004e5a:	46fc      	mov	ip, pc
10004e5c:	9301      	str	r3, [sp, #4]
10004e5e:	bd08      	pop	{r3, pc}
10004e60:	53b5df24 	.word	0x53b5df24
10004e64:	00001000 	.word	0x00001000
10004e68:	20002d20 	.word	0x20002d20

10004e6c <__aeabi_double_init>:
10004e6c:	2313      	movs	r3, #19
10004e6e:	b570      	push	{r4, r5, r6, lr}
10004e70:	781d      	ldrb	r5, [r3, #0]
10004e72:	2d01      	cmp	r5, #1
10004e74:	d019      	beq.n	10004eaa <__aeabi_double_init+0x3e>
10004e76:	dd14      	ble.n	10004ea2 <__aeabi_double_init+0x36>
10004e78:	481f      	ldr	r0, [pc, #124]	@ (10004ef8 <__aeabi_double_init+0x8c>)
10004e7a:	f7ff fb1b 	bl	100044b4 <rom_data_lookup>
10004e7e:	0006      	movs	r6, r0
10004e80:	481e      	ldr	r0, [pc, #120]	@ (10004efc <__aeabi_double_init+0x90>)
10004e82:	f7ff fb17 	bl	100044b4 <rom_data_lookup>
10004e86:	4c1e      	ldr	r4, [pc, #120]	@ (10004f00 <__aeabi_double_init+0x94>)
10004e88:	2280      	movs	r2, #128	@ 0x80
10004e8a:	0031      	movs	r1, r6
10004e8c:	0020      	movs	r0, r4
10004e8e:	f000 fbb3 	bl	100055f8 <__wrap___aeabi_memcpy>
10004e92:	2d02      	cmp	r5, #2
10004e94:	d02d      	beq.n	10004ef2 <__aeabi_double_init+0x86>
10004e96:	481b      	ldr	r0, [pc, #108]	@ (10004f04 <__aeabi_double_init+0x98>)
10004e98:	f7ff fb04 	bl	100044a4 <rom_func_lookup>
10004e9c:	4b1a      	ldr	r3, [pc, #104]	@ (10004f08 <__aeabi_double_init+0x9c>)
10004e9e:	6018      	str	r0, [r3, #0]
10004ea0:	bd70      	pop	{r4, r5, r6, pc}
10004ea2:	4b1a      	ldr	r3, [pc, #104]	@ (10004f0c <__aeabi_double_init+0xa0>)
10004ea4:	4c16      	ldr	r4, [pc, #88]	@ (10004f00 <__aeabi_double_init+0x94>)
10004ea6:	64a3      	str	r3, [r4, #72]	@ 0x48
10004ea8:	e7f5      	b.n	10004e96 <__aeabi_double_init+0x2a>
10004eaa:	4b18      	ldr	r3, [pc, #96]	@ (10004f0c <__aeabi_double_init+0xa0>)
10004eac:	4c14      	ldr	r4, [pc, #80]	@ (10004f00 <__aeabi_double_init+0x94>)
10004eae:	6023      	str	r3, [r4, #0]
10004eb0:	6063      	str	r3, [r4, #4]
10004eb2:	60a3      	str	r3, [r4, #8]
10004eb4:	60e3      	str	r3, [r4, #12]
10004eb6:	6123      	str	r3, [r4, #16]
10004eb8:	6163      	str	r3, [r4, #20]
10004eba:	61a3      	str	r3, [r4, #24]
10004ebc:	61e3      	str	r3, [r4, #28]
10004ebe:	6223      	str	r3, [r4, #32]
10004ec0:	6263      	str	r3, [r4, #36]	@ 0x24
10004ec2:	62a3      	str	r3, [r4, #40]	@ 0x28
10004ec4:	62e3      	str	r3, [r4, #44]	@ 0x2c
10004ec6:	6323      	str	r3, [r4, #48]	@ 0x30
10004ec8:	6363      	str	r3, [r4, #52]	@ 0x34
10004eca:	63a3      	str	r3, [r4, #56]	@ 0x38
10004ecc:	63e3      	str	r3, [r4, #60]	@ 0x3c
10004ece:	6423      	str	r3, [r4, #64]	@ 0x40
10004ed0:	6463      	str	r3, [r4, #68]	@ 0x44
10004ed2:	64a3      	str	r3, [r4, #72]	@ 0x48
10004ed4:	64e3      	str	r3, [r4, #76]	@ 0x4c
10004ed6:	6523      	str	r3, [r4, #80]	@ 0x50
10004ed8:	6563      	str	r3, [r4, #84]	@ 0x54
10004eda:	65a3      	str	r3, [r4, #88]	@ 0x58
10004edc:	65e3      	str	r3, [r4, #92]	@ 0x5c
10004ede:	6623      	str	r3, [r4, #96]	@ 0x60
10004ee0:	6663      	str	r3, [r4, #100]	@ 0x64
10004ee2:	66a3      	str	r3, [r4, #104]	@ 0x68
10004ee4:	66e3      	str	r3, [r4, #108]	@ 0x6c
10004ee6:	6723      	str	r3, [r4, #112]	@ 0x70
10004ee8:	6763      	str	r3, [r4, #116]	@ 0x74
10004eea:	67a3      	str	r3, [r4, #120]	@ 0x78
10004eec:	67e3      	str	r3, [r4, #124]	@ 0x7c
10004eee:	64a3      	str	r3, [r4, #72]	@ 0x48
10004ef0:	e7d1      	b.n	10004e96 <__aeabi_double_init+0x2a>
10004ef2:	4b06      	ldr	r3, [pc, #24]	@ (10004f0c <__aeabi_double_init+0xa0>)
10004ef4:	64a3      	str	r3, [r4, #72]	@ 0x48
10004ef6:	e7ce      	b.n	10004e96 <__aeabi_double_init+0x2a>
10004ef8:	00004453 	.word	0x00004453
10004efc:	00004653 	.word	0x00004653
10004f00:	20002d20 	.word	0x20002d20
10004f04:	0000334c 	.word	0x0000334c
10004f08:	2000582c 	.word	0x2000582c
10004f0c:	10004f11 	.word	0x10004f11

10004f10 <double_table_shim_on_use_helper>:
10004f10:	b507      	push	{r0, r1, r2, lr}
10004f12:	4660      	mov	r0, ip
10004f14:	8801      	ldrh	r1, [r0, #0]
10004f16:	0a0a      	lsrs	r2, r1, #8
10004f18:	3002      	adds	r0, #2
10004f1a:	2adf      	cmp	r2, #223	@ 0xdf
10004f1c:	d1fa      	bne.n	10004f14 <double_table_shim_on_use_helper+0x4>
10004f1e:	b2c9      	uxtb	r1, r1
10004f20:	0882      	lsrs	r2, r0, #2
10004f22:	d304      	bcc.n	10004f2e <double_table_shim_on_use_helper+0x1e>
10004f24:	8802      	ldrh	r2, [r0, #0]
10004f26:	8840      	ldrh	r0, [r0, #2]
10004f28:	0400      	lsls	r0, r0, #16
10004f2a:	4310      	orrs	r0, r2
10004f2c:	e000      	b.n	10004f30 <double_table_shim_on_use_helper+0x20>
10004f2e:	6800      	ldr	r0, [r0, #0]
10004f30:	4a01      	ldr	r2, [pc, #4]	@ (10004f38 <double_table_shim_on_use_helper+0x28>)
10004f32:	5050      	str	r0, [r2, r1]
10004f34:	9003      	str	r0, [sp, #12]
10004f36:	bd07      	pop	{r0, r1, r2, pc}
10004f38:	20002d20 	.word	0x20002d20

10004f3c <drsub_shim>:
10004f3c:	b40f      	push	{r0, r1, r2, r3}
10004f3e:	bc03      	pop	{r0, r1}
10004f40:	bc0c      	pop	{r2, r3}

10004f42 <dsub_shim>:
10004f42:	b5f0      	push	{r4, r5, r6, r7, lr}
10004f44:	2401      	movs	r4, #1
10004f46:	07e4      	lsls	r4, r4, #31
10004f48:	4063      	eors	r3, r4
10004f4a:	e000      	b.n	10004f4e <da_entry>

10004f4c <dadd_shim>:
10004f4c:	b5f0      	push	{r4, r5, r6, r7, lr}

10004f4e <da_entry>:
10004f4e:	0d0c      	lsrs	r4, r1, #20
10004f50:	0fcf      	lsrs	r7, r1, #31
10004f52:	1e66      	subs	r6, r4, #1
10004f54:	0536      	lsls	r6, r6, #20
10004f56:	1b89      	subs	r1, r1, r6
10004f58:	0564      	lsls	r4, r4, #21
10004f5a:	d303      	bcc.n	10004f64 <l8_1>
10004f5c:	43c9      	mvns	r1, r1
10004f5e:	4240      	negs	r0, r0
10004f60:	d300      	bcc.n	10004f64 <l8_1>
10004f62:	3101      	adds	r1, #1

10004f64 <l8_1>:
10004f64:	0d64      	lsrs	r4, r4, #21
10004f66:	d003      	beq.n	10004f70 <l8_2>
10004f68:	1c66      	adds	r6, r4, #1
10004f6a:	0af6      	lsrs	r6, r6, #11
10004f6c:	d007      	beq.n	10004f7e <l8_3>
10004f6e:	1be4      	subs	r4, r4, r7

10004f70 <l8_2>:
10004f70:	2000      	movs	r0, #0
10004f72:	007f      	lsls	r7, r7, #1
10004f74:	1c79      	adds	r1, r7, #1
10004f76:	0789      	lsls	r1, r1, #30
10004f78:	1289      	asrs	r1, r1, #10
10004f7a:	3c80      	subs	r4, #128	@ 0x80
10004f7c:	0324      	lsls	r4, r4, #12

10004f7e <l8_3>:
10004f7e:	0d1d      	lsrs	r5, r3, #20
10004f80:	0fdf      	lsrs	r7, r3, #31
10004f82:	1e6e      	subs	r6, r5, #1
10004f84:	0536      	lsls	r6, r6, #20
10004f86:	1b9b      	subs	r3, r3, r6
10004f88:	056d      	lsls	r5, r5, #21
10004f8a:	d303      	bcc.n	10004f94 <l9_1>
10004f8c:	43db      	mvns	r3, r3
10004f8e:	4252      	negs	r2, r2
10004f90:	d300      	bcc.n	10004f94 <l9_1>
10004f92:	3301      	adds	r3, #1

10004f94 <l9_1>:
10004f94:	0d6d      	lsrs	r5, r5, #21
10004f96:	d003      	beq.n	10004fa0 <l9_2>
10004f98:	1c6e      	adds	r6, r5, #1
10004f9a:	0af6      	lsrs	r6, r6, #11
10004f9c:	d007      	beq.n	10004fae <l9_3>
10004f9e:	1bed      	subs	r5, r5, r7

10004fa0 <l9_2>:
10004fa0:	2200      	movs	r2, #0
10004fa2:	007f      	lsls	r7, r7, #1
10004fa4:	1c7b      	adds	r3, r7, #1
10004fa6:	079b      	lsls	r3, r3, #30
10004fa8:	129b      	asrs	r3, r3, #10
10004faa:	3d80      	subs	r5, #128	@ 0x80
10004fac:	032d      	lsls	r5, r5, #12

10004fae <l9_3>:
10004fae:	1b2f      	subs	r7, r5, r4
10004fb0:	1b66      	subs	r6, r4, r5
10004fb2:	d458      	bmi.n	10005066 <da_ygtx>
10004fb4:	46a4      	mov	ip, r4
10004fb6:	2e20      	cmp	r6, #32
10004fb8:	da46      	bge.n	10005048 <da_xrgty>
10004fba:	3720      	adds	r7, #32
10004fbc:	0014      	movs	r4, r2
10004fbe:	40bc      	lsls	r4, r7

10004fc0 <da_xgty0>:
10004fc0:	001d      	movs	r5, r3
10004fc2:	40bd      	lsls	r5, r7
10004fc4:	40f2      	lsrs	r2, r6
10004fc6:	4133      	asrs	r3, r6
10004fc8:	432a      	orrs	r2, r5

10004fca <da_add>:
10004fca:	1880      	adds	r0, r0, r2
10004fcc:	4159      	adcs	r1, r3

10004fce <da_pack>:
10004fce:	0fcb      	lsrs	r3, r1, #31
10004fd0:	d005      	beq.n	10004fde <da_pack+0x10>
10004fd2:	43c9      	mvns	r1, r1
10004fd4:	43c0      	mvns	r0, r0
10004fd6:	2200      	movs	r2, #0
10004fd8:	4264      	negs	r4, r4
10004fda:	4150      	adcs	r0, r2
10004fdc:	4151      	adcs	r1, r2
10004fde:	4662      	mov	r2, ip
10004fe0:	0d4d      	lsrs	r5, r1, #21
10004fe2:	d128      	bne.n	10005036 <da_0>
10004fe4:	0d0d      	lsrs	r5, r1, #20
10004fe6:	d107      	bne.n	10004ff8 <da_1>
10004fe8:	2800      	cmp	r0, #0
10004fea:	d01f      	beq.n	1000502c <da_5>

10004fec <da_2>:
10004fec:	1924      	adds	r4, r4, r4
10004fee:	4140      	adcs	r0, r0
10004ff0:	4149      	adcs	r1, r1
10004ff2:	3a01      	subs	r2, #1
10004ff4:	0d0d      	lsrs	r5, r1, #20
10004ff6:	d0f9      	beq.n	10004fec <da_2>

10004ff8 <da_1>:
10004ff8:	0064      	lsls	r4, r4, #1
10004ffa:	d306      	bcc.n	1000500a <da_3>

10004ffc <da_4>:
10004ffc:	3001      	adds	r0, #1
10004ffe:	d300      	bcc.n	10005002 <da_4+0x6>
10005000:	3101      	adds	r1, #1
10005002:	2c00      	cmp	r4, #0
10005004:	d101      	bne.n	1000500a <da_3>
10005006:	0840      	lsrs	r0, r0, #1
10005008:	0040      	lsls	r0, r0, #1

1000500a <da_3>:
1000500a:	3a01      	subs	r2, #1
1000500c:	d40b      	bmi.n	10005026 <da_6>
1000500e:	1c94      	adds	r4, r2, #2
10005010:	0ae4      	lsrs	r4, r4, #11
10005012:	d104      	bne.n	1000501e <da_7>
10005014:	0512      	lsls	r2, r2, #20
10005016:	4411      	add	r1, r2
10005018:	07db      	lsls	r3, r3, #31
1000501a:	4419      	add	r1, r3
1000501c:	bdf0      	pop	{r4, r5, r6, r7, pc}

1000501e <da_7>:
1000501e:	07d9      	lsls	r1, r3, #31
10005020:	4b20      	ldr	r3, [pc, #128]	@ (100050a4 <da_xmgty+0x4>)
10005022:	4319      	orrs	r1, r3
10005024:	e000      	b.n	10005028 <da_6+0x2>

10005026 <da_6>:
10005026:	07d9      	lsls	r1, r3, #31
10005028:	2000      	movs	r0, #0
1000502a:	bdf0      	pop	{r4, r5, r6, r7, pc}

1000502c <da_5>:
1000502c:	2900      	cmp	r1, #0
1000502e:	d1dd      	bne.n	10004fec <da_2>
10005030:	2c00      	cmp	r4, #0
10005032:	d1db      	bne.n	10004fec <da_2>
10005034:	bdf0      	pop	{r4, r5, r6, r7, pc}

10005036 <da_0>:
10005036:	3201      	adds	r2, #1
10005038:	07c6      	lsls	r6, r0, #31
1000503a:	0840      	lsrs	r0, r0, #1
1000503c:	07cd      	lsls	r5, r1, #31
1000503e:	4328      	orrs	r0, r5
10005040:	0849      	lsrs	r1, r1, #1
10005042:	2e00      	cmp	r6, #0
10005044:	d0e1      	beq.n	1000500a <da_3>
10005046:	e7d9      	b.n	10004ffc <da_4>

10005048 <da_xrgty>:
10005048:	2e3c      	cmp	r6, #60	@ 0x3c
1000504a:	da29      	bge.n	100050a0 <da_xmgty>
1000504c:	3e20      	subs	r6, #32
1000504e:	3740      	adds	r7, #64	@ 0x40
10005050:	0014      	movs	r4, r2
10005052:	40bc      	lsls	r4, r7
10005054:	d000      	beq.n	10005058 <da_xrgty+0x10>
10005056:	2401      	movs	r4, #1
10005058:	40f2      	lsrs	r2, r6
1000505a:	4314      	orrs	r4, r2
1000505c:	001a      	movs	r2, r3
1000505e:	40bb      	lsls	r3, r7
10005060:	431c      	orrs	r4, r3
10005062:	17d3      	asrs	r3, r2, #31
10005064:	e7ac      	b.n	10004fc0 <da_xgty0>

10005066 <da_ygtx>:
10005066:	46ac      	mov	ip, r5
10005068:	2f20      	cmp	r7, #32
1000506a:	da08      	bge.n	1000507e <da_yrgtx>
1000506c:	3620      	adds	r6, #32
1000506e:	0004      	movs	r4, r0
10005070:	40b4      	lsls	r4, r6

10005072 <da_ygtx0>:
10005072:	000d      	movs	r5, r1
10005074:	40b5      	lsls	r5, r6
10005076:	40f8      	lsrs	r0, r7
10005078:	4139      	asrs	r1, r7
1000507a:	4328      	orrs	r0, r5
1000507c:	e7a5      	b.n	10004fca <da_add>

1000507e <da_yrgtx>:
1000507e:	2f3c      	cmp	r7, #60	@ 0x3c
10005080:	da0c      	bge.n	1000509c <da_ymgtx>
10005082:	3f20      	subs	r7, #32
10005084:	3640      	adds	r6, #64	@ 0x40
10005086:	0004      	movs	r4, r0
10005088:	40b4      	lsls	r4, r6
1000508a:	d000      	beq.n	1000508e <da_yrgtx+0x10>
1000508c:	2401      	movs	r4, #1
1000508e:	40f8      	lsrs	r0, r7
10005090:	4304      	orrs	r4, r0
10005092:	0008      	movs	r0, r1
10005094:	40b1      	lsls	r1, r6
10005096:	430c      	orrs	r4, r1
10005098:	17c1      	asrs	r1, r0, #31
1000509a:	e7ea      	b.n	10005072 <da_ygtx0>

1000509c <da_ymgtx>:
1000509c:	0010      	movs	r0, r2
1000509e:	0019      	movs	r1, r3

100050a0 <da_xmgty>:
100050a0:	2400      	movs	r4, #0
100050a2:	e794      	b.n	10004fce <da_pack>
100050a4:	7ff00000 	.word	0x7ff00000

100050a8 <dmul_shim>:
100050a8:	b5f0      	push	{r4, r5, r6, r7, lr}
100050aa:	0d0c      	lsrs	r4, r1, #20
100050ac:	1e66      	subs	r6, r4, #1
100050ae:	0536      	lsls	r6, r6, #20
100050b0:	1b89      	subs	r1, r1, r6
100050b2:	0ae6      	lsrs	r6, r4, #11
100050b4:	0564      	lsls	r4, r4, #21
100050b6:	0d64      	lsrs	r4, r4, #21
100050b8:	d002      	beq.n	100050c0 <l12_1>
100050ba:	1c65      	adds	r5, r4, #1
100050bc:	0aed      	lsrs	r5, r5, #11
100050be:	d004      	beq.n	100050ca <l12_2>

100050c0 <l12_1>:
100050c0:	2000      	movs	r0, #0
100050c2:	2101      	movs	r1, #1
100050c4:	0509      	lsls	r1, r1, #20
100050c6:	3c80      	subs	r4, #128	@ 0x80
100050c8:	0324      	lsls	r4, r4, #12

100050ca <l12_2>:
100050ca:	46a4      	mov	ip, r4
100050cc:	0d1c      	lsrs	r4, r3, #20
100050ce:	1e67      	subs	r7, r4, #1
100050d0:	053f      	lsls	r7, r7, #20
100050d2:	1bdb      	subs	r3, r3, r7
100050d4:	0ae7      	lsrs	r7, r4, #11
100050d6:	0564      	lsls	r4, r4, #21
100050d8:	0d64      	lsrs	r4, r4, #21
100050da:	d002      	beq.n	100050e2 <l13_1>
100050dc:	1c65      	adds	r5, r4, #1
100050de:	0aed      	lsrs	r5, r5, #11
100050e0:	d004      	beq.n	100050ec <l13_2>

100050e2 <l13_1>:
100050e2:	2200      	movs	r2, #0
100050e4:	2301      	movs	r3, #1
100050e6:	051b      	lsls	r3, r3, #20
100050e8:	3c80      	subs	r4, #128	@ 0x80
100050ea:	0324      	lsls	r4, r4, #12

100050ec <l13_2>:
100050ec:	4077      	eors	r7, r6
100050ee:	4464      	add	r4, ip
100050f0:	b497      	push	{r0, r1, r2, r4, r7}
100050f2:	b284      	uxth	r4, r0
100050f4:	b296      	uxth	r6, r2
100050f6:	4374      	muls	r4, r6
100050f8:	0c07      	lsrs	r7, r0, #16
100050fa:	437e      	muls	r6, r7
100050fc:	0c15      	lsrs	r5, r2, #16
100050fe:	436f      	muls	r7, r5
10005100:	b280      	uxth	r0, r0
10005102:	4368      	muls	r0, r5
10005104:	1836      	adds	r6, r6, r0
10005106:	d302      	bcc.n	1000510e <l14_1>
10005108:	2001      	movs	r0, #1
1000510a:	0400      	lsls	r0, r0, #16
1000510c:	183f      	adds	r7, r7, r0

1000510e <l14_1>:
1000510e:	0430      	lsls	r0, r6, #16
10005110:	0c35      	lsrs	r5, r6, #16
10005112:	1900      	adds	r0, r0, r4
10005114:	417d      	adcs	r5, r7
10005116:	4684      	mov	ip, r0
10005118:	b288      	uxth	r0, r1
1000511a:	b29a      	uxth	r2, r3
1000511c:	4350      	muls	r0, r2
1000511e:	0c0c      	lsrs	r4, r1, #16
10005120:	4362      	muls	r2, r4
10005122:	0c1f      	lsrs	r7, r3, #16
10005124:	437c      	muls	r4, r7
10005126:	b28e      	uxth	r6, r1
10005128:	437e      	muls	r6, r7
1000512a:	1992      	adds	r2, r2, r6
1000512c:	d302      	bcc.n	10005134 <l15_1>
1000512e:	2601      	movs	r6, #1
10005130:	0436      	lsls	r6, r6, #16
10005132:	19a4      	adds	r4, r4, r6

10005134 <l15_1>:
10005134:	0416      	lsls	r6, r2, #16
10005136:	0c17      	lsrs	r7, r2, #16
10005138:	1836      	adds	r6, r6, r0
1000513a:	4167      	adcs	r7, r4
1000513c:	bc01      	pop	{r0}
1000513e:	b281      	uxth	r1, r0
10005140:	b29a      	uxth	r2, r3
10005142:	4351      	muls	r1, r2
10005144:	0c04      	lsrs	r4, r0, #16
10005146:	4362      	muls	r2, r4
10005148:	0c1b      	lsrs	r3, r3, #16
1000514a:	435c      	muls	r4, r3
1000514c:	b280      	uxth	r0, r0
1000514e:	4358      	muls	r0, r3
10005150:	1812      	adds	r2, r2, r0
10005152:	d302      	bcc.n	1000515a <l16_1>
10005154:	2001      	movs	r0, #1
10005156:	0400      	lsls	r0, r0, #16
10005158:	1824      	adds	r4, r4, r0

1000515a <l16_1>:
1000515a:	0410      	lsls	r0, r2, #16
1000515c:	0c13      	lsrs	r3, r2, #16
1000515e:	1840      	adds	r0, r0, r1
10005160:	4163      	adcs	r3, r4
10005162:	182d      	adds	r5, r5, r0
10005164:	415e      	adcs	r6, r3
10005166:	2000      	movs	r0, #0
10005168:	4147      	adcs	r7, r0
1000516a:	bc06      	pop	{r1, r2}
1000516c:	b288      	uxth	r0, r1
1000516e:	b293      	uxth	r3, r2
10005170:	4358      	muls	r0, r3
10005172:	0c0c      	lsrs	r4, r1, #16
10005174:	4363      	muls	r3, r4
10005176:	0c12      	lsrs	r2, r2, #16
10005178:	4354      	muls	r4, r2
1000517a:	b289      	uxth	r1, r1
1000517c:	4351      	muls	r1, r2
1000517e:	185b      	adds	r3, r3, r1
10005180:	d302      	bcc.n	10005188 <l17_1>
10005182:	2101      	movs	r1, #1
10005184:	0409      	lsls	r1, r1, #16
10005186:	1864      	adds	r4, r4, r1

10005188 <l17_1>:
10005188:	0419      	lsls	r1, r3, #16
1000518a:	0c1a      	lsrs	r2, r3, #16
1000518c:	1809      	adds	r1, r1, r0
1000518e:	4162      	adcs	r2, r4
10005190:	186d      	adds	r5, r5, r1
10005192:	4156      	adcs	r6, r2
10005194:	2000      	movs	r0, #0
10005196:	4147      	adcs	r7, r0
10005198:	bc18      	pop	{r3, r4}
1000519a:	02f9      	lsls	r1, r7, #11
1000519c:	0d72      	lsrs	r2, r6, #21
1000519e:	4311      	orrs	r1, r2
100051a0:	02f0      	lsls	r0, r6, #11
100051a2:	0d6a      	lsrs	r2, r5, #21
100051a4:	4310      	orrs	r0, r2
100051a6:	02ed      	lsls	r5, r5, #11
100051a8:	0d0a      	lsrs	r2, r1, #20
100051aa:	d103      	bne.n	100051b4 <l17_1+0x2c>
100051ac:	196d      	adds	r5, r5, r5
100051ae:	4140      	adcs	r0, r0
100051b0:	4149      	adcs	r1, r1
100051b2:	3b01      	subs	r3, #1
100051b4:	4e12      	ldr	r6, [pc, #72]	@ (10005200 <dm_1+0xa>)
100051b6:	1b9b      	subs	r3, r3, r6
100051b8:	0076      	lsls	r6, r6, #1
100051ba:	42b3      	cmp	r3, r6
100051bc:	d20e      	bcs.n	100051dc <dm_0>
100051be:	006d      	lsls	r5, r5, #1
100051c0:	d307      	bcc.n	100051d2 <l17_1+0x4a>
100051c2:	3001      	adds	r0, #1
100051c4:	2600      	movs	r6, #0
100051c6:	4171      	adcs	r1, r6
100051c8:	4666      	mov	r6, ip
100051ca:	4335      	orrs	r5, r6
100051cc:	d101      	bne.n	100051d2 <l17_1+0x4a>
100051ce:	0840      	lsrs	r0, r0, #1
100051d0:	0040      	lsls	r0, r0, #1
100051d2:	051b      	lsls	r3, r3, #20
100051d4:	18c9      	adds	r1, r1, r3

100051d6 <dm_2>:
100051d6:	07e4      	lsls	r4, r4, #31
100051d8:	4421      	add	r1, r4
100051da:	bdf0      	pop	{r4, r5, r6, r7, pc}

100051dc <dm_0>:
100051dc:	da0b      	bge.n	100051f6 <dm_1>
100051de:	3301      	adds	r3, #1
100051e0:	d106      	bne.n	100051f0 <dm_0+0x14>
100051e2:	3001      	adds	r0, #1
100051e4:	d104      	bne.n	100051f0 <dm_0+0x14>
100051e6:	3101      	adds	r1, #1
100051e8:	0d4f      	lsrs	r7, r1, #21
100051ea:	d001      	beq.n	100051f0 <dm_0+0x14>
100051ec:	0849      	lsrs	r1, r1, #1
100051ee:	e7f2      	b.n	100051d6 <dm_2>
100051f0:	07e1      	lsls	r1, r4, #31
100051f2:	2000      	movs	r0, #0
100051f4:	bdf0      	pop	{r4, r5, r6, r7, pc}

100051f6 <dm_1>:
100051f6:	3601      	adds	r6, #1
100051f8:	0531      	lsls	r1, r6, #20
100051fa:	2000      	movs	r0, #0
100051fc:	e7eb      	b.n	100051d6 <dm_2>
100051fe:	0000      	.short	0x0000
10005200:	000003ff 	.word	0x000003ff

10005204 <ddiv_shim>:
10005204:	b5f0      	push	{r4, r5, r6, r7, lr}

10005206 <ddiv0>:
10005206:	0d1c      	lsrs	r4, r3, #20
10005208:	1e67      	subs	r7, r4, #1
1000520a:	053f      	lsls	r7, r7, #20
1000520c:	1bdb      	subs	r3, r3, r7
1000520e:	0ae7      	lsrs	r7, r4, #11
10005210:	0564      	lsls	r4, r4, #21
10005212:	0d64      	lsrs	r4, r4, #21
10005214:	d002      	beq.n	1000521c <l20_1>
10005216:	1c66      	adds	r6, r4, #1
10005218:	0af6      	lsrs	r6, r6, #11
1000521a:	d004      	beq.n	10005226 <l20_2>

1000521c <l20_1>:
1000521c:	2200      	movs	r2, #0
1000521e:	2301      	movs	r3, #1
10005220:	051b      	lsls	r3, r3, #20
10005222:	3c80      	subs	r4, #128	@ 0x80
10005224:	0324      	lsls	r4, r4, #12

10005226 <l20_2>:
10005226:	25d0      	movs	r5, #208	@ 0xd0
10005228:	062d      	lsls	r5, r5, #24
1000522a:	2600      	movs	r6, #0
1000522c:	43f6      	mvns	r6, r6
1000522e:	662e      	str	r6, [r5, #96]	@ 0x60
10005230:	091e      	lsrs	r6, r3, #4
10005232:	666e      	str	r6, [r5, #100]	@ 0x64
10005234:	0fce      	lsrs	r6, r1, #31
10005236:	19f6      	adds	r6, r6, r7
10005238:	46b4      	mov	ip, r6
1000523a:	0049      	lsls	r1, r1, #1
1000523c:	0d4f      	lsrs	r7, r1, #21
1000523e:	d002      	beq.n	10005246 <l20_2+0x20>
10005240:	1c7e      	adds	r6, r7, #1
10005242:	0af6      	lsrs	r6, r6, #11
10005244:	d003      	beq.n	1000524e <l20_2+0x28>
10005246:	2000      	movs	r0, #0
10005248:	2100      	movs	r1, #0
1000524a:	3f40      	subs	r7, #64	@ 0x40
1000524c:	033f      	lsls	r7, r7, #12
1000524e:	1b3e      	subs	r6, r7, r4
10005250:	00b6      	lsls	r6, r6, #2
10005252:	44b4      	add	ip, r6
10005254:	3f01      	subs	r7, #1
10005256:	057f      	lsls	r7, r7, #21
10005258:	1bc9      	subs	r1, r1, r7
1000525a:	0849      	lsrs	r1, r1, #1
1000525c:	6f2e      	ldr	r6, [r5, #112]	@ 0x70
1000525e:	3601      	adds	r6, #1
10005260:	0876      	lsrs	r6, r6, #1
10005262:	029c      	lsls	r4, r3, #10
10005264:	0d95      	lsrs	r5, r2, #22
10005266:	4325      	orrs	r5, r4
10005268:	4375      	muls	r5, r6
1000526a:	13ed      	asrs	r5, r5, #15
1000526c:	4375      	muls	r5, r6
1000526e:	13ad      	asrs	r5, r5, #14
10005270:	3501      	adds	r5, #1
10005272:	106d      	asrs	r5, r5, #1
10005274:	03f6      	lsls	r6, r6, #15
10005276:	1b76      	subs	r6, r6, r5
10005278:	b40c      	push	{r2, r3}
1000527a:	02cc      	lsls	r4, r1, #11
1000527c:	0d45      	lsrs	r5, r0, #21
1000527e:	432c      	orrs	r4, r5
10005280:	b2a2      	uxth	r2, r4
10005282:	b2b3      	uxth	r3, r6
10005284:	435a      	muls	r2, r3
10005286:	0c27      	lsrs	r7, r4, #16
10005288:	437b      	muls	r3, r7
1000528a:	0c35      	lsrs	r5, r6, #16
1000528c:	436f      	muls	r7, r5
1000528e:	b2a4      	uxth	r4, r4
10005290:	436c      	muls	r4, r5
10005292:	191b      	adds	r3, r3, r4
10005294:	d302      	bcc.n	1000529c <l21_1>
10005296:	2401      	movs	r4, #1
10005298:	0424      	lsls	r4, r4, #16
1000529a:	193f      	adds	r7, r7, r4

1000529c <l21_1>:
1000529c:	041c      	lsls	r4, r3, #16
1000529e:	0c1d      	lsrs	r5, r3, #16
100052a0:	18a4      	adds	r4, r4, r2
100052a2:	417d      	adcs	r5, r7
100052a4:	1924      	adds	r4, r4, r4
100052a6:	416d      	adcs	r5, r5
100052a8:	9a00      	ldr	r2, [sp, #0]
100052aa:	b291      	uxth	r1, r2
100052ac:	b2ac      	uxth	r4, r5
100052ae:	4361      	muls	r1, r4
100052b0:	0c17      	lsrs	r7, r2, #16
100052b2:	437c      	muls	r4, r7
100052b4:	0c2b      	lsrs	r3, r5, #16
100052b6:	435f      	muls	r7, r3
100052b8:	b292      	uxth	r2, r2
100052ba:	435a      	muls	r2, r3
100052bc:	18a4      	adds	r4, r4, r2
100052be:	d302      	bcc.n	100052c6 <l22_1>
100052c0:	2201      	movs	r2, #1
100052c2:	0412      	lsls	r2, r2, #16
100052c4:	18bf      	adds	r7, r7, r2

100052c6 <l22_1>:
100052c6:	0422      	lsls	r2, r4, #16
100052c8:	0c23      	lsrs	r3, r4, #16
100052ca:	1852      	adds	r2, r2, r1
100052cc:	417b      	adcs	r3, r7
100052ce:	9c01      	ldr	r4, [sp, #4]
100052d0:	436c      	muls	r4, r5
100052d2:	191b      	adds	r3, r3, r4
100052d4:	0e52      	lsrs	r2, r2, #25
100052d6:	01d9      	lsls	r1, r3, #7
100052d8:	430a      	orrs	r2, r1
100052da:	0144      	lsls	r4, r0, #5
100052dc:	1aa0      	subs	r0, r4, r2
100052de:	b281      	uxth	r1, r0
100052e0:	b2b2      	uxth	r2, r6
100052e2:	4351      	muls	r1, r2
100052e4:	1403      	asrs	r3, r0, #16
100052e6:	435a      	muls	r2, r3
100052e8:	0c36      	lsrs	r6, r6, #16
100052ea:	4373      	muls	r3, r6
100052ec:	b287      	uxth	r7, r0
100052ee:	4377      	muls	r7, r6
100052f0:	17d6      	asrs	r6, r2, #31
100052f2:	19d2      	adds	r2, r2, r7
100052f4:	2700      	movs	r7, #0
100052f6:	417e      	adcs	r6, r7
100052f8:	0436      	lsls	r6, r6, #16
100052fa:	199b      	adds	r3, r3, r6
100052fc:	0417      	lsls	r7, r2, #16
100052fe:	0c16      	lsrs	r6, r2, #16
10005300:	187f      	adds	r7, r7, r1
10005302:	415e      	adcs	r6, r3
10005304:	1673      	asrs	r3, r6, #25
10005306:	18ed      	adds	r5, r5, r3
10005308:	01f3      	lsls	r3, r6, #7
1000530a:	2600      	movs	r6, #0
1000530c:	3380      	adds	r3, #128	@ 0x80
1000530e:	4175      	adcs	r5, r6
10005310:	0fa9      	lsrs	r1, r5, #30
10005312:	d106      	bne.n	10005322 <dd_0>
10005314:	0064      	lsls	r4, r4, #1
10005316:	0a69      	lsrs	r1, r5, #9
10005318:	05e8      	lsls	r0, r5, #23
1000531a:	0a5b      	lsrs	r3, r3, #9
1000531c:	4318      	orrs	r0, r3
1000531e:	d209      	bcs.n	10005334 <dd_1>
10005320:	e02f      	b.n	10005382 <dd_2>

10005322 <dd_0>:
10005322:	2204      	movs	r2, #4
10005324:	4494      	add	ip, r2
10005326:	3380      	adds	r3, #128	@ 0x80
10005328:	4175      	adcs	r5, r6
1000532a:	0aa9      	lsrs	r1, r5, #10
1000532c:	05a8      	lsls	r0, r5, #22
1000532e:	0a9b      	lsrs	r3, r3, #10
10005330:	4318      	orrs	r0, r3
10005332:	d326      	bcc.n	10005382 <dd_2>

10005334 <dd_1>:
10005334:	4140      	adcs	r0, r0
10005336:	4149      	adcs	r1, r1
10005338:	0424      	lsls	r4, r4, #16
1000533a:	9a00      	ldr	r2, [sp, #0]
1000533c:	9b01      	ldr	r3, [sp, #4]
1000533e:	000d      	movs	r5, r1
10005340:	4355      	muls	r5, r2
10005342:	1b64      	subs	r4, r4, r5
10005344:	4343      	muls	r3, r0
10005346:	1ae4      	subs	r4, r4, r3
10005348:	b295      	uxth	r5, r2
1000534a:	b286      	uxth	r6, r0
1000534c:	4375      	muls	r5, r6
1000534e:	0c17      	lsrs	r7, r2, #16
10005350:	437e      	muls	r6, r7
10005352:	0c03      	lsrs	r3, r0, #16
10005354:	435f      	muls	r7, r3
10005356:	b292      	uxth	r2, r2
10005358:	435a      	muls	r2, r3
1000535a:	18b6      	adds	r6, r6, r2
1000535c:	d302      	bcc.n	10005364 <l24_1>
1000535e:	2201      	movs	r2, #1
10005360:	0412      	lsls	r2, r2, #16
10005362:	18bf      	adds	r7, r7, r2

10005364 <l24_1>:
10005364:	0432      	lsls	r2, r6, #16
10005366:	0c33      	lsrs	r3, r6, #16
10005368:	1952      	adds	r2, r2, r5
1000536a:	417b      	adcs	r3, r7
1000536c:	4252      	negs	r2, r2
1000536e:	419c      	sbcs	r4, r3
10005370:	2c00      	cmp	r4, #0
10005372:	d402      	bmi.n	1000537a <l24_1+0x16>
10005374:	2200      	movs	r2, #0
10005376:	3001      	adds	r0, #1
10005378:	4151      	adcs	r1, r2
1000537a:	0840      	lsrs	r0, r0, #1
1000537c:	07ca      	lsls	r2, r1, #31
1000537e:	4310      	orrs	r0, r2
10005380:	0849      	lsrs	r1, r1, #1

10005382 <dd_2>:
10005382:	b002      	add	sp, #8
10005384:	4662      	mov	r2, ip
10005386:	07d7      	lsls	r7, r2, #31
10005388:	1092      	asrs	r2, r2, #2
1000538a:	4b08      	ldr	r3, [pc, #32]	@ (100053ac <dd_4+0x6>)
1000538c:	18d2      	adds	r2, r2, r3
1000538e:	4b08      	ldr	r3, [pc, #32]	@ (100053b0 <dd_4+0xa>)
10005390:	429a      	cmp	r2, r3
10005392:	d203      	bcs.n	1000539c <dd_3>
10005394:	0512      	lsls	r2, r2, #20
10005396:	1889      	adds	r1, r1, r2

10005398 <dd_5>:
10005398:	19c9      	adds	r1, r1, r7
1000539a:	bdf0      	pop	{r4, r5, r6, r7, pc}

1000539c <dd_3>:
1000539c:	2000      	movs	r0, #0
1000539e:	2a00      	cmp	r2, #0
100053a0:	dc01      	bgt.n	100053a6 <dd_4>
100053a2:	0039      	movs	r1, r7
100053a4:	bdf0      	pop	{r4, r5, r6, r7, pc}

100053a6 <dd_4>:
100053a6:	3301      	adds	r3, #1
100053a8:	0519      	lsls	r1, r3, #20
100053aa:	e7f5      	b.n	10005398 <dd_5>
100053ac:	000003fd 	.word	0x000003fd
100053b0:	000007fe 	.word	0x000007fe

100053b4 <double2uint_shim>:
100053b4:	2200      	movs	r2, #0

100053b6 <double2ufix_shim>:
100053b6:	b500      	push	{lr}
100053b8:	3220      	adds	r2, #32
100053ba:	f000 f804 	bl	100053c6 <double2ufix64_shim>
100053be:	0008      	movs	r0, r1
100053c0:	bd00      	pop	{pc}
	...

100053c4 <double2uint64_shim>:
100053c4:	2200      	movs	r2, #0

100053c6 <double2ufix64_shim>:
100053c6:	150b      	asrs	r3, r1, #20
100053c8:	d40a      	bmi.n	100053e0 <ret_dzero>

100053ca <d2fix>:
100053ca:	b510      	push	{r4, lr}
100053cc:	4694      	mov	ip, r2
100053ce:	f000 f831 	bl	10005434 <dunpacks>
100053d2:	1414      	asrs	r4, r2, #16
100053d4:	3401      	adds	r4, #1
100053d6:	da00      	bge.n	100053da <d2fix+0x10>
100053d8:	2100      	movs	r1, #0
100053da:	17cb      	asrs	r3, r1, #31
100053dc:	4c14      	ldr	r4, [pc, #80]	@ (10005430 <d2fix_a+0x4a>)
100053de:	4720      	bx	r4

100053e0 <ret_dzero>:
100053e0:	2000      	movs	r0, #0
100053e2:	2100      	movs	r1, #0
100053e4:	4770      	bx	lr

100053e6 <d2fix_a>:
100053e6:	4462      	add	r2, ip
100053e8:	3a34      	subs	r2, #52	@ 0x34
100053ea:	d40c      	bmi.n	10005406 <d2fix_a+0x20>
100053ec:	2a0c      	cmp	r2, #12
100053ee:	da07      	bge.n	10005400 <d2fix_a+0x1a>
100053f0:	0004      	movs	r4, r0
100053f2:	4091      	lsls	r1, r2
100053f4:	4090      	lsls	r0, r2
100053f6:	4252      	negs	r2, r2
100053f8:	3220      	adds	r2, #32
100053fa:	40d4      	lsrs	r4, r2
100053fc:	4321      	orrs	r1, r4
100053fe:	bd10      	pop	{r4, pc}
10005400:	43d8      	mvns	r0, r3
10005402:	43d9      	mvns	r1, r3
10005404:	bd10      	pop	{r4, pc}
10005406:	3220      	adds	r2, #32
10005408:	d407      	bmi.n	1000541a <d2fix_a+0x34>
1000540a:	460c      	mov	r4, r1
1000540c:	4094      	lsls	r4, r2
1000540e:	4252      	negs	r2, r2
10005410:	3220      	adds	r2, #32
10005412:	4111      	asrs	r1, r2
10005414:	40d0      	lsrs	r0, r2
10005416:	4320      	orrs	r0, r4
10005418:	bd10      	pop	{r4, pc}
1000541a:	0008      	movs	r0, r1
1000541c:	17c9      	asrs	r1, r1, #31
1000541e:	3220      	adds	r2, #32
10005420:	d403      	bmi.n	1000542a <d2fix_a+0x44>
10005422:	4252      	negs	r2, r2
10005424:	3220      	adds	r2, #32
10005426:	4110      	asrs	r0, r2
10005428:	bd10      	pop	{r4, pc}
1000542a:	0018      	movs	r0, r3
1000542c:	0019      	movs	r1, r3
1000542e:	bd10      	pop	{r4, pc}
10005430:	100053e7 	.word	0x100053e7

10005434 <dunpacks>:
10005434:	0d0a      	lsrs	r2, r1, #20
10005436:	0fcc      	lsrs	r4, r1, #31
10005438:	1e53      	subs	r3, r2, #1
1000543a:	051b      	lsls	r3, r3, #20
1000543c:	1ac9      	subs	r1, r1, r3
1000543e:	0552      	lsls	r2, r2, #21
10005440:	d303      	bcc.n	1000544a <l60_1>
10005442:	43c9      	mvns	r1, r1
10005444:	4240      	negs	r0, r0
10005446:	d300      	bcc.n	1000544a <l60_1>
10005448:	3101      	adds	r1, #1

1000544a <l60_1>:
1000544a:	0d52      	lsrs	r2, r2, #21
1000544c:	d003      	beq.n	10005456 <l60_2>
1000544e:	1c53      	adds	r3, r2, #1
10005450:	0adb      	lsrs	r3, r3, #11
10005452:	d007      	beq.n	10005464 <l60_3>
10005454:	1b12      	subs	r2, r2, r4

10005456 <l60_2>:
10005456:	2000      	movs	r0, #0
10005458:	0064      	lsls	r4, r4, #1
1000545a:	1c61      	adds	r1, r4, #1
1000545c:	0789      	lsls	r1, r1, #30
1000545e:	1289      	asrs	r1, r1, #10
10005460:	3a80      	subs	r2, #128	@ 0x80
10005462:	0312      	lsls	r2, r2, #12

10005464 <l60_3>:
10005464:	4b01      	ldr	r3, [pc, #4]	@ (1000546c <l60_3+0x8>)
10005466:	1ad2      	subs	r2, r2, r3
10005468:	4770      	bx	lr
1000546a:	0000      	.short	0x0000
1000546c:	000003ff 	.word	0x000003ff

10005470 <__wrap___aeabi_lmul>:
10005470:	4351      	muls	r1, r2
10005472:	4343      	muls	r3, r0
10005474:	18c9      	adds	r1, r1, r3
10005476:	468c      	mov	ip, r1
10005478:	0c11      	lsrs	r1, r2, #16
1000547a:	b283      	uxth	r3, r0
1000547c:	434b      	muls	r3, r1
1000547e:	b410      	push	{r4}
10005480:	0c04      	lsrs	r4, r0, #16
10005482:	4361      	muls	r1, r4
10005484:	b292      	uxth	r2, r2
10005486:	b280      	uxth	r0, r0
10005488:	4350      	muls	r0, r2
1000548a:	4362      	muls	r2, r4
1000548c:	041c      	lsls	r4, r3, #16
1000548e:	0c1b      	lsrs	r3, r3, #16
10005490:	1900      	adds	r0, r0, r4
10005492:	bc10      	pop	{r4}
10005494:	4159      	adcs	r1, r3
10005496:	0413      	lsls	r3, r2, #16
10005498:	0c12      	lsrs	r2, r2, #16
1000549a:	18c0      	adds	r0, r0, r3
1000549c:	4151      	adcs	r1, r2
1000549e:	4461      	add	r1, ip
100054a0:	4770      	bx	lr
	...

100054a4 <__wrap___aeabi_frsub>:
100054a4:	4048      	eors	r0, r1
100054a6:	4041      	eors	r1, r0
100054a8:	4048      	eors	r0, r1

100054aa <__wrap___aeabi_fsub>:
100054aa:	4b0e      	ldr	r3, [pc, #56]	@ (100054e4 <__wrap___aeabi_fmul+0x6>)
100054ac:	685b      	ldr	r3, [r3, #4]
100054ae:	4718      	bx	r3

100054b0 <__wrap___aeabi_fadd>:
100054b0:	4b0c      	ldr	r3, [pc, #48]	@ (100054e4 <__wrap___aeabi_fmul+0x6>)
100054b2:	681b      	ldr	r3, [r3, #0]
100054b4:	4718      	bx	r3

100054b6 <__wrap___aeabi_fdiv>:
100054b6:	4a0c      	ldr	r2, [pc, #48]	@ (100054e8 <__wrap___aeabi_fmul+0xa>)
100054b8:	6f93      	ldr	r3, [r2, #120]	@ 0x78
100054ba:	089b      	lsrs	r3, r3, #2
100054bc:	d202      	bcs.n	100054c4 <fdiv_save_state>

100054be <fdiv_shim_call>:
100054be:	4b09      	ldr	r3, [pc, #36]	@ (100054e4 <__wrap___aeabi_fmul+0x6>)
100054c0:	68db      	ldr	r3, [r3, #12]
100054c2:	4718      	bx	r3

100054c4 <fdiv_save_state>:
100054c4:	b5f0      	push	{r4, r5, r6, r7, lr}
100054c6:	6e14      	ldr	r4, [r2, #96]	@ 0x60
100054c8:	6e55      	ldr	r5, [r2, #100]	@ 0x64
100054ca:	6f57      	ldr	r7, [r2, #116]	@ 0x74
100054cc:	6f16      	ldr	r6, [r2, #112]	@ 0x70
100054ce:	f7ff fff6 	bl	100054be <fdiv_shim_call>
100054d2:	4a05      	ldr	r2, [pc, #20]	@ (100054e8 <__wrap___aeabi_fmul+0xa>)
100054d4:	6614      	str	r4, [r2, #96]	@ 0x60
100054d6:	6655      	str	r5, [r2, #100]	@ 0x64
100054d8:	6757      	str	r7, [r2, #116]	@ 0x74
100054da:	6716      	str	r6, [r2, #112]	@ 0x70
100054dc:	bdf0      	pop	{r4, r5, r6, r7, pc}

100054de <__wrap___aeabi_fmul>:
100054de:	4b01      	ldr	r3, [pc, #4]	@ (100054e4 <__wrap___aeabi_fmul+0x6>)
100054e0:	689b      	ldr	r3, [r3, #8]
100054e2:	4718      	bx	r3
100054e4:	20002e20 	.word	0x20002e20
100054e8:	d0000000 	.word	0xd0000000

100054ec <__wrap___aeabi_ui2f>:
100054ec:	1a49      	subs	r1, r1, r1
100054ee:	2800      	cmp	r0, #0
100054f0:	d108      	bne.n	10005504 <__aeabi_i2f_main>
100054f2:	4608      	mov	r0, r1
100054f4:	4770      	bx	lr
	...

100054f8 <__wrap___aeabi_i2f>:
100054f8:	0fc1      	lsrs	r1, r0, #31
100054fa:	07c9      	lsls	r1, r1, #31
100054fc:	d500      	bpl.n	10005500 <__wrap___aeabi_i2f+0x8>
100054fe:	4240      	negs	r0, r0
10005500:	2800      	cmp	r0, #0
10005502:	d017      	beq.n	10005534 <__aeabi_i2f_main+0x30>

10005504 <__aeabi_i2f_main>:
10005504:	46f4      	mov	ip, lr
10005506:	b403      	push	{r0, r1}
10005508:	4b0b      	ldr	r3, [pc, #44]	@ (10005538 <__aeabi_i2f_main+0x34>)
1000550a:	681b      	ldr	r3, [r3, #0]
1000550c:	4798      	blx	r3
1000550e:	bc06      	pop	{r1, r2}
10005510:	4081      	lsls	r1, r0
10005512:	389e      	subs	r0, #158	@ 0x9e
10005514:	4240      	negs	r0, r0
10005516:	3180      	adds	r1, #128	@ 0x80
10005518:	d207      	bcs.n	1000552a <__aeabi_i2f_main+0x26>
1000551a:	060b      	lsls	r3, r1, #24
1000551c:	d007      	beq.n	1000552e <__aeabi_i2f_main+0x2a>
1000551e:	0049      	lsls	r1, r1, #1
10005520:	0a49      	lsrs	r1, r1, #9
10005522:	05c0      	lsls	r0, r0, #23
10005524:	4310      	orrs	r0, r2
10005526:	4308      	orrs	r0, r1
10005528:	4760      	bx	ip
1000552a:	3001      	adds	r0, #1
1000552c:	e7f8      	b.n	10005520 <__aeabi_i2f_main+0x1c>
1000552e:	0a49      	lsrs	r1, r1, #9
10005530:	0289      	lsls	r1, r1, #10
10005532:	e7f5      	b.n	10005520 <__aeabi_i2f_main+0x1c>
10005534:	4770      	bx	lr
10005536:	0000      	.short	0x0000
10005538:	2000582c 	.word	0x2000582c

1000553c <__wrap___aeabi_f2uiz>:
1000553c:	4b01      	ldr	r3, [pc, #4]	@ (10005544 <__wrap___aeabi_f2uiz+0x8>)
1000553e:	6a5b      	ldr	r3, [r3, #36]	@ 0x24
10005540:	4718      	bx	r3
10005542:	0000      	.short	0x0000
10005544:	20002e20 	.word	0x20002e20

10005548 <__aeabi_float_init>:
10005548:	2313      	movs	r3, #19
1000554a:	b510      	push	{r4, lr}
1000554c:	781c      	ldrb	r4, [r3, #0]
1000554e:	4813      	ldr	r0, [pc, #76]	@ (1000559c <__aeabi_float_init+0x54>)
10005550:	f7fe ffb0 	bl	100044b4 <rom_data_lookup>
10005554:	2c01      	cmp	r4, #1
10005556:	d00b      	beq.n	10005570 <__aeabi_float_init+0x28>
10005558:	dd04      	ble.n	10005564 <__aeabi_float_init+0x1c>
1000555a:	0001      	movs	r1, r0
1000555c:	2280      	movs	r2, #128	@ 0x80
1000555e:	4810      	ldr	r0, [pc, #64]	@ (100055a0 <__aeabi_float_init+0x58>)
10005560:	f000 f84a 	bl	100055f8 <__wrap___aeabi_memcpy>
10005564:	480f      	ldr	r0, [pc, #60]	@ (100055a4 <__aeabi_float_init+0x5c>)
10005566:	f7fe ff9d 	bl	100044a4 <rom_func_lookup>
1000556a:	4b0f      	ldr	r3, [pc, #60]	@ (100055a8 <__aeabi_float_init+0x60>)
1000556c:	6018      	str	r0, [r3, #0]
1000556e:	bd10      	pop	{r4, pc}
10005570:	4c0b      	ldr	r4, [pc, #44]	@ (100055a0 <__aeabi_float_init+0x58>)
10005572:	0001      	movs	r1, r0
10005574:	2254      	movs	r2, #84	@ 0x54
10005576:	0020      	movs	r0, r4
10005578:	f000 f83e 	bl	100055f8 <__wrap___aeabi_memcpy>
1000557c:	4b0b      	ldr	r3, [pc, #44]	@ (100055ac <__aeabi_float_init+0x64>)
1000557e:	6563      	str	r3, [r4, #84]	@ 0x54
10005580:	65a3      	str	r3, [r4, #88]	@ 0x58
10005582:	65e3      	str	r3, [r4, #92]	@ 0x5c
10005584:	6623      	str	r3, [r4, #96]	@ 0x60
10005586:	6663      	str	r3, [r4, #100]	@ 0x64
10005588:	66a3      	str	r3, [r4, #104]	@ 0x68
1000558a:	66e3      	str	r3, [r4, #108]	@ 0x6c
1000558c:	6723      	str	r3, [r4, #112]	@ 0x70
1000558e:	6763      	str	r3, [r4, #116]	@ 0x74
10005590:	67a3      	str	r3, [r4, #120]	@ 0x78
10005592:	67e3      	str	r3, [r4, #124]	@ 0x7c
10005594:	6223      	str	r3, [r4, #32]
10005596:	61e3      	str	r3, [r4, #28]
10005598:	e7e4      	b.n	10005564 <__aeabi_float_init+0x1c>
1000559a:	46c0      	nop			@ (mov r8, r8)
1000559c:	00004653 	.word	0x00004653
100055a0:	20002e20 	.word	0x20002e20
100055a4:	0000334c 	.word	0x0000334c
100055a8:	2000582c 	.word	0x2000582c
100055ac:	100055b1 	.word	0x100055b1

100055b0 <float_table_shim_on_use_helper>:
100055b0:	b507      	push	{r0, r1, r2, lr}
100055b2:	4660      	mov	r0, ip
100055b4:	8801      	ldrh	r1, [r0, #0]
100055b6:	0a0a      	lsrs	r2, r1, #8
100055b8:	3002      	adds	r0, #2
100055ba:	2adf      	cmp	r2, #223	@ 0xdf
100055bc:	d1fa      	bne.n	100055b4 <float_table_shim_on_use_helper+0x4>
100055be:	b2c9      	uxtb	r1, r1
100055c0:	0882      	lsrs	r2, r0, #2
100055c2:	d304      	bcc.n	100055ce <float_table_shim_on_use_helper+0x1e>
100055c4:	8802      	ldrh	r2, [r0, #0]
100055c6:	8840      	ldrh	r0, [r0, #2]
100055c8:	0400      	lsls	r0, r0, #16
100055ca:	4310      	orrs	r0, r2
100055cc:	e000      	b.n	100055d0 <float_table_shim_on_use_helper+0x20>
100055ce:	6800      	ldr	r0, [r0, #0]
100055d0:	4a01      	ldr	r2, [pc, #4]	@ (100055d8 <float_table_shim_on_use_helper+0x28>)
100055d2:	5050      	str	r0, [r2, r1]
100055d4:	9003      	str	r0, [sp, #12]
100055d6:	bd07      	pop	{r0, r1, r2, pc}
100055d8:	20002e20 	.word	0x20002e20

100055dc <__aeabi_mem_init>:
100055dc:	4801      	ldr	r0, [pc, #4]	@ (100055e4 <__aeabi_mem_init+0x8>)
100055de:	2104      	movs	r1, #4
100055e0:	4b01      	ldr	r3, [pc, #4]	@ (100055e8 <__aeabi_mem_init+0xc>)
100055e2:	4718      	bx	r3
100055e4:	20001020 	.word	0x20001020
100055e8:	100044c5 	.word	0x100044c5

100055ec <__wrap_memset>:
100055ec:	4b01      	ldr	r3, [pc, #4]	@ (100055f4 <__wrap_memset+0x8>)
100055ee:	681b      	ldr	r3, [r3, #0]
100055f0:	4718      	bx	r3
100055f2:	0000      	.short	0x0000
100055f4:	20001020 	.word	0x20001020

100055f8 <__wrap___aeabi_memcpy>:
100055f8:	4b01      	ldr	r3, [pc, #4]	@ (10005600 <__wrap___aeabi_memcpy+0x8>)
100055fa:	685b      	ldr	r3, [r3, #4]
100055fc:	4718      	bx	r3
100055fe:	0000      	.short	0x0000
10005600:	20001020 	.word	0x20001020

10005604 <_out_null>:
10005604:	4770      	bx	lr
10005606:	46c0      	nop			@ (mov r8, r8)

10005608 <_out_rev>:
10005608:	b5f8      	push	{r3, r4, r5, r6, r7, lr}
1000560a:	46de      	mov	lr, fp
1000560c:	4657      	mov	r7, sl
1000560e:	464e      	mov	r6, r9
10005610:	4645      	mov	r5, r8
10005612:	b5e0      	push	{r5, r6, r7, lr}
10005614:	4699      	mov	r9, r3
10005616:	9b0d      	ldr	r3, [sp, #52]	@ 0x34
10005618:	0007      	movs	r7, r0
1000561a:	4688      	mov	r8, r1
1000561c:	4693      	mov	fp, r2
1000561e:	079b      	lsls	r3, r3, #30
10005620:	d028      	beq.n	10005674 <_out_rev+0x6c>
10005622:	9b0b      	ldr	r3, [sp, #44]	@ 0x2c
10005624:	2b00      	cmp	r3, #0
10005626:	d03c      	beq.n	100056a2 <_out_rev+0x9a>
10005628:	0016      	movs	r6, r2
1000562a:	9c0b      	ldr	r4, [sp, #44]	@ 0x2c
1000562c:	9d0a      	ldr	r5, [sp, #40]	@ 0x28
1000562e:	1936      	adds	r6, r6, r4
10005630:	1b32      	subs	r2, r6, r4
10005632:	3c01      	subs	r4, #1
10005634:	464b      	mov	r3, r9
10005636:	4641      	mov	r1, r8
10005638:	5d28      	ldrb	r0, [r5, r4]
1000563a:	47b8      	blx	r7
1000563c:	2c00      	cmp	r4, #0
1000563e:	d1f7      	bne.n	10005630 <_out_rev+0x28>
10005640:	0035      	movs	r5, r6
10005642:	9b0d      	ldr	r3, [sp, #52]	@ 0x34
10005644:	079b      	lsls	r3, r3, #30
10005646:	d50e      	bpl.n	10005666 <_out_rev+0x5e>
10005648:	465b      	mov	r3, fp
1000564a:	1aec      	subs	r4, r5, r3
1000564c:	9b0c      	ldr	r3, [sp, #48]	@ 0x30
1000564e:	42a3      	cmp	r3, r4
10005650:	d909      	bls.n	10005666 <_out_rev+0x5e>
10005652:	001e      	movs	r6, r3
10005654:	002a      	movs	r2, r5
10005656:	464b      	mov	r3, r9
10005658:	4641      	mov	r1, r8
1000565a:	2020      	movs	r0, #32
1000565c:	3401      	adds	r4, #1
1000565e:	47b8      	blx	r7
10005660:	3501      	adds	r5, #1
10005662:	42b4      	cmp	r4, r6
10005664:	d3f6      	bcc.n	10005654 <_out_rev+0x4c>
10005666:	0028      	movs	r0, r5
10005668:	bcf0      	pop	{r4, r5, r6, r7}
1000566a:	46bb      	mov	fp, r7
1000566c:	46b2      	mov	sl, r6
1000566e:	46a9      	mov	r9, r5
10005670:	46a0      	mov	r8, r4
10005672:	bdf8      	pop	{r3, r4, r5, r6, r7, pc}
10005674:	9b0b      	ldr	r3, [sp, #44]	@ 0x2c
10005676:	9a0c      	ldr	r2, [sp, #48]	@ 0x30
10005678:	4293      	cmp	r3, r2
1000567a:	d214      	bcs.n	100056a6 <_out_rev+0x9e>
1000567c:	0013      	movs	r3, r2
1000567e:	465d      	mov	r5, fp
10005680:	000c      	movs	r4, r1
10005682:	9a0b      	ldr	r2, [sp, #44]	@ 0x2c
10005684:	1a9e      	subs	r6, r3, r2
10005686:	1976      	adds	r6, r6, r5
10005688:	002a      	movs	r2, r5
1000568a:	464b      	mov	r3, r9
1000568c:	3501      	adds	r5, #1
1000568e:	0021      	movs	r1, r4
10005690:	2020      	movs	r0, #32
10005692:	47b8      	blx	r7
10005694:	42b5      	cmp	r5, r6
10005696:	d1f7      	bne.n	10005688 <_out_rev+0x80>
10005698:	9b0b      	ldr	r3, [sp, #44]	@ 0x2c
1000569a:	46a0      	mov	r8, r4
1000569c:	2b00      	cmp	r3, #0
1000569e:	d1c4      	bne.n	1000562a <_out_rev+0x22>
100056a0:	e7e1      	b.n	10005666 <_out_rev+0x5e>
100056a2:	0015      	movs	r5, r2
100056a4:	e7cd      	b.n	10005642 <_out_rev+0x3a>
100056a6:	465e      	mov	r6, fp
100056a8:	2b00      	cmp	r3, #0
100056aa:	d1be      	bne.n	1000562a <_out_rev+0x22>
100056ac:	465d      	mov	r5, fp
100056ae:	e7da      	b.n	10005666 <_out_rev+0x5e>

100056b0 <_ntoa_format>:
100056b0:	b5f0      	push	{r4, r5, r6, r7, lr}
100056b2:	464f      	mov	r7, r9
100056b4:	46d6      	mov	lr, sl
100056b6:	4646      	mov	r6, r8
100056b8:	b5c0      	push	{r6, r7, lr}
100056ba:	b084      	sub	sp, #16
100056bc:	469c      	mov	ip, r3
100056be:	ab0e      	add	r3, sp, #56	@ 0x38
100056c0:	781f      	ldrb	r7, [r3, #0]
100056c2:	9b12      	ldr	r3, [sp, #72]	@ 0x48
100056c4:	4691      	mov	r9, r2
100056c6:	46ba      	mov	sl, r7
100056c8:	9c0d      	ldr	r4, [sp, #52]	@ 0x34
100056ca:	9e10      	ldr	r6, [sp, #64]	@ 0x40
100056cc:	9d11      	ldr	r5, [sp, #68]	@ 0x44
100056ce:	079b      	lsls	r3, r3, #30
100056d0:	d44c      	bmi.n	1000576c <_ntoa_format+0xbc>
100056d2:	2d00      	cmp	r5, #0
100056d4:	d141      	bne.n	1000575a <_ntoa_format+0xaa>
100056d6:	42b4      	cmp	r4, r6
100056d8:	d248      	bcs.n	1000576c <_ntoa_format+0xbc>
100056da:	2301      	movs	r3, #1
100056dc:	9f12      	ldr	r7, [sp, #72]	@ 0x48
100056de:	401f      	ands	r7, r3
100056e0:	46b8      	mov	r8, r7
100056e2:	9b0c      	ldr	r3, [sp, #48]	@ 0x30
100056e4:	1e5f      	subs	r7, r3, #1
100056e6:	2330      	movs	r3, #48	@ 0x30
100056e8:	e003      	b.n	100056f2 <_ntoa_format+0x42>
100056ea:	3401      	adds	r4, #1
100056ec:	553b      	strb	r3, [r7, r4]
100056ee:	42a6      	cmp	r6, r4
100056f0:	d901      	bls.n	100056f6 <_ntoa_format+0x46>
100056f2:	2c20      	cmp	r4, #32
100056f4:	d1f9      	bne.n	100056ea <_ntoa_format+0x3a>
100056f6:	4643      	mov	r3, r8
100056f8:	2b00      	cmp	r3, #0
100056fa:	d100      	bne.n	100056fe <_ntoa_format+0x4e>
100056fc:	e087      	b.n	1000580e <_ntoa_format+0x15e>
100056fe:	9b0c      	ldr	r3, [sp, #48]	@ 0x30
10005700:	1e5f      	subs	r7, r3, #1
10005702:	2330      	movs	r3, #48	@ 0x30
10005704:	42a5      	cmp	r5, r4
10005706:	d804      	bhi.n	10005712 <_ntoa_format+0x62>
10005708:	e030      	b.n	1000576c <_ntoa_format+0xbc>
1000570a:	3401      	adds	r4, #1
1000570c:	553b      	strb	r3, [r7, r4]
1000570e:	42ac      	cmp	r4, r5
10005710:	d02c      	beq.n	1000576c <_ntoa_format+0xbc>
10005712:	2c20      	cmp	r4, #32
10005714:	d1f9      	bne.n	1000570a <_ntoa_format+0x5a>
10005716:	9b12      	ldr	r3, [sp, #72]	@ 0x48
10005718:	06db      	lsls	r3, r3, #27
1000571a:	d50d      	bpl.n	10005738 <_ntoa_format+0x88>
1000571c:	9b12      	ldr	r3, [sp, #72]	@ 0x48
1000571e:	055b      	lsls	r3, r3, #21
10005720:	d457      	bmi.n	100057d2 <_ntoa_format+0x122>
10005722:	42a6      	cmp	r6, r4
10005724:	d067      	beq.n	100057f6 <_ntoa_format+0x146>
10005726:	42a5      	cmp	r5, r4
10005728:	d065      	beq.n	100057f6 <_ntoa_format+0x146>
1000572a:	9b0f      	ldr	r3, [sp, #60]	@ 0x3c
1000572c:	2b10      	cmp	r3, #16
1000572e:	d053      	beq.n	100057d8 <_ntoa_format+0x128>
10005730:	2b02      	cmp	r3, #2
10005732:	d05b      	beq.n	100057ec <_ntoa_format+0x13c>
10005734:	2c20      	cmp	r4, #32
10005736:	d136      	bne.n	100057a6 <_ntoa_format+0xf6>
10005738:	2320      	movs	r3, #32
1000573a:	9c12      	ldr	r4, [sp, #72]	@ 0x48
1000573c:	9301      	str	r3, [sp, #4]
1000573e:	9b0c      	ldr	r3, [sp, #48]	@ 0x30
10005740:	464a      	mov	r2, r9
10005742:	9300      	str	r3, [sp, #0]
10005744:	9403      	str	r4, [sp, #12]
10005746:	4663      	mov	r3, ip
10005748:	9502      	str	r5, [sp, #8]
1000574a:	f7ff ff5d 	bl	10005608 <_out_rev>
1000574e:	b004      	add	sp, #16
10005750:	bce0      	pop	{r5, r6, r7}
10005752:	46ba      	mov	sl, r7
10005754:	46b1      	mov	r9, r6
10005756:	46a8      	mov	r8, r5
10005758:	bdf0      	pop	{r4, r5, r6, r7, pc}
1000575a:	2301      	movs	r3, #1
1000575c:	9a12      	ldr	r2, [sp, #72]	@ 0x48
1000575e:	4013      	ands	r3, r2
10005760:	4698      	mov	r8, r3
10005762:	2301      	movs	r3, #1
10005764:	4213      	tst	r3, r2
10005766:	d12d      	bne.n	100057c4 <_ntoa_format+0x114>
10005768:	42b4      	cmp	r4, r6
1000576a:	d3ba      	bcc.n	100056e2 <_ntoa_format+0x32>
1000576c:	9b12      	ldr	r3, [sp, #72]	@ 0x48
1000576e:	06db      	lsls	r3, r3, #27
10005770:	d51e      	bpl.n	100057b0 <_ntoa_format+0x100>
10005772:	9b12      	ldr	r3, [sp, #72]	@ 0x48
10005774:	055b      	lsls	r3, r3, #21
10005776:	d4d8      	bmi.n	1000572a <_ntoa_format+0x7a>
10005778:	2c00      	cmp	r4, #0
1000577a:	d1d2      	bne.n	10005722 <_ntoa_format+0x72>
1000577c:	9b0f      	ldr	r3, [sp, #60]	@ 0x3c
1000577e:	2b10      	cmp	r3, #16
10005780:	d060      	beq.n	10005844 <_ntoa_format+0x194>
10005782:	9b0f      	ldr	r3, [sp, #60]	@ 0x3c
10005784:	2b02      	cmp	r3, #2
10005786:	d071      	beq.n	1000586c <_ntoa_format+0x1bc>
10005788:	2330      	movs	r3, #48	@ 0x30
1000578a:	2401      	movs	r4, #1
1000578c:	9a0c      	ldr	r2, [sp, #48]	@ 0x30
1000578e:	7013      	strb	r3, [r2, #0]
10005790:	4653      	mov	r3, sl
10005792:	2b00      	cmp	r3, #0
10005794:	d111      	bne.n	100057ba <_ntoa_format+0x10a>
10005796:	9b12      	ldr	r3, [sp, #72]	@ 0x48
10005798:	075b      	lsls	r3, r3, #29
1000579a:	d540      	bpl.n	1000581e <_ntoa_format+0x16e>
1000579c:	262b      	movs	r6, #43	@ 0x2b
1000579e:	9a0c      	ldr	r2, [sp, #48]	@ 0x30
100057a0:	1c63      	adds	r3, r4, #1
100057a2:	5516      	strb	r6, [r2, r4]
100057a4:	e7c9      	b.n	1000573a <_ntoa_format+0x8a>
100057a6:	0023      	movs	r3, r4
100057a8:	3401      	adds	r4, #1
100057aa:	2630      	movs	r6, #48	@ 0x30
100057ac:	9a0c      	ldr	r2, [sp, #48]	@ 0x30
100057ae:	54d6      	strb	r6, [r2, r3]
100057b0:	2c20      	cmp	r4, #32
100057b2:	d0c1      	beq.n	10005738 <_ntoa_format+0x88>
100057b4:	4653      	mov	r3, sl
100057b6:	2b00      	cmp	r3, #0
100057b8:	d0ed      	beq.n	10005796 <_ntoa_format+0xe6>
100057ba:	262d      	movs	r6, #45	@ 0x2d
100057bc:	9a0c      	ldr	r2, [sp, #48]	@ 0x30
100057be:	1c63      	adds	r3, r4, #1
100057c0:	5516      	strb	r6, [r2, r4]
100057c2:	e7ba      	b.n	1000573a <_ntoa_format+0x8a>
100057c4:	2f00      	cmp	r7, #0
100057c6:	d034      	beq.n	10005832 <_ntoa_format+0x182>
100057c8:	3d01      	subs	r5, #1
100057ca:	42b4      	cmp	r4, r6
100057cc:	d200      	bcs.n	100057d0 <_ntoa_format+0x120>
100057ce:	e788      	b.n	100056e2 <_ntoa_format+0x32>
100057d0:	e795      	b.n	100056fe <_ntoa_format+0x4e>
100057d2:	9b0f      	ldr	r3, [sp, #60]	@ 0x3c
100057d4:	2b10      	cmp	r3, #16
100057d6:	d1af      	bne.n	10005738 <_ntoa_format+0x88>
100057d8:	9b12      	ldr	r3, [sp, #72]	@ 0x48
100057da:	069b      	lsls	r3, r3, #26
100057dc:	d53c      	bpl.n	10005858 <_ntoa_format+0x1a8>
100057de:	2c20      	cmp	r4, #32
100057e0:	d0aa      	beq.n	10005738 <_ntoa_format+0x88>
100057e2:	2358      	movs	r3, #88	@ 0x58
100057e4:	9a0c      	ldr	r2, [sp, #48]	@ 0x30
100057e6:	5513      	strb	r3, [r2, r4]
100057e8:	3401      	adds	r4, #1
100057ea:	e7a3      	b.n	10005734 <_ntoa_format+0x84>
100057ec:	2c20      	cmp	r4, #32
100057ee:	d0a3      	beq.n	10005738 <_ntoa_format+0x88>
100057f0:	0023      	movs	r3, r4
100057f2:	3401      	adds	r4, #1
100057f4:	e007      	b.n	10005806 <_ntoa_format+0x156>
100057f6:	1e63      	subs	r3, r4, #1
100057f8:	2c01      	cmp	r4, #1
100057fa:	d0bf      	beq.n	1000577c <_ntoa_format+0xcc>
100057fc:	9a0f      	ldr	r2, [sp, #60]	@ 0x3c
100057fe:	2a10      	cmp	r2, #16
10005800:	d036      	beq.n	10005870 <_ntoa_format+0x1c0>
10005802:	2a02      	cmp	r2, #2
10005804:	d1d1      	bne.n	100057aa <_ntoa_format+0xfa>
10005806:	2662      	movs	r6, #98	@ 0x62
10005808:	9a0c      	ldr	r2, [sp, #48]	@ 0x30
1000580a:	54d6      	strb	r6, [r2, r3]
1000580c:	e792      	b.n	10005734 <_ntoa_format+0x84>
1000580e:	9b12      	ldr	r3, [sp, #72]	@ 0x48
10005810:	06db      	lsls	r3, r3, #27
10005812:	d5cd      	bpl.n	100057b0 <_ntoa_format+0x100>
10005814:	9b12      	ldr	r3, [sp, #72]	@ 0x48
10005816:	055b      	lsls	r3, r3, #21
10005818:	d400      	bmi.n	1000581c <_ntoa_format+0x16c>
1000581a:	e782      	b.n	10005722 <_ntoa_format+0x72>
1000581c:	e785      	b.n	1000572a <_ntoa_format+0x7a>
1000581e:	9a12      	ldr	r2, [sp, #72]	@ 0x48
10005820:	0023      	movs	r3, r4
10005822:	0716      	lsls	r6, r2, #28
10005824:	d400      	bmi.n	10005828 <_ntoa_format+0x178>
10005826:	e788      	b.n	1000573a <_ntoa_format+0x8a>
10005828:	2620      	movs	r6, #32
1000582a:	9a0c      	ldr	r2, [sp, #48]	@ 0x30
1000582c:	3301      	adds	r3, #1
1000582e:	5516      	strb	r6, [r2, r4]
10005830:	e783      	b.n	1000573a <_ntoa_format+0x8a>
10005832:	230c      	movs	r3, #12
10005834:	4013      	ands	r3, r2
10005836:	1e5f      	subs	r7, r3, #1
10005838:	41bb      	sbcs	r3, r7
1000583a:	1aed      	subs	r5, r5, r3
1000583c:	42b4      	cmp	r4, r6
1000583e:	d200      	bcs.n	10005842 <_ntoa_format+0x192>
10005840:	e74f      	b.n	100056e2 <_ntoa_format+0x32>
10005842:	e75c      	b.n	100056fe <_ntoa_format+0x4e>
10005844:	9b12      	ldr	r3, [sp, #72]	@ 0x48
10005846:	069b      	lsls	r3, r3, #26
10005848:	d40e      	bmi.n	10005868 <_ntoa_format+0x1b8>
1000584a:	2378      	movs	r3, #120	@ 0x78
1000584c:	9a0c      	ldr	r2, [sp, #48]	@ 0x30
1000584e:	2402      	movs	r4, #2
10005850:	7013      	strb	r3, [r2, #0]
10005852:	2330      	movs	r3, #48	@ 0x30
10005854:	7053      	strb	r3, [r2, #1]
10005856:	e79b      	b.n	10005790 <_ntoa_format+0xe0>
10005858:	2c20      	cmp	r4, #32
1000585a:	d100      	bne.n	1000585e <_ntoa_format+0x1ae>
1000585c:	e76c      	b.n	10005738 <_ntoa_format+0x88>
1000585e:	2378      	movs	r3, #120	@ 0x78
10005860:	9a0c      	ldr	r2, [sp, #48]	@ 0x30
10005862:	5513      	strb	r3, [r2, r4]
10005864:	3401      	adds	r4, #1
10005866:	e765      	b.n	10005734 <_ntoa_format+0x84>
10005868:	2358      	movs	r3, #88	@ 0x58
1000586a:	e7ef      	b.n	1000584c <_ntoa_format+0x19c>
1000586c:	3360      	adds	r3, #96	@ 0x60
1000586e:	e7ed      	b.n	1000584c <_ntoa_format+0x19c>
10005870:	9a0c      	ldr	r2, [sp, #48]	@ 0x30
10005872:	1ea6      	subs	r6, r4, #2
10005874:	18b6      	adds	r6, r6, r2
10005876:	9a12      	ldr	r2, [sp, #72]	@ 0x48
10005878:	0692      	lsls	r2, r2, #26
1000587a:	d502      	bpl.n	10005882 <_ntoa_format+0x1d2>
1000587c:	2258      	movs	r2, #88	@ 0x58
1000587e:	7032      	strb	r2, [r6, #0]
10005880:	e793      	b.n	100057aa <_ntoa_format+0xfa>
10005882:	2278      	movs	r2, #120	@ 0x78
10005884:	7032      	strb	r2, [r6, #0]
10005886:	e790      	b.n	100057aa <_ntoa_format+0xfa>

10005888 <_out_char>:
10005888:	b510      	push	{r4, lr}
1000588a:	2800      	cmp	r0, #0
1000588c:	d100      	bne.n	10005890 <_out_char+0x8>
1000588e:	bd10      	pop	{r4, pc}
10005890:	f001 fbac 	bl	10006fec <__wrap_putchar>
10005894:	e7fb      	b.n	1000588e <_out_char+0x6>
10005896:	46c0      	nop			@ (mov r8, r8)

10005898 <_out_fct>:
10005898:	b510      	push	{r4, lr}
1000589a:	2800      	cmp	r0, #0
1000589c:	d003      	beq.n	100058a6 <_out_fct+0xe>
1000589e:	684a      	ldr	r2, [r1, #4]
100058a0:	680b      	ldr	r3, [r1, #0]
100058a2:	0011      	movs	r1, r2
100058a4:	4798      	blx	r3
100058a6:	bd10      	pop	{r4, pc}

100058a8 <_ftoa>:
100058a8:	b5f0      	push	{r4, r5, r6, r7, lr}
100058aa:	464e      	mov	r6, r9
100058ac:	46de      	mov	lr, fp
100058ae:	4657      	mov	r7, sl
100058b0:	4645      	mov	r5, r8
100058b2:	b5e0      	push	{r5, r6, r7, lr}
100058b4:	b095      	sub	sp, #84	@ 0x54
100058b6:	4683      	mov	fp, r0
100058b8:	4689      	mov	r9, r1
100058ba:	4692      	mov	sl, r2
100058bc:	4698      	mov	r8, r3
100058be:	9a1e      	ldr	r2, [sp, #120]	@ 0x78
100058c0:	9b1f      	ldr	r3, [sp, #124]	@ 0x7c
100058c2:	0010      	movs	r0, r2
100058c4:	0019      	movs	r1, r3
100058c6:	9e20      	ldr	r6, [sp, #128]	@ 0x80
100058c8:	f7ff fa77 	bl	10004dba <__wrap___aeabi_dcmpun>
100058cc:	2800      	cmp	r0, #0
100058ce:	d000      	beq.n	100058d2 <_ftoa+0x2a>
100058d0:	e1d2      	b.n	10005c78 <_ftoa+0x3d0>
100058d2:	981e      	ldr	r0, [sp, #120]	@ 0x78
100058d4:	991f      	ldr	r1, [sp, #124]	@ 0x7c
100058d6:	2201      	movs	r2, #1
100058d8:	4bc4      	ldr	r3, [pc, #784]	@ (10005bec <_ftoa+0x344>)
100058da:	4252      	negs	r2, r2
100058dc:	f7ff fa52 	bl	10004d84 <__wrap___aeabi_dcmplt>
100058e0:	2800      	cmp	r0, #0
100058e2:	d000      	beq.n	100058e6 <_ftoa+0x3e>
100058e4:	e101      	b.n	10005aea <_ftoa+0x242>
100058e6:	981e      	ldr	r0, [sp, #120]	@ 0x78
100058e8:	991f      	ldr	r1, [sp, #124]	@ 0x7c
100058ea:	2201      	movs	r2, #1
100058ec:	4bc0      	ldr	r3, [pc, #768]	@ (10005bf0 <_ftoa+0x348>)
100058ee:	4252      	negs	r2, r2
100058f0:	f7ff fa5e 	bl	10004db0 <__wrap___aeabi_dcmpgt>
100058f4:	2800      	cmp	r0, #0
100058f6:	d000      	beq.n	100058fa <_ftoa+0x52>
100058f8:	e0d6      	b.n	10005aa8 <_ftoa+0x200>
100058fa:	981e      	ldr	r0, [sp, #120]	@ 0x78
100058fc:	991f      	ldr	r1, [sp, #124]	@ 0x7c
100058fe:	2200      	movs	r2, #0
10005900:	4bbc      	ldr	r3, [pc, #752]	@ (10005bf4 <_ftoa+0x34c>)
10005902:	f7ff fa55 	bl	10004db0 <__wrap___aeabi_dcmpgt>
10005906:	2800      	cmp	r0, #0
10005908:	d000      	beq.n	1000590c <_ftoa+0x64>
1000590a:	e0b5      	b.n	10005a78 <_ftoa+0x1d0>
1000590c:	981e      	ldr	r0, [sp, #120]	@ 0x78
1000590e:	991f      	ldr	r1, [sp, #124]	@ 0x7c
10005910:	2200      	movs	r2, #0
10005912:	4bb9      	ldr	r3, [pc, #740]	@ (10005bf8 <_ftoa+0x350>)
10005914:	f7ff fa36 	bl	10004d84 <__wrap___aeabi_dcmplt>
10005918:	2800      	cmp	r0, #0
1000591a:	d000      	beq.n	1000591e <_ftoa+0x76>
1000591c:	e0ac      	b.n	10005a78 <_ftoa+0x1d0>
1000591e:	981e      	ldr	r0, [sp, #120]	@ 0x78
10005920:	991f      	ldr	r1, [sp, #124]	@ 0x7c
10005922:	2200      	movs	r2, #0
10005924:	2300      	movs	r3, #0
10005926:	f7ff fa2d 	bl	10004d84 <__wrap___aeabi_dcmplt>
1000592a:	2800      	cmp	r0, #0
1000592c:	d000      	beq.n	10005930 <_ftoa+0x88>
1000592e:	e0d1      	b.n	10005ad4 <_ftoa+0x22c>
10005930:	2300      	movs	r3, #0
10005932:	930b      	str	r3, [sp, #44]	@ 0x2c
10005934:	9b22      	ldr	r3, [sp, #136]	@ 0x88
10005936:	055b      	lsls	r3, r3, #21
10005938:	d400      	bmi.n	1000593c <_ftoa+0x94>
1000593a:	2606      	movs	r6, #6
1000593c:	2400      	movs	r4, #0
1000593e:	2330      	movs	r3, #48	@ 0x30
10005940:	e006      	b.n	10005950 <_ftoa+0xa8>
10005942:	aa06      	add	r2, sp, #24
10005944:	3401      	adds	r4, #1
10005946:	3217      	adds	r2, #23
10005948:	5513      	strb	r3, [r2, r4]
1000594a:	3e01      	subs	r6, #1
1000594c:	2c20      	cmp	r4, #32
1000594e:	d001      	beq.n	10005954 <_ftoa+0xac>
10005950:	2e09      	cmp	r6, #9
10005952:	d8f6      	bhi.n	10005942 <_ftoa+0x9a>
10005954:	981e      	ldr	r0, [sp, #120]	@ 0x78
10005956:	991f      	ldr	r1, [sp, #124]	@ 0x7c
10005958:	f7ff fa58 	bl	10004e0c <__wrap___aeabi_d2iz>
1000595c:	4ba7      	ldr	r3, [pc, #668]	@ (10005bfc <_ftoa+0x354>)
1000595e:	00f2      	lsls	r2, r6, #3
10005960:	189b      	adds	r3, r3, r2
10005962:	cb0c      	ldmia	r3, {r2, r3}
10005964:	0005      	movs	r5, r0
10005966:	9208      	str	r2, [sp, #32]
10005968:	9309      	str	r3, [sp, #36]	@ 0x24
1000596a:	f7ff fa37 	bl	10004ddc <__wrap___aeabi_i2d>
1000596e:	0002      	movs	r2, r0
10005970:	000b      	movs	r3, r1
10005972:	981e      	ldr	r0, [sp, #120]	@ 0x78
10005974:	991f      	ldr	r1, [sp, #124]	@ 0x7c
10005976:	f7ff f992 	bl	10004c9e <__wrap___aeabi_dsub>
1000597a:	9a08      	ldr	r2, [sp, #32]
1000597c:	9b09      	ldr	r3, [sp, #36]	@ 0x24
1000597e:	f7ff f9be 	bl	10004cfe <__wrap___aeabi_dmul>
10005982:	9006      	str	r0, [sp, #24]
10005984:	9107      	str	r1, [sp, #28]
10005986:	f7ff fa65 	bl	10004e54 <__wrap___aeabi_d2uiz>
1000598a:	0007      	movs	r7, r0
1000598c:	f7ff fa22 	bl	10004dd4 <__wrap___aeabi_ui2d>
10005990:	0002      	movs	r2, r0
10005992:	000b      	movs	r3, r1
10005994:	9806      	ldr	r0, [sp, #24]
10005996:	9907      	ldr	r1, [sp, #28]
10005998:	f7ff f981 	bl	10004c9e <__wrap___aeabi_dsub>
1000599c:	2200      	movs	r2, #0
1000599e:	4b98      	ldr	r3, [pc, #608]	@ (10005c00 <_ftoa+0x358>)
100059a0:	9006      	str	r0, [sp, #24]
100059a2:	9107      	str	r1, [sp, #28]
100059a4:	f7ff fa04 	bl	10004db0 <__wrap___aeabi_dcmpgt>
100059a8:	2800      	cmp	r0, #0
100059aa:	d100      	bne.n	100059ae <_ftoa+0x106>
100059ac:	e0e9      	b.n	10005b82 <_ftoa+0x2da>
100059ae:	3701      	adds	r7, #1
100059b0:	0038      	movs	r0, r7
100059b2:	f7ff fa0f 	bl	10004dd4 <__wrap___aeabi_ui2d>
100059b6:	0002      	movs	r2, r0
100059b8:	000b      	movs	r3, r1
100059ba:	9808      	ldr	r0, [sp, #32]
100059bc:	9909      	ldr	r1, [sp, #36]	@ 0x24
100059be:	f7ff f9e7 	bl	10004d90 <__wrap___aeabi_dcmple>
100059c2:	2800      	cmp	r0, #0
100059c4:	d001      	beq.n	100059ca <_ftoa+0x122>
100059c6:	2700      	movs	r7, #0
100059c8:	3501      	adds	r5, #1
100059ca:	2e00      	cmp	r6, #0
100059cc:	d100      	bne.n	100059d0 <_ftoa+0x128>
100059ce:	e0b7      	b.n	10005b40 <_ftoa+0x298>
100059d0:	9506      	str	r5, [sp, #24]
100059d2:	e013      	b.n	100059fc <_ftoa+0x154>
100059d4:	2317      	movs	r3, #23
100059d6:	aa06      	add	r2, sp, #24
100059d8:	189b      	adds	r3, r3, r2
100059da:	210a      	movs	r1, #10
100059dc:	0038      	movs	r0, r7
100059de:	3401      	adds	r4, #1
100059e0:	191d      	adds	r5, r3, r4
100059e2:	f7fe ff21 	bl	10004828 <__wrap___aeabi_uidiv>
100059e6:	3130      	adds	r1, #48	@ 0x30
100059e8:	7029      	strb	r1, [r5, #0]
100059ea:	0038      	movs	r0, r7
100059ec:	210a      	movs	r1, #10
100059ee:	3e01      	subs	r6, #1
100059f0:	f7fe ff1a 	bl	10004828 <__wrap___aeabi_uidiv>
100059f4:	2f09      	cmp	r7, #9
100059f6:	d800      	bhi.n	100059fa <_ftoa+0x152>
100059f8:	e0e1      	b.n	10005bbe <_ftoa+0x316>
100059fa:	0007      	movs	r7, r0
100059fc:	2c20      	cmp	r4, #32
100059fe:	d1e9      	bne.n	100059d4 <_ftoa+0x12c>
10005a00:	9d06      	ldr	r5, [sp, #24]
10005a02:	2420      	movs	r4, #32
10005a04:	ab0c      	add	r3, sp, #48	@ 0x30
10005a06:	9306      	str	r3, [sp, #24]
10005a08:	2717      	movs	r7, #23
10005a0a:	ab06      	add	r3, sp, #24
10005a0c:	18ff      	adds	r7, r7, r3
10005a0e:	e00d      	b.n	10005a2c <_ftoa+0x184>
10005a10:	0028      	movs	r0, r5
10005a12:	210a      	movs	r1, #10
10005a14:	f7fe fee0 	bl	100047d8 <__wrap___aeabi_idiv>
10005a18:	3401      	adds	r4, #1
10005a1a:	3130      	adds	r1, #48	@ 0x30
10005a1c:	0028      	movs	r0, r5
10005a1e:	5539      	strb	r1, [r7, r4]
10005a20:	210a      	movs	r1, #10
10005a22:	f7fe fed9 	bl	100047d8 <__wrap___aeabi_idiv>
10005a26:	1e05      	subs	r5, r0, #0
10005a28:	d100      	bne.n	10005a2c <_ftoa+0x184>
10005a2a:	e0b7      	b.n	10005b9c <_ftoa+0x2f4>
10005a2c:	2c20      	cmp	r4, #32
10005a2e:	d1ef      	bne.n	10005a10 <_ftoa+0x168>
10005a30:	2303      	movs	r3, #3
10005a32:	9a22      	ldr	r2, [sp, #136]	@ 0x88
10005a34:	4013      	ands	r3, r2
10005a36:	2b01      	cmp	r3, #1
10005a38:	d117      	bne.n	10005a6a <_ftoa+0x1c2>
10005a3a:	9b21      	ldr	r3, [sp, #132]	@ 0x84
10005a3c:	2b00      	cmp	r3, #0
10005a3e:	d014      	beq.n	10005a6a <_ftoa+0x1c2>
10005a40:	9b0b      	ldr	r3, [sp, #44]	@ 0x2c
10005a42:	2b00      	cmp	r3, #0
10005a44:	d100      	bne.n	10005a48 <_ftoa+0x1a0>
10005a46:	e0e3      	b.n	10005c10 <_ftoa+0x368>
10005a48:	9b21      	ldr	r3, [sp, #132]	@ 0x84
10005a4a:	3b01      	subs	r3, #1
10005a4c:	9321      	str	r3, [sp, #132]	@ 0x84
10005a4e:	2b20      	cmp	r3, #32
10005a50:	d90b      	bls.n	10005a6a <_ftoa+0x1c2>
10005a52:	2330      	movs	r3, #48	@ 0x30
10005a54:	9a21      	ldr	r2, [sp, #132]	@ 0x84
10005a56:	e006      	b.n	10005a66 <_ftoa+0x1be>
10005a58:	a906      	add	r1, sp, #24
10005a5a:	3401      	adds	r4, #1
10005a5c:	3117      	adds	r1, #23
10005a5e:	550b      	strb	r3, [r1, r4]
10005a60:	4294      	cmp	r4, r2
10005a62:	d300      	bcc.n	10005a66 <_ftoa+0x1be>
10005a64:	e0a0      	b.n	10005ba8 <_ftoa+0x300>
10005a66:	2c20      	cmp	r4, #32
10005a68:	d1f6      	bne.n	10005a58 <_ftoa+0x1b0>
10005a6a:	9b22      	ldr	r3, [sp, #136]	@ 0x88
10005a6c:	9401      	str	r4, [sp, #4]
10005a6e:	9303      	str	r3, [sp, #12]
10005a70:	9b21      	ldr	r3, [sp, #132]	@ 0x84
10005a72:	9302      	str	r3, [sp, #8]
10005a74:	9b06      	ldr	r3, [sp, #24]
10005a76:	e021      	b.n	10005abc <_ftoa+0x214>
10005a78:	9b22      	ldr	r3, [sp, #136]	@ 0x88
10005a7a:	4652      	mov	r2, sl
10005a7c:	9304      	str	r3, [sp, #16]
10005a7e:	9b21      	ldr	r3, [sp, #132]	@ 0x84
10005a80:	4649      	mov	r1, r9
10005a82:	9303      	str	r3, [sp, #12]
10005a84:	4658      	mov	r0, fp
10005a86:	9b1e      	ldr	r3, [sp, #120]	@ 0x78
10005a88:	9c1f      	ldr	r4, [sp, #124]	@ 0x7c
10005a8a:	9602      	str	r6, [sp, #8]
10005a8c:	9300      	str	r3, [sp, #0]
10005a8e:	9401      	str	r4, [sp, #4]
10005a90:	4643      	mov	r3, r8
10005a92:	f000 f943 	bl	10005d1c <_etoa>
10005a96:	0004      	movs	r4, r0
10005a98:	0020      	movs	r0, r4
10005a9a:	b015      	add	sp, #84	@ 0x54
10005a9c:	bcf0      	pop	{r4, r5, r6, r7}
10005a9e:	46bb      	mov	fp, r7
10005aa0:	46b2      	mov	sl, r6
10005aa2:	46a9      	mov	r9, r5
10005aa4:	46a0      	mov	r8, r4
10005aa6:	bdf0      	pop	{r4, r5, r6, r7, pc}
10005aa8:	9b22      	ldr	r3, [sp, #136]	@ 0x88
10005aaa:	075b      	lsls	r3, r3, #29
10005aac:	d40f      	bmi.n	10005ace <_ftoa+0x226>
10005aae:	2203      	movs	r2, #3
10005ab0:	4b54      	ldr	r3, [pc, #336]	@ (10005c04 <_ftoa+0x35c>)
10005ab2:	9922      	ldr	r1, [sp, #136]	@ 0x88
10005ab4:	9201      	str	r2, [sp, #4]
10005ab6:	9103      	str	r1, [sp, #12]
10005ab8:	9921      	ldr	r1, [sp, #132]	@ 0x84
10005aba:	9102      	str	r1, [sp, #8]
10005abc:	9300      	str	r3, [sp, #0]
10005abe:	4652      	mov	r2, sl
10005ac0:	4643      	mov	r3, r8
10005ac2:	4649      	mov	r1, r9
10005ac4:	4658      	mov	r0, fp
10005ac6:	f7ff fd9f 	bl	10005608 <_out_rev>
10005aca:	0004      	movs	r4, r0
10005acc:	e7e4      	b.n	10005a98 <_ftoa+0x1f0>
10005ace:	2204      	movs	r2, #4
10005ad0:	4b4d      	ldr	r3, [pc, #308]	@ (10005c08 <_ftoa+0x360>)
10005ad2:	e7ee      	b.n	10005ab2 <_ftoa+0x20a>
10005ad4:	9a1e      	ldr	r2, [sp, #120]	@ 0x78
10005ad6:	9b1f      	ldr	r3, [sp, #124]	@ 0x7c
10005ad8:	2000      	movs	r0, #0
10005ada:	2100      	movs	r1, #0
10005adc:	f7ff f8df 	bl	10004c9e <__wrap___aeabi_dsub>
10005ae0:	2301      	movs	r3, #1
10005ae2:	901e      	str	r0, [sp, #120]	@ 0x78
10005ae4:	911f      	str	r1, [sp, #124]	@ 0x7c
10005ae6:	930b      	str	r3, [sp, #44]	@ 0x2c
10005ae8:	e724      	b.n	10005934 <_ftoa+0x8c>
10005aea:	2302      	movs	r3, #2
10005aec:	9a22      	ldr	r2, [sp, #136]	@ 0x88
10005aee:	4654      	mov	r4, sl
10005af0:	401a      	ands	r2, r3
10005af2:	9b22      	ldr	r3, [sp, #136]	@ 0x88
10005af4:	9206      	str	r2, [sp, #24]
10005af6:	079b      	lsls	r3, r3, #30
10005af8:	d100      	bne.n	10005afc <_ftoa+0x254>
10005afa:	e0ac      	b.n	10005c56 <_ftoa+0x3ae>
10005afc:	0026      	movs	r6, r4
10005afe:	4d43      	ldr	r5, [pc, #268]	@ (10005c0c <_ftoa+0x364>)
10005b00:	9408      	str	r4, [sp, #32]
10005b02:	1f2f      	subs	r7, r5, #4
10005b04:	0032      	movs	r2, r6
10005b06:	78e8      	ldrb	r0, [r5, #3]
10005b08:	4643      	mov	r3, r8
10005b0a:	4649      	mov	r1, r9
10005b0c:	3d01      	subs	r5, #1
10005b0e:	47d8      	blx	fp
10005b10:	3601      	adds	r6, #1
10005b12:	42bd      	cmp	r5, r7
10005b14:	d1f6      	bne.n	10005b04 <_ftoa+0x25c>
10005b16:	9c08      	ldr	r4, [sp, #32]
10005b18:	9b06      	ldr	r3, [sp, #24]
10005b1a:	3404      	adds	r4, #4
10005b1c:	2b00      	cmp	r3, #0
10005b1e:	d0bb      	beq.n	10005a98 <_ftoa+0x1f0>
10005b20:	4657      	mov	r7, sl
10005b22:	9a21      	ldr	r2, [sp, #132]	@ 0x84
10005b24:	1be3      	subs	r3, r4, r7
10005b26:	429a      	cmp	r2, r3
10005b28:	d9b6      	bls.n	10005a98 <_ftoa+0x1f0>
10005b2a:	0015      	movs	r5, r2
10005b2c:	0022      	movs	r2, r4
10005b2e:	4643      	mov	r3, r8
10005b30:	4649      	mov	r1, r9
10005b32:	2020      	movs	r0, #32
10005b34:	3401      	adds	r4, #1
10005b36:	47d8      	blx	fp
10005b38:	1be3      	subs	r3, r4, r7
10005b3a:	42ab      	cmp	r3, r5
10005b3c:	d3f6      	bcc.n	10005b2c <_ftoa+0x284>
10005b3e:	e7ab      	b.n	10005a98 <_ftoa+0x1f0>
10005b40:	0028      	movs	r0, r5
10005b42:	f7ff f94b 	bl	10004ddc <__wrap___aeabi_i2d>
10005b46:	0002      	movs	r2, r0
10005b48:	000b      	movs	r3, r1
10005b4a:	981e      	ldr	r0, [sp, #120]	@ 0x78
10005b4c:	991f      	ldr	r1, [sp, #124]	@ 0x7c
10005b4e:	f7ff f8a6 	bl	10004c9e <__wrap___aeabi_dsub>
10005b52:	4b2b      	ldr	r3, [pc, #172]	@ (10005c00 <_ftoa+0x358>)
10005b54:	2200      	movs	r2, #0
10005b56:	0006      	movs	r6, r0
10005b58:	000f      	movs	r7, r1
10005b5a:	f7ff f913 	bl	10004d84 <__wrap___aeabi_dcmplt>
10005b5e:	ab0c      	add	r3, sp, #48	@ 0x30
10005b60:	9306      	str	r3, [sp, #24]
10005b62:	2800      	cmp	r0, #0
10005b64:	d000      	beq.n	10005b68 <_ftoa+0x2c0>
10005b66:	e74f      	b.n	10005a08 <_ftoa+0x160>
10005b68:	2200      	movs	r2, #0
10005b6a:	0030      	movs	r0, r6
10005b6c:	0039      	movs	r1, r7
10005b6e:	4b24      	ldr	r3, [pc, #144]	@ (10005c00 <_ftoa+0x358>)
10005b70:	f7ff f91e 	bl	10004db0 <__wrap___aeabi_dcmpgt>
10005b74:	2800      	cmp	r0, #0
10005b76:	d000      	beq.n	10005b7a <_ftoa+0x2d2>
10005b78:	e746      	b.n	10005a08 <_ftoa+0x160>
10005b7a:	2301      	movs	r3, #1
10005b7c:	3501      	adds	r5, #1
10005b7e:	439d      	bics	r5, r3
10005b80:	e742      	b.n	10005a08 <_ftoa+0x160>
10005b82:	2200      	movs	r2, #0
10005b84:	9806      	ldr	r0, [sp, #24]
10005b86:	9907      	ldr	r1, [sp, #28]
10005b88:	4b1d      	ldr	r3, [pc, #116]	@ (10005c00 <_ftoa+0x358>)
10005b8a:	f7ff f8fb 	bl	10004d84 <__wrap___aeabi_dcmplt>
10005b8e:	2800      	cmp	r0, #0
10005b90:	d000      	beq.n	10005b94 <_ftoa+0x2ec>
10005b92:	e71a      	b.n	100059ca <_ftoa+0x122>
10005b94:	2f00      	cmp	r7, #0
10005b96:	d159      	bne.n	10005c4c <_ftoa+0x3a4>
10005b98:	3701      	adds	r7, #1
10005b9a:	e716      	b.n	100059ca <_ftoa+0x122>
10005b9c:	2303      	movs	r3, #3
10005b9e:	9a22      	ldr	r2, [sp, #136]	@ 0x88
10005ba0:	4013      	ands	r3, r2
10005ba2:	2b01      	cmp	r3, #1
10005ba4:	d100      	bne.n	10005ba8 <_ftoa+0x300>
10005ba6:	e0a6      	b.n	10005cf6 <_ftoa+0x44e>
10005ba8:	2c20      	cmp	r4, #32
10005baa:	d100      	bne.n	10005bae <_ftoa+0x306>
10005bac:	e75d      	b.n	10005a6a <_ftoa+0x1c2>
10005bae:	9b0b      	ldr	r3, [sp, #44]	@ 0x2c
10005bb0:	2b00      	cmp	r3, #0
10005bb2:	d03a      	beq.n	10005c2a <_ftoa+0x382>
10005bb4:	232d      	movs	r3, #45	@ 0x2d
10005bb6:	9a06      	ldr	r2, [sp, #24]
10005bb8:	5513      	strb	r3, [r2, r4]
10005bba:	3401      	adds	r4, #1
10005bbc:	e755      	b.n	10005a6a <_ftoa+0x1c2>
10005bbe:	9d06      	ldr	r5, [sp, #24]
10005bc0:	2c20      	cmp	r4, #32
10005bc2:	d100      	bne.n	10005bc6 <_ftoa+0x31e>
10005bc4:	e71d      	b.n	10005a02 <_ftoa+0x15a>
10005bc6:	2330      	movs	r3, #48	@ 0x30
10005bc8:	1936      	adds	r6, r6, r4
10005bca:	e006      	b.n	10005bda <_ftoa+0x332>
10005bcc:	aa06      	add	r2, sp, #24
10005bce:	3401      	adds	r4, #1
10005bd0:	3217      	adds	r2, #23
10005bd2:	5513      	strb	r3, [r2, r4]
10005bd4:	2c20      	cmp	r4, #32
10005bd6:	d100      	bne.n	10005bda <_ftoa+0x332>
10005bd8:	e713      	b.n	10005a02 <_ftoa+0x15a>
10005bda:	42a6      	cmp	r6, r4
10005bdc:	d1f6      	bne.n	10005bcc <_ftoa+0x324>
10005bde:	232e      	movs	r3, #46	@ 0x2e
10005be0:	aa0c      	add	r2, sp, #48	@ 0x30
10005be2:	3401      	adds	r4, #1
10005be4:	9206      	str	r2, [sp, #24]
10005be6:	5593      	strb	r3, [r2, r6]
10005be8:	e70e      	b.n	10005a08 <_ftoa+0x160>
10005bea:	46c0      	nop			@ (mov r8, r8)
10005bec:	ffefffff 	.word	0xffefffff
10005bf0:	7fefffff 	.word	0x7fefffff
10005bf4:	41cdcd65 	.word	0x41cdcd65
10005bf8:	c1cdcd65 	.word	0xc1cdcd65
10005bfc:	1000b6c0 	.word	0x1000b6c0
10005c00:	3fe00000 	.word	0x3fe00000
10005c04:	1000ae4c 	.word	0x1000ae4c
10005c08:	1000ae44 	.word	0x1000ae44
10005c0c:	1000ae54 	.word	0x1000ae54
10005c10:	230c      	movs	r3, #12
10005c12:	9a22      	ldr	r2, [sp, #136]	@ 0x88
10005c14:	4213      	tst	r3, r2
10005c16:	d057      	beq.n	10005cc8 <_ftoa+0x420>
10005c18:	9b21      	ldr	r3, [sp, #132]	@ 0x84
10005c1a:	3b01      	subs	r3, #1
10005c1c:	9321      	str	r3, [sp, #132]	@ 0x84
10005c1e:	42a3      	cmp	r3, r4
10005c20:	d900      	bls.n	10005c24 <_ftoa+0x37c>
10005c22:	e716      	b.n	10005a52 <_ftoa+0x1aa>
10005c24:	2c20      	cmp	r4, #32
10005c26:	d100      	bne.n	10005c2a <_ftoa+0x382>
10005c28:	e71f      	b.n	10005a6a <_ftoa+0x1c2>
10005c2a:	9b22      	ldr	r3, [sp, #136]	@ 0x88
10005c2c:	075b      	lsls	r3, r3, #29
10005c2e:	d504      	bpl.n	10005c3a <_ftoa+0x392>
10005c30:	232b      	movs	r3, #43	@ 0x2b
10005c32:	9a06      	ldr	r2, [sp, #24]
10005c34:	5513      	strb	r3, [r2, r4]
10005c36:	3401      	adds	r4, #1
10005c38:	e717      	b.n	10005a6a <_ftoa+0x1c2>
10005c3a:	9b22      	ldr	r3, [sp, #136]	@ 0x88
10005c3c:	071b      	lsls	r3, r3, #28
10005c3e:	d400      	bmi.n	10005c42 <_ftoa+0x39a>
10005c40:	e713      	b.n	10005a6a <_ftoa+0x1c2>
10005c42:	2320      	movs	r3, #32
10005c44:	9a06      	ldr	r2, [sp, #24]
10005c46:	5513      	strb	r3, [r2, r4]
10005c48:	3401      	adds	r4, #1
10005c4a:	e70e      	b.n	10005a6a <_ftoa+0x1c2>
10005c4c:	07fb      	lsls	r3, r7, #31
10005c4e:	d400      	bmi.n	10005c52 <_ftoa+0x3aa>
10005c50:	e6bb      	b.n	100059ca <_ftoa+0x122>
10005c52:	3701      	adds	r7, #1
10005c54:	e6b9      	b.n	100059ca <_ftoa+0x122>
10005c56:	9b21      	ldr	r3, [sp, #132]	@ 0x84
10005c58:	2b04      	cmp	r3, #4
10005c5a:	d800      	bhi.n	10005c5e <_ftoa+0x3b6>
10005c5c:	e74e      	b.n	10005afc <_ftoa+0x254>
10005c5e:	4655      	mov	r5, sl
10005c60:	464f      	mov	r7, r9
10005c62:	3c04      	subs	r4, #4
10005c64:	18e4      	adds	r4, r4, r3
10005c66:	002a      	movs	r2, r5
10005c68:	4643      	mov	r3, r8
10005c6a:	3501      	adds	r5, #1
10005c6c:	0039      	movs	r1, r7
10005c6e:	2020      	movs	r0, #32
10005c70:	47d8      	blx	fp
10005c72:	42ac      	cmp	r4, r5
10005c74:	d1f7      	bne.n	10005c66 <_ftoa+0x3be>
10005c76:	e741      	b.n	10005afc <_ftoa+0x254>
10005c78:	2702      	movs	r7, #2
10005c7a:	9b22      	ldr	r3, [sp, #136]	@ 0x88
10005c7c:	4655      	mov	r5, sl
10005c7e:	401f      	ands	r7, r3
10005c80:	079b      	lsls	r3, r3, #30
10005c82:	d026      	beq.n	10005cd2 <_ftoa+0x42a>
10005c84:	9706      	str	r7, [sp, #24]
10005c86:	465f      	mov	r7, fp
10005c88:	4e23      	ldr	r6, [pc, #140]	@ (10005d18 <_ftoa+0x470>)
10005c8a:	1cec      	adds	r4, r5, #3
10005c8c:	002a      	movs	r2, r5
10005c8e:	78b0      	ldrb	r0, [r6, #2]
10005c90:	4643      	mov	r3, r8
10005c92:	4649      	mov	r1, r9
10005c94:	3501      	adds	r5, #1
10005c96:	47b8      	blx	r7
10005c98:	3e01      	subs	r6, #1
10005c9a:	42ac      	cmp	r4, r5
10005c9c:	d1f6      	bne.n	10005c8c <_ftoa+0x3e4>
10005c9e:	9f06      	ldr	r7, [sp, #24]
10005ca0:	2f00      	cmp	r7, #0
10005ca2:	d100      	bne.n	10005ca6 <_ftoa+0x3fe>
10005ca4:	e6f8      	b.n	10005a98 <_ftoa+0x1f0>
10005ca6:	4657      	mov	r7, sl
10005ca8:	9a21      	ldr	r2, [sp, #132]	@ 0x84
10005caa:	1be3      	subs	r3, r4, r7
10005cac:	429a      	cmp	r2, r3
10005cae:	d800      	bhi.n	10005cb2 <_ftoa+0x40a>
10005cb0:	e6f2      	b.n	10005a98 <_ftoa+0x1f0>
10005cb2:	0015      	movs	r5, r2
10005cb4:	0022      	movs	r2, r4
10005cb6:	4643      	mov	r3, r8
10005cb8:	4649      	mov	r1, r9
10005cba:	2020      	movs	r0, #32
10005cbc:	3401      	adds	r4, #1
10005cbe:	47d8      	blx	fp
10005cc0:	1be3      	subs	r3, r4, r7
10005cc2:	42ab      	cmp	r3, r5
10005cc4:	d3f6      	bcc.n	10005cb4 <_ftoa+0x40c>
10005cc6:	e6e7      	b.n	10005a98 <_ftoa+0x1f0>
10005cc8:	9b21      	ldr	r3, [sp, #132]	@ 0x84
10005cca:	42a3      	cmp	r3, r4
10005ccc:	d900      	bls.n	10005cd0 <_ftoa+0x428>
10005cce:	e6c0      	b.n	10005a52 <_ftoa+0x1aa>
10005cd0:	e6cb      	b.n	10005a6a <_ftoa+0x1c2>
10005cd2:	9b21      	ldr	r3, [sp, #132]	@ 0x84
10005cd4:	2b03      	cmp	r3, #3
10005cd6:	d9d5      	bls.n	10005c84 <_ftoa+0x3dc>
10005cd8:	9706      	str	r7, [sp, #24]
10005cda:	4654      	mov	r4, sl
10005cdc:	464f      	mov	r7, r9
10005cde:	3d03      	subs	r5, #3
10005ce0:	18ed      	adds	r5, r5, r3
10005ce2:	0022      	movs	r2, r4
10005ce4:	4643      	mov	r3, r8
10005ce6:	3401      	adds	r4, #1
10005ce8:	0039      	movs	r1, r7
10005cea:	2020      	movs	r0, #32
10005cec:	47d8      	blx	fp
10005cee:	42a5      	cmp	r5, r4
10005cf0:	d1f7      	bne.n	10005ce2 <_ftoa+0x43a>
10005cf2:	9f06      	ldr	r7, [sp, #24]
10005cf4:	e7c6      	b.n	10005c84 <_ftoa+0x3dc>
10005cf6:	9b21      	ldr	r3, [sp, #132]	@ 0x84
10005cf8:	2b00      	cmp	r3, #0
10005cfa:	d100      	bne.n	10005cfe <_ftoa+0x456>
10005cfc:	e754      	b.n	10005ba8 <_ftoa+0x300>
10005cfe:	9b0b      	ldr	r3, [sp, #44]	@ 0x2c
10005d00:	2b00      	cmp	r3, #0
10005d02:	d085      	beq.n	10005c10 <_ftoa+0x368>
10005d04:	9b21      	ldr	r3, [sp, #132]	@ 0x84
10005d06:	3b01      	subs	r3, #1
10005d08:	9321      	str	r3, [sp, #132]	@ 0x84
10005d0a:	429c      	cmp	r4, r3
10005d0c:	d200      	bcs.n	10005d10 <_ftoa+0x468>
10005d0e:	e6a0      	b.n	10005a52 <_ftoa+0x1aa>
10005d10:	2c20      	cmp	r4, #32
10005d12:	d000      	beq.n	10005d16 <_ftoa+0x46e>
10005d14:	e74e      	b.n	10005bb4 <_ftoa+0x30c>
10005d16:	e6a8      	b.n	10005a6a <_ftoa+0x1c2>
10005d18:	1000ae50 	.word	0x1000ae50

10005d1c <_etoa>:
10005d1c:	b5f0      	push	{r4, r5, r6, r7, lr}
10005d1e:	4645      	mov	r5, r8
10005d20:	46de      	mov	lr, fp
10005d22:	4657      	mov	r7, sl
10005d24:	464e      	mov	r6, r9
10005d26:	b5e0      	push	{r5, r6, r7, lr}
10005d28:	b09b      	sub	sp, #108	@ 0x6c
10005d2a:	9c24      	ldr	r4, [sp, #144]	@ 0x90
10005d2c:	9d25      	ldr	r5, [sp, #148]	@ 0x94
10005d2e:	4682      	mov	sl, r0
10005d30:	4688      	mov	r8, r1
10005d32:	4693      	mov	fp, r2
10005d34:	4699      	mov	r9, r3
10005d36:	0022      	movs	r2, r4
10005d38:	002b      	movs	r3, r5
10005d3a:	0020      	movs	r0, r4
10005d3c:	0029      	movs	r1, r5
10005d3e:	f7ff f83c 	bl	10004dba <__wrap___aeabi_dcmpun>
10005d42:	2800      	cmp	r0, #0
10005d44:	d000      	beq.n	10005d48 <_etoa+0x2c>
10005d46:	e0c1      	b.n	10005ecc <_etoa+0x1b0>
10005d48:	2201      	movs	r2, #1
10005d4a:	0020      	movs	r0, r4
10005d4c:	0029      	movs	r1, r5
10005d4e:	4b7c      	ldr	r3, [pc, #496]	@ (10005f40 <_etoa+0x224>)
10005d50:	4252      	negs	r2, r2
10005d52:	f7ff f82d 	bl	10004db0 <__wrap___aeabi_dcmpgt>
10005d56:	2800      	cmp	r0, #0
10005d58:	d000      	beq.n	10005d5c <_etoa+0x40>
10005d5a:	e0b7      	b.n	10005ecc <_etoa+0x1b0>
10005d5c:	2201      	movs	r2, #1
10005d5e:	0020      	movs	r0, r4
10005d60:	0029      	movs	r1, r5
10005d62:	4b78      	ldr	r3, [pc, #480]	@ (10005f44 <_etoa+0x228>)
10005d64:	4252      	negs	r2, r2
10005d66:	f7ff f80d 	bl	10004d84 <__wrap___aeabi_dcmplt>
10005d6a:	2800      	cmp	r0, #0
10005d6c:	d000      	beq.n	10005d70 <_etoa+0x54>
10005d6e:	e0ad      	b.n	10005ecc <_etoa+0x1b0>
10005d70:	2200      	movs	r2, #0
10005d72:	2300      	movs	r3, #0
10005d74:	0020      	movs	r0, r4
10005d76:	0029      	movs	r1, r5
10005d78:	f7ff f804 	bl	10004d84 <__wrap___aeabi_dcmplt>
10005d7c:	2800      	cmp	r0, #0
10005d7e:	d000      	beq.n	10005d82 <_etoa+0x66>
10005d80:	e1bb      	b.n	100060fa <_etoa+0x3de>
10005d82:	9408      	str	r4, [sp, #32]
10005d84:	9509      	str	r5, [sp, #36]	@ 0x24
10005d86:	9808      	ldr	r0, [sp, #32]
10005d88:	9909      	ldr	r1, [sp, #36]	@ 0x24
10005d8a:	2380      	movs	r3, #128	@ 0x80
10005d8c:	9a28      	ldr	r2, [sp, #160]	@ 0xa0
10005d8e:	00db      	lsls	r3, r3, #3
10005d90:	401a      	ands	r2, r3
10005d92:	920f      	str	r2, [sp, #60]	@ 0x3c
10005d94:	2280      	movs	r2, #128	@ 0x80
10005d96:	9e28      	ldr	r6, [sp, #160]	@ 0xa0
10005d98:	0112      	lsls	r2, r2, #4
10005d9a:	4016      	ands	r6, r2
10005d9c:	0032      	movs	r2, r6
10005d9e:	960e      	str	r6, [sp, #56]	@ 0x38
10005da0:	9e28      	ldr	r6, [sp, #160]	@ 0xa0
10005da2:	000f      	movs	r7, r1
10005da4:	900a      	str	r0, [sp, #40]	@ 0x28
10005da6:	421e      	tst	r6, r3
10005da8:	d000      	beq.n	10005dac <_etoa+0x90>
10005daa:	e0a4      	b.n	10005ef6 <_etoa+0x1da>
10005dac:	000b      	movs	r3, r1
10005dae:	4303      	orrs	r3, r0
10005db0:	d000      	beq.n	10005db4 <_etoa+0x98>
10005db2:	e0cb      	b.n	10005f4c <_etoa+0x230>
10005db4:	2a00      	cmp	r2, #0
10005db6:	d000      	beq.n	10005dba <_etoa+0x9e>
10005db8:	e212      	b.n	100061e0 <_etoa+0x4c4>
10005dba:	0032      	movs	r2, r6
10005dbc:	3306      	adds	r3, #6
10005dbe:	9326      	str	r3, [sp, #152]	@ 0x98
10005dc0:	2302      	movs	r3, #2
10005dc2:	4013      	ands	r3, r2
10005dc4:	930c      	str	r3, [sp, #48]	@ 0x30
10005dc6:	2302      	movs	r3, #2
10005dc8:	4213      	tst	r3, r2
10005dca:	d000      	beq.n	10005dce <_etoa+0xb2>
10005dcc:	e20a      	b.n	100061e4 <_etoa+0x4c8>
10005dce:	9b27      	ldr	r3, [sp, #156]	@ 0x9c
10005dd0:	2b04      	cmp	r3, #4
10005dd2:	d200      	bcs.n	10005dd6 <_etoa+0xba>
10005dd4:	e215      	b.n	10006202 <_etoa+0x4e6>
10005dd6:	2700      	movs	r7, #0
10005dd8:	2604      	movs	r6, #4
10005dda:	3b04      	subs	r3, #4
10005ddc:	930e      	str	r3, [sp, #56]	@ 0x38
10005dde:	2200      	movs	r2, #0
10005de0:	2300      	movs	r3, #0
10005de2:	0020      	movs	r0, r4
10005de4:	0029      	movs	r1, r5
10005de6:	f7fe ffcd 	bl	10004d84 <__wrap___aeabi_dcmplt>
10005dea:	2800      	cmp	r0, #0
10005dec:	d000      	beq.n	10005df0 <_etoa+0xd4>
10005dee:	e1c8      	b.n	10006182 <_etoa+0x466>
10005df0:	4b55      	ldr	r3, [pc, #340]	@ (10005f48 <_etoa+0x22c>)
10005df2:	9a28      	ldr	r2, [sp, #160]	@ 0xa0
10005df4:	4013      	ands	r3, r2
10005df6:	9304      	str	r3, [sp, #16]
10005df8:	9b0e      	ldr	r3, [sp, #56]	@ 0x38
10005dfa:	9303      	str	r3, [sp, #12]
10005dfc:	9b26      	ldr	r3, [sp, #152]	@ 0x98
10005dfe:	9302      	str	r3, [sp, #8]
10005e00:	9b08      	ldr	r3, [sp, #32]
10005e02:	9c09      	ldr	r4, [sp, #36]	@ 0x24
10005e04:	9300      	str	r3, [sp, #0]
10005e06:	9401      	str	r4, [sp, #4]
10005e08:	4641      	mov	r1, r8
10005e0a:	464b      	mov	r3, r9
10005e0c:	465a      	mov	r2, fp
10005e0e:	4650      	mov	r0, sl
10005e10:	f7ff fd4a 	bl	100058a8 <_ftoa>
10005e14:	0002      	movs	r2, r0
10005e16:	2020      	movs	r0, #32
10005e18:	9b28      	ldr	r3, [sp, #160]	@ 0xa0
10005e1a:	2500      	movs	r5, #0
10005e1c:	4003      	ands	r3, r0
10005e1e:	4259      	negs	r1, r3
10005e20:	414b      	adcs	r3, r1
10005e22:	425b      	negs	r3, r3
10005e24:	4018      	ands	r0, r3
10005e26:	1c53      	adds	r3, r2, #1
10005e28:	9308      	str	r3, [sp, #32]
10005e2a:	4641      	mov	r1, r8
10005e2c:	464b      	mov	r3, r9
10005e2e:	3045      	adds	r0, #69	@ 0x45
10005e30:	47d0      	blx	sl
10005e32:	17fb      	asrs	r3, r7, #31
10005e34:	18fc      	adds	r4, r7, r3
10005e36:	405c      	eors	r4, r3
10005e38:	0ffb      	lsrs	r3, r7, #31
10005e3a:	271f      	movs	r7, #31
10005e3c:	930a      	str	r3, [sp, #40]	@ 0x28
10005e3e:	1e73      	subs	r3, r6, #1
10005e40:	930e      	str	r3, [sp, #56]	@ 0x38
10005e42:	ab0a      	add	r3, sp, #40	@ 0x28
10005e44:	18ff      	adds	r7, r7, r3
10005e46:	e006      	b.n	10005e56 <_etoa+0x13a>
10005e48:	0020      	movs	r0, r4
10005e4a:	210a      	movs	r1, #10
10005e4c:	f7fe fcec 	bl	10004828 <__wrap___aeabi_uidiv>
10005e50:	0004      	movs	r4, r0
10005e52:	2d20      	cmp	r5, #32
10005e54:	d008      	beq.n	10005e68 <_etoa+0x14c>
10005e56:	210a      	movs	r1, #10
10005e58:	0020      	movs	r0, r4
10005e5a:	f7fe fce5 	bl	10004828 <__wrap___aeabi_uidiv>
10005e5e:	3501      	adds	r5, #1
10005e60:	3130      	adds	r1, #48	@ 0x30
10005e62:	5579      	strb	r1, [r7, r5]
10005e64:	2c09      	cmp	r4, #9
10005e66:	d8ef      	bhi.n	10005e48 <_etoa+0x12c>
10005e68:	2305      	movs	r3, #5
10005e6a:	9306      	str	r3, [sp, #24]
10005e6c:	9b0e      	ldr	r3, [sp, #56]	@ 0x38
10005e6e:	4656      	mov	r6, sl
10005e70:	9305      	str	r3, [sp, #20]
10005e72:	2300      	movs	r3, #0
10005e74:	9304      	str	r3, [sp, #16]
10005e76:	330a      	adds	r3, #10
10005e78:	9303      	str	r3, [sp, #12]
10005e7a:	9b0a      	ldr	r3, [sp, #40]	@ 0x28
10005e7c:	4641      	mov	r1, r8
10005e7e:	9302      	str	r3, [sp, #8]
10005e80:	ab12      	add	r3, sp, #72	@ 0x48
10005e82:	9300      	str	r3, [sp, #0]
10005e84:	0030      	movs	r0, r6
10005e86:	464b      	mov	r3, r9
10005e88:	9a08      	ldr	r2, [sp, #32]
10005e8a:	9501      	str	r5, [sp, #4]
10005e8c:	f7ff fc10 	bl	100056b0 <_ntoa_format>
10005e90:	9b0c      	ldr	r3, [sp, #48]	@ 0x30
10005e92:	2b00      	cmp	r3, #0
10005e94:	d028      	beq.n	10005ee8 <_etoa+0x1cc>
10005e96:	465f      	mov	r7, fp
10005e98:	9b27      	ldr	r3, [sp, #156]	@ 0x9c
10005e9a:	1bc4      	subs	r4, r0, r7
10005e9c:	42a3      	cmp	r3, r4
10005e9e:	d923      	bls.n	10005ee8 <_etoa+0x1cc>
10005ea0:	4682      	mov	sl, r0
10005ea2:	001d      	movs	r5, r3
10005ea4:	193a      	adds	r2, r7, r4
10005ea6:	464b      	mov	r3, r9
10005ea8:	4641      	mov	r1, r8
10005eaa:	2020      	movs	r0, #32
10005eac:	3401      	adds	r4, #1
10005eae:	47b0      	blx	r6
10005eb0:	42a5      	cmp	r5, r4
10005eb2:	d8f7      	bhi.n	10005ea4 <_etoa+0x188>
10005eb4:	4650      	mov	r0, sl
10005eb6:	4659      	mov	r1, fp
10005eb8:	9c27      	ldr	r4, [sp, #156]	@ 0x9c
10005eba:	1a42      	subs	r2, r0, r1
10005ebc:	3201      	adds	r2, #1
10005ebe:	2300      	movs	r3, #0
10005ec0:	4294      	cmp	r4, r2
10005ec2:	d300      	bcc.n	10005ec6 <_etoa+0x1aa>
10005ec4:	e195      	b.n	100061f2 <_etoa+0x4d6>
10005ec6:	3001      	adds	r0, #1
10005ec8:	1818      	adds	r0, r3, r0
10005eca:	e00d      	b.n	10005ee8 <_etoa+0x1cc>
10005ecc:	9b28      	ldr	r3, [sp, #160]	@ 0xa0
10005ece:	9400      	str	r4, [sp, #0]
10005ed0:	9501      	str	r5, [sp, #4]
10005ed2:	9304      	str	r3, [sp, #16]
10005ed4:	9b27      	ldr	r3, [sp, #156]	@ 0x9c
10005ed6:	9303      	str	r3, [sp, #12]
10005ed8:	9b26      	ldr	r3, [sp, #152]	@ 0x98
10005eda:	9302      	str	r3, [sp, #8]
10005edc:	464b      	mov	r3, r9
10005ede:	465a      	mov	r2, fp
10005ee0:	4641      	mov	r1, r8
10005ee2:	4650      	mov	r0, sl
10005ee4:	f7ff fce0 	bl	100058a8 <_ftoa>
10005ee8:	b01b      	add	sp, #108	@ 0x6c
10005eea:	bcf0      	pop	{r4, r5, r6, r7}
10005eec:	46bb      	mov	fp, r7
10005eee:	46b2      	mov	sl, r6
10005ef0:	46a9      	mov	r9, r5
10005ef2:	46a0      	mov	r8, r4
10005ef4:	bdf0      	pop	{r4, r5, r6, r7, pc}
10005ef6:	4301      	orrs	r1, r0
10005ef8:	d12a      	bne.n	10005f50 <_etoa+0x234>
10005efa:	9b0e      	ldr	r3, [sp, #56]	@ 0x38
10005efc:	0032      	movs	r2, r6
10005efe:	2b00      	cmp	r3, #0
10005f00:	d100      	bne.n	10005f04 <_etoa+0x1e8>
10005f02:	e75d      	b.n	10005dc0 <_etoa+0xa4>
10005f04:	2700      	movs	r7, #0
10005f06:	9b26      	ldr	r3, [sp, #152]	@ 0x98
10005f08:	2600      	movs	r6, #0
10005f0a:	42bb      	cmp	r3, r7
10005f0c:	dd00      	ble.n	10005f10 <_etoa+0x1f4>
10005f0e:	e182      	b.n	10006216 <_etoa+0x4fa>
10005f10:	2200      	movs	r2, #0
10005f12:	2300      	movs	r3, #0
10005f14:	0020      	movs	r0, r4
10005f16:	0029      	movs	r1, r5
10005f18:	f7fe ff34 	bl	10004d84 <__wrap___aeabi_dcmplt>
10005f1c:	2800      	cmp	r0, #0
10005f1e:	d000      	beq.n	10005f22 <_etoa+0x206>
10005f20:	e14b      	b.n	100061ba <_etoa+0x49e>
10005f22:	9b28      	ldr	r3, [sp, #160]	@ 0xa0
10005f24:	4a08      	ldr	r2, [pc, #32]	@ (10005f48 <_etoa+0x22c>)
10005f26:	9602      	str	r6, [sp, #8]
10005f28:	401a      	ands	r2, r3
10005f2a:	2380      	movs	r3, #128	@ 0x80
10005f2c:	00db      	lsls	r3, r3, #3
10005f2e:	4313      	orrs	r3, r2
10005f30:	9304      	str	r3, [sp, #16]
10005f32:	9b27      	ldr	r3, [sp, #156]	@ 0x9c
10005f34:	9303      	str	r3, [sp, #12]
10005f36:	9b08      	ldr	r3, [sp, #32]
10005f38:	9c09      	ldr	r4, [sp, #36]	@ 0x24
10005f3a:	9300      	str	r3, [sp, #0]
10005f3c:	9401      	str	r4, [sp, #4]
10005f3e:	e7cd      	b.n	10005edc <_etoa+0x1c0>
10005f40:	7fefffff 	.word	0x7fefffff
10005f44:	ffefffff 	.word	0xffefffff
10005f48:	fffff7ff 	.word	0xfffff7ff
10005f4c:	2306      	movs	r3, #6
10005f4e:	9326      	str	r3, [sp, #152]	@ 0x98
10005f50:	4bb2      	ldr	r3, [pc, #712]	@ (1000621c <_etoa+0x500>)
10005f52:	0078      	lsls	r0, r7, #1
10005f54:	0d40      	lsrs	r0, r0, #21
10005f56:	18c0      	adds	r0, r0, r3
10005f58:	f7fe ff40 	bl	10004ddc <__wrap___aeabi_i2d>
10005f5c:	4ab0      	ldr	r2, [pc, #704]	@ (10006220 <_etoa+0x504>)
10005f5e:	4bb1      	ldr	r3, [pc, #708]	@ (10006224 <_etoa+0x508>)
10005f60:	f7fe fecd 	bl	10004cfe <__wrap___aeabi_dmul>
10005f64:	4ab0      	ldr	r2, [pc, #704]	@ (10006228 <_etoa+0x50c>)
10005f66:	4bb1      	ldr	r3, [pc, #708]	@ (1000622c <_etoa+0x510>)
10005f68:	f7fe fea2 	bl	10004cb0 <__wrap___aeabi_dadd>
10005f6c:	033f      	lsls	r7, r7, #12
10005f6e:	4bb0      	ldr	r3, [pc, #704]	@ (10006230 <_etoa+0x514>)
10005f70:	0b3f      	lsrs	r7, r7, #12
10005f72:	433b      	orrs	r3, r7
10005f74:	900c      	str	r0, [sp, #48]	@ 0x30
10005f76:	910d      	str	r1, [sp, #52]	@ 0x34
10005f78:	2200      	movs	r2, #0
10005f7a:	980a      	ldr	r0, [sp, #40]	@ 0x28
10005f7c:	0019      	movs	r1, r3
10005f7e:	4bad      	ldr	r3, [pc, #692]	@ (10006234 <_etoa+0x518>)
10005f80:	f7fe fe8d 	bl	10004c9e <__wrap___aeabi_dsub>
10005f84:	4aac      	ldr	r2, [pc, #688]	@ (10006238 <_etoa+0x51c>)
10005f86:	4bad      	ldr	r3, [pc, #692]	@ (1000623c <_etoa+0x520>)
10005f88:	f7fe feb9 	bl	10004cfe <__wrap___aeabi_dmul>
10005f8c:	0002      	movs	r2, r0
10005f8e:	000b      	movs	r3, r1
10005f90:	980c      	ldr	r0, [sp, #48]	@ 0x30
10005f92:	990d      	ldr	r1, [sp, #52]	@ 0x34
10005f94:	f7fe fe8c 	bl	10004cb0 <__wrap___aeabi_dadd>
10005f98:	f7fe ff38 	bl	10004e0c <__wrap___aeabi_d2iz>
10005f9c:	0007      	movs	r7, r0
10005f9e:	f7fe ff1d 	bl	10004ddc <__wrap___aeabi_i2d>
10005fa2:	4aa7      	ldr	r2, [pc, #668]	@ (10006240 <_etoa+0x524>)
10005fa4:	4ba7      	ldr	r3, [pc, #668]	@ (10006244 <_etoa+0x528>)
10005fa6:	900a      	str	r0, [sp, #40]	@ 0x28
10005fa8:	910b      	str	r1, [sp, #44]	@ 0x2c
10005faa:	f7fe fea8 	bl	10004cfe <__wrap___aeabi_dmul>
10005fae:	2200      	movs	r2, #0
10005fb0:	4ba5      	ldr	r3, [pc, #660]	@ (10006248 <_etoa+0x52c>)
10005fb2:	f7fe fe7d 	bl	10004cb0 <__wrap___aeabi_dadd>
10005fb6:	f7fe ff29 	bl	10004e0c <__wrap___aeabi_d2iz>
10005fba:	4aa4      	ldr	r2, [pc, #656]	@ (1000624c <_etoa+0x530>)
10005fbc:	0006      	movs	r6, r0
10005fbe:	980a      	ldr	r0, [sp, #40]	@ 0x28
10005fc0:	990b      	ldr	r1, [sp, #44]	@ 0x2c
10005fc2:	4ba3      	ldr	r3, [pc, #652]	@ (10006250 <_etoa+0x534>)
10005fc4:	f7fe fe9b 	bl	10004cfe <__wrap___aeabi_dmul>
10005fc8:	900a      	str	r0, [sp, #40]	@ 0x28
10005fca:	910b      	str	r1, [sp, #44]	@ 0x2c
10005fcc:	0030      	movs	r0, r6
10005fce:	f7fe ff05 	bl	10004ddc <__wrap___aeabi_i2d>
10005fd2:	4aa0      	ldr	r2, [pc, #640]	@ (10006254 <_etoa+0x538>)
10005fd4:	4ba0      	ldr	r3, [pc, #640]	@ (10006258 <_etoa+0x53c>)
10005fd6:	f7fe fe92 	bl	10004cfe <__wrap___aeabi_dmul>
10005fda:	0002      	movs	r2, r0
10005fdc:	000b      	movs	r3, r1
10005fde:	980a      	ldr	r0, [sp, #40]	@ 0x28
10005fe0:	990b      	ldr	r1, [sp, #44]	@ 0x2c
10005fe2:	f7fe fe5c 	bl	10004c9e <__wrap___aeabi_dsub>
10005fe6:	0002      	movs	r2, r0
10005fe8:	000b      	movs	r3, r1
10005fea:	900a      	str	r0, [sp, #40]	@ 0x28
10005fec:	910b      	str	r1, [sp, #44]	@ 0x2c
10005fee:	f7fe fe86 	bl	10004cfe <__wrap___aeabi_dmul>
10005ff2:	900c      	str	r0, [sp, #48]	@ 0x30
10005ff4:	910d      	str	r1, [sp, #52]	@ 0x34
10005ff6:	980a      	ldr	r0, [sp, #40]	@ 0x28
10005ff8:	990b      	ldr	r1, [sp, #44]	@ 0x2c
10005ffa:	0002      	movs	r2, r0
10005ffc:	000b      	movs	r3, r1
10005ffe:	f7fe fe57 	bl	10004cb0 <__wrap___aeabi_dadd>
10006002:	2200      	movs	r2, #0
10006004:	9010      	str	r0, [sp, #64]	@ 0x40
10006006:	9111      	str	r1, [sp, #68]	@ 0x44
10006008:	980c      	ldr	r0, [sp, #48]	@ 0x30
1000600a:	990d      	ldr	r1, [sp, #52]	@ 0x34
1000600c:	4b93      	ldr	r3, [pc, #588]	@ (1000625c <_etoa+0x540>)
1000600e:	f7fe fe58 	bl	10004cc2 <__wrap___aeabi_ddiv>
10006012:	2200      	movs	r2, #0
10006014:	4b92      	ldr	r3, [pc, #584]	@ (10006260 <_etoa+0x544>)
10006016:	f7fe fe4b 	bl	10004cb0 <__wrap___aeabi_dadd>
1000601a:	0002      	movs	r2, r0
1000601c:	000b      	movs	r3, r1
1000601e:	980c      	ldr	r0, [sp, #48]	@ 0x30
10006020:	990d      	ldr	r1, [sp, #52]	@ 0x34
10006022:	f7fe fe4e 	bl	10004cc2 <__wrap___aeabi_ddiv>
10006026:	2200      	movs	r2, #0
10006028:	4b8e      	ldr	r3, [pc, #568]	@ (10006264 <_etoa+0x548>)
1000602a:	f7fe fe41 	bl	10004cb0 <__wrap___aeabi_dadd>
1000602e:	0002      	movs	r2, r0
10006030:	000b      	movs	r3, r1
10006032:	980c      	ldr	r0, [sp, #48]	@ 0x30
10006034:	990d      	ldr	r1, [sp, #52]	@ 0x34
10006036:	f7fe fe44 	bl	10004cc2 <__wrap___aeabi_ddiv>
1000603a:	9a0a      	ldr	r2, [sp, #40]	@ 0x28
1000603c:	9b0b      	ldr	r3, [sp, #44]	@ 0x2c
1000603e:	900c      	str	r0, [sp, #48]	@ 0x30
10006040:	910d      	str	r1, [sp, #52]	@ 0x34
10006042:	2180      	movs	r1, #128	@ 0x80
10006044:	2000      	movs	r0, #0
10006046:	05c9      	lsls	r1, r1, #23
10006048:	f7fe fe29 	bl	10004c9e <__wrap___aeabi_dsub>
1000604c:	0002      	movs	r2, r0
1000604e:	000b      	movs	r3, r1
10006050:	980c      	ldr	r0, [sp, #48]	@ 0x30
10006052:	990d      	ldr	r1, [sp, #52]	@ 0x34
10006054:	f7fe fe2c 	bl	10004cb0 <__wrap___aeabi_dadd>
10006058:	0002      	movs	r2, r0
1000605a:	000b      	movs	r3, r1
1000605c:	9810      	ldr	r0, [sp, #64]	@ 0x40
1000605e:	9911      	ldr	r1, [sp, #68]	@ 0x44
10006060:	f7fe fe2f 	bl	10004cc2 <__wrap___aeabi_ddiv>
10006064:	2200      	movs	r2, #0
10006066:	4b72      	ldr	r3, [pc, #456]	@ (10006230 <_etoa+0x514>)
10006068:	f7fe fe22 	bl	10004cb0 <__wrap___aeabi_dadd>
1000606c:	4b7e      	ldr	r3, [pc, #504]	@ (10006268 <_etoa+0x54c>)
1000606e:	2200      	movs	r2, #0
10006070:	18f6      	adds	r6, r6, r3
10006072:	0533      	lsls	r3, r6, #20
10006074:	f7fe fe43 	bl	10004cfe <__wrap___aeabi_dmul>
10006078:	0002      	movs	r2, r0
1000607a:	000b      	movs	r3, r1
1000607c:	900a      	str	r0, [sp, #40]	@ 0x28
1000607e:	910b      	str	r1, [sp, #44]	@ 0x2c
10006080:	9808      	ldr	r0, [sp, #32]
10006082:	9909      	ldr	r1, [sp, #36]	@ 0x24
10006084:	f7fe fe7e 	bl	10004d84 <__wrap___aeabi_dcmplt>
10006088:	2800      	cmp	r0, #0
1000608a:	d008      	beq.n	1000609e <_etoa+0x382>
1000608c:	980a      	ldr	r0, [sp, #40]	@ 0x28
1000608e:	990b      	ldr	r1, [sp, #44]	@ 0x2c
10006090:	2200      	movs	r2, #0
10006092:	4b73      	ldr	r3, [pc, #460]	@ (10006260 <_etoa+0x544>)
10006094:	f7fe fe15 	bl	10004cc2 <__wrap___aeabi_ddiv>
10006098:	900a      	str	r0, [sp, #40]	@ 0x28
1000609a:	910b      	str	r1, [sp, #44]	@ 0x2c
1000609c:	3f01      	subs	r7, #1
1000609e:	990a      	ldr	r1, [sp, #40]	@ 0x28
100060a0:	9a0b      	ldr	r2, [sp, #44]	@ 0x2c
100060a2:	000b      	movs	r3, r1
100060a4:	0011      	movs	r1, r2
100060a6:	003a      	movs	r2, r7
100060a8:	3263      	adds	r2, #99	@ 0x63
100060aa:	2ac6      	cmp	r2, #198	@ 0xc6
100060ac:	d812      	bhi.n	100060d4 <_etoa+0x3b8>
100060ae:	2202      	movs	r2, #2
100060b0:	9828      	ldr	r0, [sp, #160]	@ 0xa0
100060b2:	2604      	movs	r6, #4
100060b4:	4010      	ands	r0, r2
100060b6:	9a0e      	ldr	r2, [sp, #56]	@ 0x38
100060b8:	900c      	str	r0, [sp, #48]	@ 0x30
100060ba:	2a00      	cmp	r2, #0
100060bc:	d126      	bne.n	1000610c <_etoa+0x3f0>
100060be:	9b27      	ldr	r3, [sp, #156]	@ 0x9c
100060c0:	2b04      	cmp	r3, #4
100060c2:	d905      	bls.n	100060d0 <_etoa+0x3b4>
100060c4:	2800      	cmp	r0, #0
100060c6:	d000      	beq.n	100060ca <_etoa+0x3ae>
100060c8:	e0a1      	b.n	1000620e <_etoa+0x4f2>
100060ca:	9b27      	ldr	r3, [sp, #156]	@ 0x9c
100060cc:	3b04      	subs	r3, #4
100060ce:	930e      	str	r3, [sp, #56]	@ 0x38
100060d0:	2604      	movs	r6, #4
100060d2:	e042      	b.n	1000615a <_etoa+0x43e>
100060d4:	2202      	movs	r2, #2
100060d6:	9828      	ldr	r0, [sp, #160]	@ 0xa0
100060d8:	4010      	ands	r0, r2
100060da:	9a0e      	ldr	r2, [sp, #56]	@ 0x38
100060dc:	900c      	str	r0, [sp, #48]	@ 0x30
100060de:	2a00      	cmp	r2, #0
100060e0:	d113      	bne.n	1000610a <_etoa+0x3ee>
100060e2:	9b27      	ldr	r3, [sp, #156]	@ 0x9c
100060e4:	2b05      	cmp	r3, #5
100060e6:	d800      	bhi.n	100060ea <_etoa+0x3ce>
100060e8:	e089      	b.n	100061fe <_etoa+0x4e2>
100060ea:	2800      	cmp	r0, #0
100060ec:	d000      	beq.n	100060f0 <_etoa+0x3d4>
100060ee:	e084      	b.n	100061fa <_etoa+0x4de>
100060f0:	9b27      	ldr	r3, [sp, #156]	@ 0x9c
100060f2:	2605      	movs	r6, #5
100060f4:	3b05      	subs	r3, #5
100060f6:	930e      	str	r3, [sp, #56]	@ 0x38
100060f8:	e032      	b.n	10006160 <_etoa+0x444>
100060fa:	2380      	movs	r3, #128	@ 0x80
100060fc:	061b      	lsls	r3, r3, #24
100060fe:	469c      	mov	ip, r3
10006100:	44ac      	add	ip, r5
10006102:	4663      	mov	r3, ip
10006104:	9408      	str	r4, [sp, #32]
10006106:	9309      	str	r3, [sp, #36]	@ 0x24
10006108:	e63d      	b.n	10005d86 <_etoa+0x6a>
1000610a:	2605      	movs	r6, #5
1000610c:	430b      	orrs	r3, r1
1000610e:	d100      	bne.n	10006112 <_etoa+0x3f6>
10006110:	e6f9      	b.n	10005f06 <_etoa+0x1ea>
10006112:	9808      	ldr	r0, [sp, #32]
10006114:	9909      	ldr	r1, [sp, #36]	@ 0x24
10006116:	4a55      	ldr	r2, [pc, #340]	@ (1000626c <_etoa+0x550>)
10006118:	4b55      	ldr	r3, [pc, #340]	@ (10006270 <_etoa+0x554>)
1000611a:	f7fe fe41 	bl	10004da0 <__wrap___aeabi_dcmpge>
1000611e:	2800      	cmp	r0, #0
10006120:	d008      	beq.n	10006134 <_etoa+0x418>
10006122:	9808      	ldr	r0, [sp, #32]
10006124:	9909      	ldr	r1, [sp, #36]	@ 0x24
10006126:	2200      	movs	r2, #0
10006128:	4b52      	ldr	r3, [pc, #328]	@ (10006274 <_etoa+0x558>)
1000612a:	f7fe fe2b 	bl	10004d84 <__wrap___aeabi_dcmplt>
1000612e:	2800      	cmp	r0, #0
10006130:	d000      	beq.n	10006134 <_etoa+0x418>
10006132:	e6e8      	b.n	10005f06 <_etoa+0x1ea>
10006134:	9b26      	ldr	r3, [sp, #152]	@ 0x98
10006136:	2b00      	cmp	r3, #0
10006138:	d034      	beq.n	100061a4 <_etoa+0x488>
1000613a:	9b0f      	ldr	r3, [sp, #60]	@ 0x3c
1000613c:	2b00      	cmp	r3, #0
1000613e:	d031      	beq.n	100061a4 <_etoa+0x488>
10006140:	9b26      	ldr	r3, [sp, #152]	@ 0x98
10006142:	3b01      	subs	r3, #1
10006144:	9326      	str	r3, [sp, #152]	@ 0x98
10006146:	9b27      	ldr	r3, [sp, #156]	@ 0x9c
10006148:	42b3      	cmp	r3, r6
1000614a:	d904      	bls.n	10006156 <_etoa+0x43a>
1000614c:	9b0c      	ldr	r3, [sp, #48]	@ 0x30
1000614e:	2b00      	cmp	r3, #0
10006150:	d059      	beq.n	10006206 <_etoa+0x4ea>
10006152:	2302      	movs	r3, #2
10006154:	930c      	str	r3, [sp, #48]	@ 0x30
10006156:	2300      	movs	r3, #0
10006158:	930e      	str	r3, [sp, #56]	@ 0x38
1000615a:	2f00      	cmp	r7, #0
1000615c:	d100      	bne.n	10006160 <_etoa+0x444>
1000615e:	e63e      	b.n	10005dde <_etoa+0xc2>
10006160:	9a0a      	ldr	r2, [sp, #40]	@ 0x28
10006162:	9b0b      	ldr	r3, [sp, #44]	@ 0x2c
10006164:	9808      	ldr	r0, [sp, #32]
10006166:	9909      	ldr	r1, [sp, #36]	@ 0x24
10006168:	f7fe fdab 	bl	10004cc2 <__wrap___aeabi_ddiv>
1000616c:	2200      	movs	r2, #0
1000616e:	9008      	str	r0, [sp, #32]
10006170:	9109      	str	r1, [sp, #36]	@ 0x24
10006172:	2300      	movs	r3, #0
10006174:	0020      	movs	r0, r4
10006176:	0029      	movs	r1, r5
10006178:	f7fe fe04 	bl	10004d84 <__wrap___aeabi_dcmplt>
1000617c:	2800      	cmp	r0, #0
1000617e:	d100      	bne.n	10006182 <_etoa+0x466>
10006180:	e636      	b.n	10005df0 <_etoa+0xd4>
10006182:	9c08      	ldr	r4, [sp, #32]
10006184:	9d09      	ldr	r5, [sp, #36]	@ 0x24
10006186:	9a28      	ldr	r2, [sp, #160]	@ 0xa0
10006188:	2080      	movs	r0, #128	@ 0x80
1000618a:	4b3b      	ldr	r3, [pc, #236]	@ (10006278 <_etoa+0x55c>)
1000618c:	0600      	lsls	r0, r0, #24
1000618e:	4013      	ands	r3, r2
10006190:	0022      	movs	r2, r4
10006192:	9304      	str	r3, [sp, #16]
10006194:	9b0e      	ldr	r3, [sp, #56]	@ 0x38
10006196:	9303      	str	r3, [sp, #12]
10006198:	9b26      	ldr	r3, [sp, #152]	@ 0x98
1000619a:	9302      	str	r3, [sp, #8]
1000619c:	182b      	adds	r3, r5, r0
1000619e:	9200      	str	r2, [sp, #0]
100061a0:	9301      	str	r3, [sp, #4]
100061a2:	e631      	b.n	10005e08 <_etoa+0xec>
100061a4:	9b27      	ldr	r3, [sp, #156]	@ 0x9c
100061a6:	42b3      	cmp	r3, r6
100061a8:	d9d5      	bls.n	10006156 <_etoa+0x43a>
100061aa:	9b0c      	ldr	r3, [sp, #48]	@ 0x30
100061ac:	2b00      	cmp	r3, #0
100061ae:	d02a      	beq.n	10006206 <_etoa+0x4ea>
100061b0:	2300      	movs	r3, #0
100061b2:	930e      	str	r3, [sp, #56]	@ 0x38
100061b4:	3302      	adds	r3, #2
100061b6:	930c      	str	r3, [sp, #48]	@ 0x30
100061b8:	e7cf      	b.n	1000615a <_etoa+0x43e>
100061ba:	9b28      	ldr	r3, [sp, #160]	@ 0xa0
100061bc:	4a2e      	ldr	r2, [pc, #184]	@ (10006278 <_etoa+0x55c>)
100061be:	2080      	movs	r0, #128	@ 0x80
100061c0:	9c08      	ldr	r4, [sp, #32]
100061c2:	9d09      	ldr	r5, [sp, #36]	@ 0x24
100061c4:	401a      	ands	r2, r3
100061c6:	2380      	movs	r3, #128	@ 0x80
100061c8:	00db      	lsls	r3, r3, #3
100061ca:	4313      	orrs	r3, r2
100061cc:	0022      	movs	r2, r4
100061ce:	9304      	str	r3, [sp, #16]
100061d0:	9b27      	ldr	r3, [sp, #156]	@ 0x9c
100061d2:	0600      	lsls	r0, r0, #24
100061d4:	9303      	str	r3, [sp, #12]
100061d6:	182b      	adds	r3, r5, r0
100061d8:	9200      	str	r2, [sp, #0]
100061da:	9301      	str	r3, [sp, #4]
100061dc:	9602      	str	r6, [sp, #8]
100061de:	e67d      	b.n	10005edc <_etoa+0x1c0>
100061e0:	2605      	movs	r6, #5
100061e2:	e695      	b.n	10005f10 <_etoa+0x1f4>
100061e4:	2300      	movs	r3, #0
100061e6:	930e      	str	r3, [sp, #56]	@ 0x38
100061e8:	3302      	adds	r3, #2
100061ea:	2700      	movs	r7, #0
100061ec:	2604      	movs	r6, #4
100061ee:	930c      	str	r3, [sp, #48]	@ 0x30
100061f0:	e5f5      	b.n	10005dde <_etoa+0xc2>
100061f2:	1e4b      	subs	r3, r1, #1
100061f4:	191b      	adds	r3, r3, r4
100061f6:	1a1b      	subs	r3, r3, r0
100061f8:	e665      	b.n	10005ec6 <_etoa+0x1aa>
100061fa:	2302      	movs	r3, #2
100061fc:	930c      	str	r3, [sp, #48]	@ 0x30
100061fe:	2605      	movs	r6, #5
10006200:	e7ae      	b.n	10006160 <_etoa+0x444>
10006202:	2304      	movs	r3, #4
10006204:	e5e7      	b.n	10005dd6 <_etoa+0xba>
10006206:	9b27      	ldr	r3, [sp, #156]	@ 0x9c
10006208:	1b9b      	subs	r3, r3, r6
1000620a:	930e      	str	r3, [sp, #56]	@ 0x38
1000620c:	e7a5      	b.n	1000615a <_etoa+0x43e>
1000620e:	2302      	movs	r3, #2
10006210:	2604      	movs	r6, #4
10006212:	930c      	str	r3, [sp, #48]	@ 0x30
10006214:	e7a1      	b.n	1000615a <_etoa+0x43e>
10006216:	1bdb      	subs	r3, r3, r7
10006218:	1e5e      	subs	r6, r3, #1
1000621a:	e679      	b.n	10005f10 <_etoa+0x1f4>
1000621c:	fffffc01 	.word	0xfffffc01
10006220:	509f79fb 	.word	0x509f79fb
10006224:	3fd34413 	.word	0x3fd34413
10006228:	8b60c8b3 	.word	0x8b60c8b3
1000622c:	3fc68a28 	.word	0x3fc68a28
10006230:	3ff00000 	.word	0x3ff00000
10006234:	3ff80000 	.word	0x3ff80000
10006238:	636f4361 	.word	0x636f4361
1000623c:	3fd287a7 	.word	0x3fd287a7
10006240:	0979a371 	.word	0x0979a371
10006244:	400a934f 	.word	0x400a934f
10006248:	3fe00000 	.word	0x3fe00000
1000624c:	bbb55516 	.word	0xbbb55516
10006250:	40026bb1 	.word	0x40026bb1
10006254:	fefa39ef 	.word	0xfefa39ef
10006258:	3fe62e42 	.word	0x3fe62e42
1000625c:	402c0000 	.word	0x402c0000
10006260:	40240000 	.word	0x40240000
10006264:	40180000 	.word	0x40180000
10006268:	000003ff 	.word	0x000003ff
1000626c:	eb1c432d 	.word	0xeb1c432d
10006270:	3f1a36e2 	.word	0x3f1a36e2
10006274:	412e8480 	.word	0x412e8480
10006278:	fffff7ff 	.word	0xfffff7ff

1000627c <_vsnprintf>:
1000627c:	b5f0      	push	{r4, r5, r6, r7, lr}
1000627e:	4657      	mov	r7, sl
10006280:	46de      	mov	lr, fp
10006282:	464e      	mov	r6, r9
10006284:	4645      	mov	r5, r8
10006286:	b5e0      	push	{r5, r6, r7, lr}
10006288:	b0a3      	sub	sp, #140	@ 0x8c
1000628a:	001f      	movs	r7, r3
1000628c:	9b2c      	ldr	r3, [sp, #176]	@ 0xb0
1000628e:	4692      	mov	sl, r2
10006290:	930c      	str	r3, [sp, #48]	@ 0x30
10006292:	4ac9      	ldr	r2, [pc, #804]	@ (100065b8 <_vsnprintf+0x33c>)
10006294:	4bc9      	ldr	r3, [pc, #804]	@ (100065bc <_vsnprintf+0x340>)
10006296:	468b      	mov	fp, r1
10006298:	900b      	str	r0, [sp, #44]	@ 0x2c
1000629a:	601a      	str	r2, [r3, #0]
1000629c:	2900      	cmp	r1, #0
1000629e:	d100      	bne.n	100062a2 <_vsnprintf+0x26>
100062a0:	e1bf      	b.n	10006622 <_vsnprintf+0x3a6>
100062a2:	2300      	movs	r3, #0
100062a4:	7838      	ldrb	r0, [r7, #0]
100062a6:	4699      	mov	r9, r3
100062a8:	2800      	cmp	r0, #0
100062aa:	d100      	bne.n	100062ae <_vsnprintf+0x32>
100062ac:	e1c1      	b.n	10006632 <_vsnprintf+0x3b6>
100062ae:	4bc4      	ldr	r3, [pc, #784]	@ (100065c0 <_vsnprintf+0x344>)
100062b0:	464c      	mov	r4, r9
100062b2:	9309      	str	r3, [sp, #36]	@ 0x24
100062b4:	4bc3      	ldr	r3, [pc, #780]	@ (100065c4 <_vsnprintf+0x348>)
100062b6:	930e      	str	r3, [sp, #56]	@ 0x38
100062b8:	465b      	mov	r3, fp
100062ba:	930a      	str	r3, [sp, #40]	@ 0x28
100062bc:	e008      	b.n	100062d0 <_vsnprintf+0x54>
100062be:	0022      	movs	r2, r4
100062c0:	4653      	mov	r3, sl
100062c2:	990a      	ldr	r1, [sp, #40]	@ 0x28
100062c4:	9d0b      	ldr	r5, [sp, #44]	@ 0x2c
100062c6:	47a8      	blx	r5
100062c8:	3401      	adds	r4, #1
100062ca:	7838      	ldrb	r0, [r7, #0]
100062cc:	2800      	cmp	r0, #0
100062ce:	d076      	beq.n	100063be <_vsnprintf+0x142>
100062d0:	3701      	adds	r7, #1
100062d2:	2825      	cmp	r0, #37	@ 0x25
100062d4:	d1f3      	bne.n	100062be <_vsnprintf+0x42>
100062d6:	2310      	movs	r3, #16
100062d8:	469b      	mov	fp, r3
100062da:	3b08      	subs	r3, #8
100062dc:	4699      	mov	r9, r3
100062de:	3b04      	subs	r3, #4
100062e0:	4698      	mov	r8, r3
100062e2:	3b03      	subs	r3, #3
100062e4:	2600      	movs	r6, #0
100062e6:	2502      	movs	r5, #2
100062e8:	469c      	mov	ip, r3
100062ea:	7838      	ldrb	r0, [r7, #0]
100062ec:	1c79      	adds	r1, r7, #1
100062ee:	0003      	movs	r3, r0
100062f0:	3b20      	subs	r3, #32
100062f2:	b2db      	uxtb	r3, r3
100062f4:	2b10      	cmp	r3, #16
100062f6:	d803      	bhi.n	10006300 <_vsnprintf+0x84>
100062f8:	9a09      	ldr	r2, [sp, #36]	@ 0x24
100062fa:	009b      	lsls	r3, r3, #2
100062fc:	58d3      	ldr	r3, [r2, r3]
100062fe:	469f      	mov	pc, r3
10006300:	0003      	movs	r3, r0
10006302:	3b30      	subs	r3, #48	@ 0x30
10006304:	2b09      	cmp	r3, #9
10006306:	d936      	bls.n	10006376 <_vsnprintf+0xfa>
10006308:	2500      	movs	r5, #0
1000630a:	282a      	cmp	r0, #42	@ 0x2a
1000630c:	d100      	bne.n	10006310 <_vsnprintf+0x94>
1000630e:	e0a7      	b.n	10006460 <_vsnprintf+0x1e4>
10006310:	2300      	movs	r3, #0
10006312:	930d      	str	r3, [sp, #52]	@ 0x34
10006314:	282e      	cmp	r0, #46	@ 0x2e
10006316:	d03f      	beq.n	10006398 <_vsnprintf+0x11c>
10006318:	0003      	movs	r3, r0
1000631a:	3b68      	subs	r3, #104	@ 0x68
1000631c:	b2db      	uxtb	r3, r3
1000631e:	2b12      	cmp	r3, #18
10006320:	d81b      	bhi.n	1000635a <_vsnprintf+0xde>
10006322:	9a0e      	ldr	r2, [sp, #56]	@ 0x38
10006324:	009b      	lsls	r3, r3, #2
10006326:	58d3      	ldr	r3, [r2, r3]
10006328:	469f      	mov	pc, r3
1000632a:	4663      	mov	r3, ip
1000632c:	000f      	movs	r7, r1
1000632e:	431e      	orrs	r6, r3
10006330:	e7db      	b.n	100062ea <_vsnprintf+0x6e>
10006332:	000f      	movs	r7, r1
10006334:	432e      	orrs	r6, r5
10006336:	e7d8      	b.n	100062ea <_vsnprintf+0x6e>
10006338:	4643      	mov	r3, r8
1000633a:	000f      	movs	r7, r1
1000633c:	431e      	orrs	r6, r3
1000633e:	e7d4      	b.n	100062ea <_vsnprintf+0x6e>
10006340:	465b      	mov	r3, fp
10006342:	000f      	movs	r7, r1
10006344:	431e      	orrs	r6, r3
10006346:	e7d0      	b.n	100062ea <_vsnprintf+0x6e>
10006348:	464b      	mov	r3, r9
1000634a:	000f      	movs	r7, r1
1000634c:	431e      	orrs	r6, r3
1000634e:	e7cc      	b.n	100062ea <_vsnprintf+0x6e>
10006350:	2380      	movs	r3, #128	@ 0x80
10006352:	7878      	ldrb	r0, [r7, #1]
10006354:	005b      	lsls	r3, r3, #1
10006356:	431e      	orrs	r6, r3
10006358:	3101      	adds	r1, #1
1000635a:	000f      	movs	r7, r1
1000635c:	2867      	cmp	r0, #103	@ 0x67
1000635e:	d845      	bhi.n	100063ec <_vsnprintf+0x170>
10006360:	2824      	cmp	r0, #36	@ 0x24
10006362:	d9ac      	bls.n	100062be <_vsnprintf+0x42>
10006364:	0003      	movs	r3, r0
10006366:	3b25      	subs	r3, #37	@ 0x25
10006368:	b2db      	uxtb	r3, r3
1000636a:	2b42      	cmp	r3, #66	@ 0x42
1000636c:	d8a7      	bhi.n	100062be <_vsnprintf+0x42>
1000636e:	4996      	ldr	r1, [pc, #600]	@ (100065c8 <_vsnprintf+0x34c>)
10006370:	009b      	lsls	r3, r3, #2
10006372:	58cb      	ldr	r3, [r1, r3]
10006374:	469f      	mov	pc, r3
10006376:	2500      	movs	r5, #0
10006378:	00ab      	lsls	r3, r5, #2
1000637a:	195d      	adds	r5, r3, r5
1000637c:	006d      	lsls	r5, r5, #1
1000637e:	182d      	adds	r5, r5, r0
10006380:	7808      	ldrb	r0, [r1, #0]
10006382:	000f      	movs	r7, r1
10006384:	0003      	movs	r3, r0
10006386:	3b30      	subs	r3, #48	@ 0x30
10006388:	3d30      	subs	r5, #48	@ 0x30
1000638a:	3101      	adds	r1, #1
1000638c:	2b09      	cmp	r3, #9
1000638e:	d9f3      	bls.n	10006378 <_vsnprintf+0xfc>
10006390:	2300      	movs	r3, #0
10006392:	930d      	str	r3, [sp, #52]	@ 0x34
10006394:	282e      	cmp	r0, #46	@ 0x2e
10006396:	d1bf      	bne.n	10006318 <_vsnprintf+0x9c>
10006398:	2230      	movs	r2, #48	@ 0x30
1000639a:	2080      	movs	r0, #128	@ 0x80
1000639c:	4252      	negs	r2, r2
1000639e:	4690      	mov	r8, r2
100063a0:	00c0      	lsls	r0, r0, #3
100063a2:	4306      	orrs	r6, r0
100063a4:	7878      	ldrb	r0, [r7, #1]
100063a6:	000b      	movs	r3, r1
100063a8:	4480      	add	r8, r0
100063aa:	4642      	mov	r2, r8
100063ac:	2a09      	cmp	r2, #9
100063ae:	d800      	bhi.n	100063b2 <_vsnprintf+0x136>
100063b0:	e151      	b.n	10006656 <_vsnprintf+0x3da>
100063b2:	282a      	cmp	r0, #42	@ 0x2a
100063b4:	d100      	bne.n	100063b8 <_vsnprintf+0x13c>
100063b6:	e15e      	b.n	10006676 <_vsnprintf+0x3fa>
100063b8:	000f      	movs	r7, r1
100063ba:	3101      	adds	r1, #1
100063bc:	e7ac      	b.n	10006318 <_vsnprintf+0x9c>
100063be:	9b0a      	ldr	r3, [sp, #40]	@ 0x28
100063c0:	46a1      	mov	r9, r4
100063c2:	469b      	mov	fp, r3
100063c4:	45ca      	cmp	sl, r9
100063c6:	d803      	bhi.n	100063d0 <_vsnprintf+0x154>
100063c8:	2301      	movs	r3, #1
100063ca:	425b      	negs	r3, r3
100063cc:	4453      	add	r3, sl
100063ce:	4699      	mov	r9, r3
100063d0:	4653      	mov	r3, sl
100063d2:	464a      	mov	r2, r9
100063d4:	4659      	mov	r1, fp
100063d6:	2000      	movs	r0, #0
100063d8:	9d0b      	ldr	r5, [sp, #44]	@ 0x2c
100063da:	47a8      	blx	r5
100063dc:	0020      	movs	r0, r4
100063de:	b023      	add	sp, #140	@ 0x8c
100063e0:	bcf0      	pop	{r4, r5, r6, r7}
100063e2:	46bb      	mov	fp, r7
100063e4:	46b2      	mov	sl, r6
100063e6:	46a9      	mov	r9, r5
100063e8:	46a0      	mov	r8, r4
100063ea:	bdf0      	pop	{r4, r5, r6, r7, pc}
100063ec:	0003      	movs	r3, r0
100063ee:	3b69      	subs	r3, #105	@ 0x69
100063f0:	b2db      	uxtb	r3, r3
100063f2:	2b0f      	cmp	r3, #15
100063f4:	d900      	bls.n	100063f8 <_vsnprintf+0x17c>
100063f6:	e762      	b.n	100062be <_vsnprintf+0x42>
100063f8:	2101      	movs	r1, #1
100063fa:	4099      	lsls	r1, r3
100063fc:	4688      	mov	r8, r1
100063fe:	4a73      	ldr	r2, [pc, #460]	@ (100065cc <_vsnprintf+0x350>)
10006400:	4011      	ands	r1, r2
10006402:	468b      	mov	fp, r1
10006404:	0011      	movs	r1, r2
10006406:	4642      	mov	r2, r8
10006408:	420a      	tst	r2, r1
1000640a:	d000      	beq.n	1000640e <_vsnprintf+0x192>
1000640c:	e113      	b.n	10006636 <_vsnprintf+0x3ba>
1000640e:	2b0a      	cmp	r3, #10
10006410:	d02f      	beq.n	10006472 <_vsnprintf+0x1f6>
10006412:	2b07      	cmp	r3, #7
10006414:	d000      	beq.n	10006418 <_vsnprintf+0x19c>
10006416:	e752      	b.n	100062be <_vsnprintf+0x42>
10006418:	9d0c      	ldr	r5, [sp, #48]	@ 0x30
1000641a:	cd01      	ldmia	r5!, {r0}
1000641c:	2800      	cmp	r0, #0
1000641e:	d100      	bne.n	10006422 <_vsnprintf+0x1a6>
10006420:	e134      	b.n	1000668c <_vsnprintf+0x410>
10006422:	2321      	movs	r3, #33	@ 0x21
10006424:	431e      	orrs	r6, r3
10006426:	46b0      	mov	r8, r6
10006428:	261f      	movs	r6, #31
1000642a:	9a0d      	ldr	r2, [sp, #52]	@ 0x34
1000642c:	ab12      	add	r3, sp, #72	@ 0x48
1000642e:	18f6      	adds	r6, r6, r3
10006430:	46a1      	mov	r9, r4
10006432:	4694      	mov	ip, r2
10006434:	4659      	mov	r1, fp
10006436:	0034      	movs	r4, r6
10006438:	e002      	b.n	10006440 <_vsnprintf+0x1c4>
1000643a:	0900      	lsrs	r0, r0, #4
1000643c:	2920      	cmp	r1, #32
1000643e:	d00a      	beq.n	10006456 <_vsnprintf+0x1da>
10006440:	260f      	movs	r6, #15
10006442:	4006      	ands	r6, r0
10006444:	0032      	movs	r2, r6
10006446:	3237      	adds	r2, #55	@ 0x37
10006448:	2e09      	cmp	r6, #9
1000644a:	d800      	bhi.n	1000644e <_vsnprintf+0x1d2>
1000644c:	3a07      	subs	r2, #7
1000644e:	3101      	adds	r1, #1
10006450:	5462      	strb	r2, [r4, r1]
10006452:	280f      	cmp	r0, #15
10006454:	d8f1      	bhi.n	1000643a <_vsnprintf+0x1be>
10006456:	4663      	mov	r3, ip
10006458:	464c      	mov	r4, r9
1000645a:	468b      	mov	fp, r1
1000645c:	930d      	str	r3, [sp, #52]	@ 0x34
1000645e:	e122      	b.n	100066a6 <_vsnprintf+0x42a>
10006460:	9b0c      	ldr	r3, [sp, #48]	@ 0x30
10006462:	cb20      	ldmia	r3!, {r5}
10006464:	2d00      	cmp	r5, #0
10006466:	db52      	blt.n	1000650e <_vsnprintf+0x292>
10006468:	7878      	ldrb	r0, [r7, #1]
1000646a:	930c      	str	r3, [sp, #48]	@ 0x30
1000646c:	000f      	movs	r7, r1
1000646e:	3101      	adds	r1, #1
10006470:	e74e      	b.n	10006310 <_vsnprintf+0x94>
10006472:	9b0c      	ldr	r3, [sp, #48]	@ 0x30
10006474:	990d      	ldr	r1, [sp, #52]	@ 0x34
10006476:	cb04      	ldmia	r3!, {r2}
10006478:	4690      	mov	r8, r2
1000647a:	469b      	mov	fp, r3
1000647c:	2900      	cmp	r1, #0
1000647e:	d100      	bne.n	10006482 <_vsnprintf+0x206>
10006480:	e128      	b.n	100066d4 <_vsnprintf+0x458>
10006482:	4643      	mov	r3, r8
10006484:	7818      	ldrb	r0, [r3, #0]
10006486:	4441      	add	r1, r8
10006488:	2800      	cmp	r0, #0
1000648a:	d101      	bne.n	10006490 <_vsnprintf+0x214>
1000648c:	f000 fc29 	bl	10006ce2 <_vsnprintf+0xa66>
10006490:	9a0d      	ldr	r2, [sp, #52]	@ 0x34
10006492:	4694      	mov	ip, r2
10006494:	000a      	movs	r2, r1
10006496:	e004      	b.n	100064a2 <_vsnprintf+0x226>
10006498:	7859      	ldrb	r1, [r3, #1]
1000649a:	3301      	adds	r3, #1
1000649c:	2900      	cmp	r1, #0
1000649e:	d100      	bne.n	100064a2 <_vsnprintf+0x226>
100064a0:	e195      	b.n	100067ce <_vsnprintf+0x552>
100064a2:	429a      	cmp	r2, r3
100064a4:	d1f8      	bne.n	10006498 <_vsnprintf+0x21c>
100064a6:	4663      	mov	r3, ip
100064a8:	930d      	str	r3, [sp, #52]	@ 0x34
100064aa:	4643      	mov	r3, r8
100064ac:	1ad3      	subs	r3, r2, r3
100064ae:	930f      	str	r3, [sp, #60]	@ 0x3c
100064b0:	0573      	lsls	r3, r6, #21
100064b2:	d400      	bmi.n	100064b6 <_vsnprintf+0x23a>
100064b4:	e16c      	b.n	10006790 <_vsnprintf+0x514>
100064b6:	9b0f      	ldr	r3, [sp, #60]	@ 0x3c
100064b8:	9a0d      	ldr	r2, [sp, #52]	@ 0x34
100064ba:	4293      	cmp	r3, r2
100064bc:	d900      	bls.n	100064c0 <_vsnprintf+0x244>
100064be:	920f      	str	r2, [sp, #60]	@ 0x3c
100064c0:	2302      	movs	r3, #2
100064c2:	001a      	movs	r2, r3
100064c4:	4032      	ands	r2, r6
100064c6:	920c      	str	r2, [sp, #48]	@ 0x30
100064c8:	4233      	tst	r3, r6
100064ca:	d100      	bne.n	100064ce <_vsnprintf+0x252>
100064cc:	e291      	b.n	100069f2 <_vsnprintf+0x776>
100064ce:	930c      	str	r3, [sp, #48]	@ 0x30
100064d0:	9b0d      	ldr	r3, [sp, #52]	@ 0x34
100064d2:	46b9      	mov	r9, r7
100064d4:	191e      	adds	r6, r3, r4
100064d6:	4643      	mov	r3, r8
100064d8:	1b1b      	subs	r3, r3, r4
100064da:	46a8      	mov	r8, r5
100064dc:	0022      	movs	r2, r4
100064de:	001f      	movs	r7, r3
100064e0:	9d0b      	ldr	r5, [sp, #44]	@ 0x2c
100064e2:	e008      	b.n	100064f6 <_vsnprintf+0x27a>
100064e4:	1c54      	adds	r4, r2, #1
100064e6:	4653      	mov	r3, sl
100064e8:	990a      	ldr	r1, [sp, #40]	@ 0x28
100064ea:	47a8      	blx	r5
100064ec:	5d38      	ldrb	r0, [r7, r4]
100064ee:	2800      	cmp	r0, #0
100064f0:	d100      	bne.n	100064f4 <_vsnprintf+0x278>
100064f2:	e163      	b.n	100067bc <_vsnprintf+0x540>
100064f4:	0022      	movs	r2, r4
100064f6:	4296      	cmp	r6, r2
100064f8:	d1f4      	bne.n	100064e4 <_vsnprintf+0x268>
100064fa:	4645      	mov	r5, r8
100064fc:	464f      	mov	r7, r9
100064fe:	0034      	movs	r4, r6
10006500:	9b0c      	ldr	r3, [sp, #48]	@ 0x30
10006502:	2b00      	cmp	r3, #0
10006504:	d000      	beq.n	10006508 <_vsnprintf+0x28c>
10006506:	e197      	b.n	10006838 <_vsnprintf+0x5bc>
10006508:	465b      	mov	r3, fp
1000650a:	930c      	str	r3, [sp, #48]	@ 0x30
1000650c:	e6dd      	b.n	100062ca <_vsnprintf+0x4e>
1000650e:	2202      	movs	r2, #2
10006510:	7878      	ldrb	r0, [r7, #1]
10006512:	4316      	orrs	r6, r2
10006514:	000f      	movs	r7, r1
10006516:	426d      	negs	r5, r5
10006518:	930c      	str	r3, [sp, #48]	@ 0x30
1000651a:	3101      	adds	r1, #1
1000651c:	e6f8      	b.n	10006310 <_vsnprintf+0x94>
1000651e:	7878      	ldrb	r0, [r7, #1]
10006520:	286c      	cmp	r0, #108	@ 0x6c
10006522:	d100      	bne.n	10006526 <_vsnprintf+0x2aa>
10006524:	e159      	b.n	100067da <_vsnprintf+0x55e>
10006526:	2380      	movs	r3, #128	@ 0x80
10006528:	005b      	lsls	r3, r3, #1
1000652a:	431e      	orrs	r6, r3
1000652c:	3101      	adds	r1, #1
1000652e:	e714      	b.n	1000635a <_vsnprintf+0xde>
10006530:	2380      	movs	r3, #128	@ 0x80
10006532:	009b      	lsls	r3, r3, #2
10006534:	7878      	ldrb	r0, [r7, #1]
10006536:	431e      	orrs	r6, r3
10006538:	3101      	adds	r1, #1
1000653a:	e70e      	b.n	1000635a <_vsnprintf+0xde>
1000653c:	7878      	ldrb	r0, [r7, #1]
1000653e:	2868      	cmp	r0, #104	@ 0x68
10006540:	d100      	bne.n	10006544 <_vsnprintf+0x2c8>
10006542:	e150      	b.n	100067e6 <_vsnprintf+0x56a>
10006544:	2380      	movs	r3, #128	@ 0x80
10006546:	3101      	adds	r1, #1
10006548:	431e      	orrs	r6, r3
1000654a:	e706      	b.n	1000635a <_vsnprintf+0xde>
1000654c:	2867      	cmp	r0, #103	@ 0x67
1000654e:	d100      	bne.n	10006552 <_vsnprintf+0x2d6>
10006550:	e0c2      	b.n	100066d8 <_vsnprintf+0x45c>
10006552:	2847      	cmp	r0, #71	@ 0x47
10006554:	d100      	bne.n	10006558 <_vsnprintf+0x2dc>
10006556:	e134      	b.n	100067c2 <_vsnprintf+0x546>
10006558:	2845      	cmp	r0, #69	@ 0x45
1000655a:	d100      	bne.n	1000655e <_vsnprintf+0x2e2>
1000655c:	e134      	b.n	100067c8 <_vsnprintf+0x54c>
1000655e:	2107      	movs	r1, #7
10006560:	9b0c      	ldr	r3, [sp, #48]	@ 0x30
10006562:	9a0d      	ldr	r2, [sp, #52]	@ 0x34
10006564:	3307      	adds	r3, #7
10006566:	438b      	bics	r3, r1
10006568:	0019      	movs	r1, r3
1000656a:	9604      	str	r6, [sp, #16]
1000656c:	9503      	str	r5, [sp, #12]
1000656e:	9202      	str	r2, [sp, #8]
10006570:	c90c      	ldmia	r1!, {r2, r3}
10006572:	980b      	ldr	r0, [sp, #44]	@ 0x2c
10006574:	9200      	str	r2, [sp, #0]
10006576:	9301      	str	r3, [sp, #4]
10006578:	910c      	str	r1, [sp, #48]	@ 0x30
1000657a:	0022      	movs	r2, r4
1000657c:	4653      	mov	r3, sl
1000657e:	990a      	ldr	r1, [sp, #40]	@ 0x28
10006580:	f7ff fbcc 	bl	10005d1c <_etoa>
10006584:	0004      	movs	r4, r0
10006586:	e6a0      	b.n	100062ca <_vsnprintf+0x4e>
10006588:	2846      	cmp	r0, #70	@ 0x46
1000658a:	d100      	bne.n	1000658e <_vsnprintf+0x312>
1000658c:	e0a8      	b.n	100066e0 <_vsnprintf+0x464>
1000658e:	2107      	movs	r1, #7
10006590:	9b0c      	ldr	r3, [sp, #48]	@ 0x30
10006592:	9a0d      	ldr	r2, [sp, #52]	@ 0x34
10006594:	3307      	adds	r3, #7
10006596:	438b      	bics	r3, r1
10006598:	0019      	movs	r1, r3
1000659a:	9604      	str	r6, [sp, #16]
1000659c:	9503      	str	r5, [sp, #12]
1000659e:	9202      	str	r2, [sp, #8]
100065a0:	c90c      	ldmia	r1!, {r2, r3}
100065a2:	980b      	ldr	r0, [sp, #44]	@ 0x2c
100065a4:	9200      	str	r2, [sp, #0]
100065a6:	9301      	str	r3, [sp, #4]
100065a8:	910c      	str	r1, [sp, #48]	@ 0x30
100065aa:	0022      	movs	r2, r4
100065ac:	4653      	mov	r3, sl
100065ae:	990a      	ldr	r1, [sp, #40]	@ 0x28
100065b0:	f7ff f97a 	bl	100058a8 <_ftoa>
100065b4:	0004      	movs	r4, r0
100065b6:	e688      	b.n	100062ca <_vsnprintf+0x4e>
100065b8:	1000627d 	.word	0x1000627d
100065bc:	20005560 	.word	0x20005560
100065c0:	1000b520 	.word	0x1000b520
100065c4:	1000b564 	.word	0x1000b564
100065c8:	1000b5b0 	.word	0x1000b5b0
100065cc:	00009041 	.word	0x00009041
100065d0:	0022      	movs	r2, r4
100065d2:	4653      	mov	r3, sl
100065d4:	2025      	movs	r0, #37	@ 0x25
100065d6:	990a      	ldr	r1, [sp, #40]	@ 0x28
100065d8:	9d0b      	ldr	r5, [sp, #44]	@ 0x2c
100065da:	47a8      	blx	r5
100065dc:	3401      	adds	r4, #1
100065de:	e674      	b.n	100062ca <_vsnprintf+0x4e>
100065e0:	9b0c      	ldr	r3, [sp, #48]	@ 0x30
100065e2:	3304      	adds	r3, #4
100065e4:	469b      	mov	fp, r3
100065e6:	1c63      	adds	r3, r4, #1
100065e8:	4698      	mov	r8, r3
100065ea:	07b6      	lsls	r6, r6, #30
100065ec:	d400      	bmi.n	100065f0 <_vsnprintf+0x374>
100065ee:	e0ff      	b.n	100067f0 <_vsnprintf+0x574>
100065f0:	9b0c      	ldr	r3, [sp, #48]	@ 0x30
100065f2:	0022      	movs	r2, r4
100065f4:	7818      	ldrb	r0, [r3, #0]
100065f6:	990a      	ldr	r1, [sp, #40]	@ 0x28
100065f8:	4653      	mov	r3, sl
100065fa:	9e0b      	ldr	r6, [sp, #44]	@ 0x2c
100065fc:	47b0      	blx	r6
100065fe:	1964      	adds	r4, r4, r5
10006600:	2d01      	cmp	r5, #1
10006602:	d800      	bhi.n	10006606 <_vsnprintf+0x38a>
10006604:	e249      	b.n	10006a9a <_vsnprintf+0x81e>
10006606:	4645      	mov	r5, r8
10006608:	9e0b      	ldr	r6, [sp, #44]	@ 0x2c
1000660a:	46b8      	mov	r8, r7
1000660c:	9f0a      	ldr	r7, [sp, #40]	@ 0x28
1000660e:	002a      	movs	r2, r5
10006610:	4653      	mov	r3, sl
10006612:	3501      	adds	r5, #1
10006614:	0039      	movs	r1, r7
10006616:	2020      	movs	r0, #32
10006618:	47b0      	blx	r6
1000661a:	42a5      	cmp	r5, r4
1000661c:	d1f7      	bne.n	1000660e <_vsnprintf+0x392>
1000661e:	4647      	mov	r7, r8
10006620:	e772      	b.n	10006508 <_vsnprintf+0x28c>
10006622:	4bdb      	ldr	r3, [pc, #876]	@ (10006990 <_vsnprintf+0x714>)
10006624:	7838      	ldrb	r0, [r7, #0]
10006626:	930b      	str	r3, [sp, #44]	@ 0x2c
10006628:	2300      	movs	r3, #0
1000662a:	4699      	mov	r9, r3
1000662c:	2800      	cmp	r0, #0
1000662e:	d000      	beq.n	10006632 <_vsnprintf+0x3b6>
10006630:	e63d      	b.n	100062ae <_vsnprintf+0x32>
10006632:	2400      	movs	r4, #0
10006634:	e6c6      	b.n	100063c4 <_vsnprintf+0x148>
10006636:	286f      	cmp	r0, #111	@ 0x6f
10006638:	d055      	beq.n	100066e6 <_vsnprintf+0x46a>
1000663a:	d800      	bhi.n	1000663e <_vsnprintf+0x3c2>
1000663c:	e2bc      	b.n	10006bb8 <_vsnprintf+0x93c>
1000663e:	2310      	movs	r3, #16
10006640:	2878      	cmp	r0, #120	@ 0x78
10006642:	d100      	bne.n	10006646 <_vsnprintf+0x3ca>
10006644:	e09e      	b.n	10006784 <_vsnprintf+0x508>
10006646:	439e      	bics	r6, r3
10006648:	230a      	movs	r3, #10
1000664a:	469c      	mov	ip, r3
1000664c:	2300      	movs	r3, #0
1000664e:	930f      	str	r3, [sp, #60]	@ 0x3c
10006650:	330a      	adds	r3, #10
10006652:	469b      	mov	fp, r3
10006654:	e04d      	b.n	100066f2 <_vsnprintf+0x476>
10006656:	2100      	movs	r1, #0
10006658:	008a      	lsls	r2, r1, #2
1000665a:	1852      	adds	r2, r2, r1
1000665c:	0052      	lsls	r2, r2, #1
1000665e:	3301      	adds	r3, #1
10006660:	1811      	adds	r1, r2, r0
10006662:	7818      	ldrb	r0, [r3, #0]
10006664:	3930      	subs	r1, #48	@ 0x30
10006666:	0002      	movs	r2, r0
10006668:	3a30      	subs	r2, #48	@ 0x30
1000666a:	2a09      	cmp	r2, #9
1000666c:	d9f4      	bls.n	10006658 <_vsnprintf+0x3dc>
1000666e:	910d      	str	r1, [sp, #52]	@ 0x34
10006670:	001f      	movs	r7, r3
10006672:	1c59      	adds	r1, r3, #1
10006674:	e650      	b.n	10006318 <_vsnprintf+0x9c>
10006676:	9b0c      	ldr	r3, [sp, #48]	@ 0x30
10006678:	78b8      	ldrb	r0, [r7, #2]
1000667a:	cb04      	ldmia	r3!, {r2}
1000667c:	3702      	adds	r7, #2
1000667e:	43d1      	mvns	r1, r2
10006680:	17c9      	asrs	r1, r1, #31
10006682:	400a      	ands	r2, r1
10006684:	920d      	str	r2, [sp, #52]	@ 0x34
10006686:	930c      	str	r3, [sp, #48]	@ 0x30
10006688:	1c79      	adds	r1, r7, #1
1000668a:	e645      	b.n	10006318 <_vsnprintf+0x9c>
1000668c:	2310      	movs	r3, #16
1000668e:	0030      	movs	r0, r6
10006690:	4398      	bics	r0, r3
10006692:	3311      	adds	r3, #17
10006694:	4318      	orrs	r0, r3
10006696:	2380      	movs	r3, #128	@ 0x80
10006698:	4680      	mov	r8, r0
1000669a:	0030      	movs	r0, r6
1000669c:	00db      	lsls	r3, r3, #3
1000669e:	4018      	ands	r0, r3
100066a0:	421e      	tst	r6, r3
100066a2:	d100      	bne.n	100066a6 <_vsnprintf+0x42a>
100066a4:	e6c0      	b.n	10006428 <_vsnprintf+0x1ac>
100066a6:	4643      	mov	r3, r8
100066a8:	9306      	str	r3, [sp, #24]
100066aa:	2308      	movs	r3, #8
100066ac:	9305      	str	r3, [sp, #20]
100066ae:	9b0d      	ldr	r3, [sp, #52]	@ 0x34
100066b0:	0022      	movs	r2, r4
100066b2:	9304      	str	r3, [sp, #16]
100066b4:	2310      	movs	r3, #16
100066b6:	9303      	str	r3, [sp, #12]
100066b8:	2300      	movs	r3, #0
100066ba:	9302      	str	r3, [sp, #8]
100066bc:	465b      	mov	r3, fp
100066be:	9301      	str	r3, [sp, #4]
100066c0:	ab1a      	add	r3, sp, #104	@ 0x68
100066c2:	9300      	str	r3, [sp, #0]
100066c4:	990a      	ldr	r1, [sp, #40]	@ 0x28
100066c6:	4653      	mov	r3, sl
100066c8:	980b      	ldr	r0, [sp, #44]	@ 0x2c
100066ca:	f7fe fff1 	bl	100056b0 <_ntoa_format>
100066ce:	950c      	str	r5, [sp, #48]	@ 0x30
100066d0:	0004      	movs	r4, r0
100066d2:	e5fa      	b.n	100062ca <_vsnprintf+0x4e>
100066d4:	3901      	subs	r1, #1
100066d6:	e6d4      	b.n	10006482 <_vsnprintf+0x206>
100066d8:	2380      	movs	r3, #128	@ 0x80
100066da:	011b      	lsls	r3, r3, #4
100066dc:	431e      	orrs	r6, r3
100066de:	e73e      	b.n	1000655e <_vsnprintf+0x2e2>
100066e0:	2320      	movs	r3, #32
100066e2:	431e      	orrs	r6, r3
100066e4:	e753      	b.n	1000658e <_vsnprintf+0x312>
100066e6:	2308      	movs	r3, #8
100066e8:	469c      	mov	ip, r3
100066ea:	2300      	movs	r3, #0
100066ec:	930f      	str	r3, [sp, #60]	@ 0x3c
100066ee:	3308      	adds	r3, #8
100066f0:	469b      	mov	fp, r3
100066f2:	2380      	movs	r3, #128	@ 0x80
100066f4:	0030      	movs	r0, r6
100066f6:	00db      	lsls	r3, r3, #3
100066f8:	4018      	ands	r0, r3
100066fa:	421e      	tst	r6, r3
100066fc:	d100      	bne.n	10006700 <_vsnprintf+0x484>
100066fe:	e11a      	b.n	10006936 <_vsnprintf+0x6ba>
10006700:	230d      	movs	r3, #13
10006702:	0031      	movs	r1, r6
10006704:	4399      	bics	r1, r3
10006706:	2380      	movs	r3, #128	@ 0x80
10006708:	000a      	movs	r2, r1
1000670a:	009b      	lsls	r3, r3, #2
1000670c:	401a      	ands	r2, r3
1000670e:	4691      	mov	r9, r2
10006710:	4219      	tst	r1, r3
10006712:	d000      	beq.n	10006716 <_vsnprintf+0x49a>
10006714:	e1c3      	b.n	10006a9e <_vsnprintf+0x822>
10006716:	2380      	movs	r3, #128	@ 0x80
10006718:	000a      	movs	r2, r1
1000671a:	005b      	lsls	r3, r3, #1
1000671c:	401a      	ands	r2, r3
1000671e:	4690      	mov	r8, r2
10006720:	9a0c      	ldr	r2, [sp, #48]	@ 0x30
10006722:	3204      	adds	r2, #4
10006724:	920f      	str	r2, [sp, #60]	@ 0x3c
10006726:	4219      	tst	r1, r3
10006728:	d000      	beq.n	1000672c <_vsnprintf+0x4b0>
1000672a:	e28f      	b.n	10006c4c <_vsnprintf+0x9d0>
1000672c:	064b      	lsls	r3, r1, #25
1000672e:	d500      	bpl.n	10006732 <_vsnprintf+0x4b6>
10006730:	e197      	b.n	10006a62 <_vsnprintf+0x7e6>
10006732:	060b      	lsls	r3, r1, #24
10006734:	d400      	bmi.n	10006738 <_vsnprintf+0x4bc>
10006736:	e2e5      	b.n	10006d04 <_vsnprintf+0xa88>
10006738:	9b0c      	ldr	r3, [sp, #48]	@ 0x30
1000673a:	881b      	ldrh	r3, [r3, #0]
1000673c:	4699      	mov	r9, r3
1000673e:	464b      	mov	r3, r9
10006740:	2b00      	cmp	r3, #0
10006742:	d000      	beq.n	10006746 <_vsnprintf+0x4ca>
10006744:	e205      	b.n	10006b52 <_vsnprintf+0x8d6>
10006746:	3310      	adds	r3, #16
10006748:	4399      	bics	r1, r3
1000674a:	2800      	cmp	r0, #0
1000674c:	d100      	bne.n	10006750 <_vsnprintf+0x4d4>
1000674e:	e200      	b.n	10006b52 <_vsnprintf+0x8d6>
10006750:	2300      	movs	r3, #0
10006752:	4698      	mov	r8, r3
10006754:	9b0d      	ldr	r3, [sp, #52]	@ 0x34
10006756:	9106      	str	r1, [sp, #24]
10006758:	9304      	str	r3, [sp, #16]
1000675a:	465b      	mov	r3, fp
1000675c:	9303      	str	r3, [sp, #12]
1000675e:	2300      	movs	r3, #0
10006760:	9505      	str	r5, [sp, #20]
10006762:	9302      	str	r3, [sp, #8]
10006764:	4643      	mov	r3, r8
10006766:	e0d9      	b.n	1000691c <_vsnprintf+0x6a0>
10006768:	2858      	cmp	r0, #88	@ 0x58
1000676a:	d008      	beq.n	1000677e <_vsnprintf+0x502>
1000676c:	2862      	cmp	r0, #98	@ 0x62
1000676e:	d178      	bne.n	10006862 <_vsnprintf+0x5e6>
10006770:	2302      	movs	r3, #2
10006772:	469c      	mov	ip, r3
10006774:	2300      	movs	r3, #0
10006776:	930f      	str	r3, [sp, #60]	@ 0x3c
10006778:	3302      	adds	r3, #2
1000677a:	469b      	mov	fp, r3
1000677c:	e7b9      	b.n	100066f2 <_vsnprintf+0x476>
1000677e:	2320      	movs	r3, #32
10006780:	431e      	orrs	r6, r3
10006782:	3b10      	subs	r3, #16
10006784:	469c      	mov	ip, r3
10006786:	2300      	movs	r3, #0
10006788:	930f      	str	r3, [sp, #60]	@ 0x3c
1000678a:	3310      	adds	r3, #16
1000678c:	469b      	mov	fp, r3
1000678e:	e7b0      	b.n	100066f2 <_vsnprintf+0x476>
10006790:	2302      	movs	r3, #2
10006792:	001a      	movs	r2, r3
10006794:	4032      	ands	r2, r6
10006796:	920c      	str	r2, [sp, #48]	@ 0x30
10006798:	4233      	tst	r3, r6
1000679a:	d100      	bne.n	1000679e <_vsnprintf+0x522>
1000679c:	e205      	b.n	10006baa <_vsnprintf+0x92e>
1000679e:	930c      	str	r3, [sp, #48]	@ 0x30
100067a0:	4643      	mov	r3, r8
100067a2:	46b9      	mov	r9, r7
100067a4:	9e0b      	ldr	r6, [sp, #44]	@ 0x2c
100067a6:	9f0a      	ldr	r7, [sp, #40]	@ 0x28
100067a8:	46a8      	mov	r8, r5
100067aa:	1b1d      	subs	r5, r3, r4
100067ac:	0022      	movs	r2, r4
100067ae:	4653      	mov	r3, sl
100067b0:	0039      	movs	r1, r7
100067b2:	3401      	adds	r4, #1
100067b4:	47b0      	blx	r6
100067b6:	5d28      	ldrb	r0, [r5, r4]
100067b8:	2800      	cmp	r0, #0
100067ba:	d1f7      	bne.n	100067ac <_vsnprintf+0x530>
100067bc:	4645      	mov	r5, r8
100067be:	464f      	mov	r7, r9
100067c0:	e69e      	b.n	10006500 <_vsnprintf+0x284>
100067c2:	2380      	movs	r3, #128	@ 0x80
100067c4:	011b      	lsls	r3, r3, #4
100067c6:	431e      	orrs	r6, r3
100067c8:	2320      	movs	r3, #32
100067ca:	431e      	orrs	r6, r3
100067cc:	e6c7      	b.n	1000655e <_vsnprintf+0x2e2>
100067ce:	4662      	mov	r2, ip
100067d0:	920d      	str	r2, [sp, #52]	@ 0x34
100067d2:	4642      	mov	r2, r8
100067d4:	1a9b      	subs	r3, r3, r2
100067d6:	930f      	str	r3, [sp, #60]	@ 0x3c
100067d8:	e66a      	b.n	100064b0 <_vsnprintf+0x234>
100067da:	23c0      	movs	r3, #192	@ 0xc0
100067dc:	009b      	lsls	r3, r3, #2
100067de:	78b8      	ldrb	r0, [r7, #2]
100067e0:	431e      	orrs	r6, r3
100067e2:	1cf9      	adds	r1, r7, #3
100067e4:	e5b9      	b.n	1000635a <_vsnprintf+0xde>
100067e6:	23c0      	movs	r3, #192	@ 0xc0
100067e8:	78b8      	ldrb	r0, [r7, #2]
100067ea:	431e      	orrs	r6, r3
100067ec:	1cf9      	adds	r1, r7, #3
100067ee:	e5b4      	b.n	1000635a <_vsnprintf+0xde>
100067f0:	2d01      	cmp	r5, #1
100067f2:	d800      	bhi.n	100067f6 <_vsnprintf+0x57a>
100067f4:	e14a      	b.n	10006a8c <_vsnprintf+0x810>
100067f6:	1e63      	subs	r3, r4, #1
100067f8:	4699      	mov	r9, r3
100067fa:	44a9      	add	r9, r5
100067fc:	464b      	mov	r3, r9
100067fe:	4652      	mov	r2, sl
10006800:	0026      	movs	r6, r4
10006802:	46a1      	mov	r9, r4
10006804:	46ba      	mov	sl, r7
10006806:	001c      	movs	r4, r3
10006808:	0017      	movs	r7, r2
1000680a:	46a8      	mov	r8, r5
1000680c:	9d0b      	ldr	r5, [sp, #44]	@ 0x2c
1000680e:	0032      	movs	r2, r6
10006810:	003b      	movs	r3, r7
10006812:	3601      	adds	r6, #1
10006814:	2020      	movs	r0, #32
10006816:	990a      	ldr	r1, [sp, #40]	@ 0x28
10006818:	47a8      	blx	r5
1000681a:	42a6      	cmp	r6, r4
1000681c:	d1f7      	bne.n	1000680e <_vsnprintf+0x592>
1000681e:	003b      	movs	r3, r7
10006820:	4657      	mov	r7, sl
10006822:	469a      	mov	sl, r3
10006824:	464c      	mov	r4, r9
10006826:	9b0c      	ldr	r3, [sp, #48]	@ 0x30
10006828:	0032      	movs	r2, r6
1000682a:	7818      	ldrb	r0, [r3, #0]
1000682c:	990a      	ldr	r1, [sp, #40]	@ 0x28
1000682e:	4653      	mov	r3, sl
10006830:	9d0b      	ldr	r5, [sp, #44]	@ 0x2c
10006832:	4444      	add	r4, r8
10006834:	47a8      	blx	r5
10006836:	e667      	b.n	10006508 <_vsnprintf+0x28c>
10006838:	46a0      	mov	r8, r4
1000683a:	9b0f      	ldr	r3, [sp, #60]	@ 0x3c
1000683c:	429d      	cmp	r5, r3
1000683e:	d800      	bhi.n	10006842 <_vsnprintf+0x5c6>
10006840:	e662      	b.n	10006508 <_vsnprintf+0x28c>
10006842:	192c      	adds	r4, r5, r4
10006844:	9e0b      	ldr	r6, [sp, #44]	@ 0x2c
10006846:	4645      	mov	r5, r8
10006848:	46b8      	mov	r8, r7
1000684a:	9f0a      	ldr	r7, [sp, #40]	@ 0x28
1000684c:	1ae4      	subs	r4, r4, r3
1000684e:	002a      	movs	r2, r5
10006850:	4653      	mov	r3, sl
10006852:	3501      	adds	r5, #1
10006854:	0039      	movs	r1, r7
10006856:	2020      	movs	r0, #32
10006858:	47b0      	blx	r6
1000685a:	42a5      	cmp	r5, r4
1000685c:	d1f7      	bne.n	1000684e <_vsnprintf+0x5d2>
1000685e:	4647      	mov	r7, r8
10006860:	e652      	b.n	10006508 <_vsnprintf+0x28c>
10006862:	2380      	movs	r3, #128	@ 0x80
10006864:	0032      	movs	r2, r6
10006866:	00db      	lsls	r3, r3, #3
10006868:	401a      	ands	r2, r3
1000686a:	4690      	mov	r8, r2
1000686c:	421e      	tst	r6, r3
1000686e:	d100      	bne.n	10006872 <_vsnprintf+0x5f6>
10006870:	e0f3      	b.n	10006a5a <_vsnprintf+0x7de>
10006872:	2111      	movs	r1, #17
10006874:	438e      	bics	r6, r1
10006876:	46b4      	mov	ip, r6
10006878:	4698      	mov	r8, r3
1000687a:	2380      	movs	r3, #128	@ 0x80
1000687c:	4662      	mov	r2, ip
1000687e:	009b      	lsls	r3, r3, #2
10006880:	401a      	ands	r2, r3
10006882:	4693      	mov	fp, r2
10006884:	4662      	mov	r2, ip
10006886:	421a      	tst	r2, r3
10006888:	d159      	bne.n	1000693e <_vsnprintf+0x6c2>
1000688a:	2380      	movs	r3, #128	@ 0x80
1000688c:	005b      	lsls	r3, r3, #1
1000688e:	401a      	ands	r2, r3
10006890:	4691      	mov	r9, r2
10006892:	9a0c      	ldr	r2, [sp, #48]	@ 0x30
10006894:	3204      	adds	r2, #4
10006896:	920f      	str	r2, [sp, #60]	@ 0x3c
10006898:	4662      	mov	r2, ip
1000689a:	421a      	tst	r2, r3
1000689c:	d000      	beq.n	100068a0 <_vsnprintf+0x624>
1000689e:	e1a0      	b.n	10006be2 <_vsnprintf+0x966>
100068a0:	4663      	mov	r3, ip
100068a2:	065b      	lsls	r3, r3, #25
100068a4:	d500      	bpl.n	100068a8 <_vsnprintf+0x62c>
100068a6:	e0d4      	b.n	10006a52 <_vsnprintf+0x7d6>
100068a8:	4663      	mov	r3, ip
100068aa:	061b      	lsls	r3, r3, #24
100068ac:	d400      	bmi.n	100068b0 <_vsnprintf+0x634>
100068ae:	e212      	b.n	10006cd6 <_vsnprintf+0xa5a>
100068b0:	9b0c      	ldr	r3, [sp, #48]	@ 0x30
100068b2:	2200      	movs	r2, #0
100068b4:	5e9b      	ldrsh	r3, [r3, r2]
100068b6:	17d8      	asrs	r0, r3, #31
100068b8:	1819      	adds	r1, r3, r0
100068ba:	4041      	eors	r1, r0
100068bc:	b289      	uxth	r1, r1
100068be:	0fda      	lsrs	r2, r3, #31
100068c0:	920c      	str	r2, [sp, #48]	@ 0x30
100068c2:	2b00      	cmp	r3, #0
100068c4:	d100      	bne.n	100068c8 <_vsnprintf+0x64c>
100068c6:	e187      	b.n	10006bd8 <_vsnprintf+0x95c>
100068c8:	4688      	mov	r8, r1
100068ca:	261f      	movs	r6, #31
100068cc:	ab12      	add	r3, sp, #72	@ 0x48
100068ce:	46bb      	mov	fp, r7
100068d0:	9514      	str	r5, [sp, #80]	@ 0x50
100068d2:	18f7      	adds	r7, r6, r3
100068d4:	4645      	mov	r5, r8
100068d6:	464e      	mov	r6, r9
100068d8:	46e0      	mov	r8, ip
100068da:	46a1      	mov	r9, r4
100068dc:	e006      	b.n	100068ec <_vsnprintf+0x670>
100068de:	0028      	movs	r0, r5
100068e0:	210a      	movs	r1, #10
100068e2:	f7fd ffa1 	bl	10004828 <__wrap___aeabi_uidiv>
100068e6:	0005      	movs	r5, r0
100068e8:	2e20      	cmp	r6, #32
100068ea:	d008      	beq.n	100068fe <_vsnprintf+0x682>
100068ec:	210a      	movs	r1, #10
100068ee:	0028      	movs	r0, r5
100068f0:	f7fd ff9a 	bl	10004828 <__wrap___aeabi_uidiv>
100068f4:	3601      	adds	r6, #1
100068f6:	3130      	adds	r1, #48	@ 0x30
100068f8:	55b9      	strb	r1, [r7, r6]
100068fa:	2d09      	cmp	r5, #9
100068fc:	d8ef      	bhi.n	100068de <_vsnprintf+0x662>
100068fe:	464c      	mov	r4, r9
10006900:	46c4      	mov	ip, r8
10006902:	46b1      	mov	r9, r6
10006904:	465f      	mov	r7, fp
10006906:	9d14      	ldr	r5, [sp, #80]	@ 0x50
10006908:	4663      	mov	r3, ip
1000690a:	9306      	str	r3, [sp, #24]
1000690c:	9b0d      	ldr	r3, [sp, #52]	@ 0x34
1000690e:	9505      	str	r5, [sp, #20]
10006910:	9304      	str	r3, [sp, #16]
10006912:	230a      	movs	r3, #10
10006914:	9303      	str	r3, [sp, #12]
10006916:	9b0c      	ldr	r3, [sp, #48]	@ 0x30
10006918:	9302      	str	r3, [sp, #8]
1000691a:	464b      	mov	r3, r9
1000691c:	9301      	str	r3, [sp, #4]
1000691e:	ab1a      	add	r3, sp, #104	@ 0x68
10006920:	0022      	movs	r2, r4
10006922:	9300      	str	r3, [sp, #0]
10006924:	990a      	ldr	r1, [sp, #40]	@ 0x28
10006926:	4653      	mov	r3, sl
10006928:	980b      	ldr	r0, [sp, #44]	@ 0x2c
1000692a:	f7fe fec1 	bl	100056b0 <_ntoa_format>
1000692e:	9b0f      	ldr	r3, [sp, #60]	@ 0x3c
10006930:	0004      	movs	r4, r0
10006932:	930c      	str	r3, [sp, #48]	@ 0x30
10006934:	e4c9      	b.n	100062ca <_vsnprintf+0x4e>
10006936:	230c      	movs	r3, #12
10006938:	0031      	movs	r1, r6
1000693a:	4399      	bics	r1, r3
1000693c:	e6e3      	b.n	10006706 <_vsnprintf+0x48a>
1000693e:	2208      	movs	r2, #8
10006940:	2107      	movs	r1, #7
10006942:	4691      	mov	r9, r2
10006944:	9b0c      	ldr	r3, [sp, #48]	@ 0x30
10006946:	3307      	adds	r3, #7
10006948:	438b      	bics	r3, r1
1000694a:	4499      	add	r9, r3
1000694c:	464a      	mov	r2, r9
1000694e:	cb0a      	ldmia	r3, {r1, r3}
10006950:	0008      	movs	r0, r1
10006952:	920c      	str	r2, [sp, #48]	@ 0x30
10006954:	0fda      	lsrs	r2, r3, #31
10006956:	4693      	mov	fp, r2
10006958:	4318      	orrs	r0, r3
1000695a:	d000      	beq.n	1000695e <_vsnprintf+0x6e2>
1000695c:	e085      	b.n	10006a6a <_vsnprintf+0x7ee>
1000695e:	2300      	movs	r3, #0
10006960:	4699      	mov	r9, r3
10006962:	4643      	mov	r3, r8
10006964:	2b00      	cmp	r3, #0
10006966:	d12f      	bne.n	100069c8 <_vsnprintf+0x74c>
10006968:	2200      	movs	r2, #0
1000696a:	2300      	movs	r3, #0
1000696c:	9210      	str	r2, [sp, #64]	@ 0x40
1000696e:	9311      	str	r3, [sp, #68]	@ 0x44
10006970:	2300      	movs	r3, #0
10006972:	261f      	movs	r6, #31
10006974:	4699      	mov	r9, r3
10006976:	ab12      	add	r3, sp, #72	@ 0x48
10006978:	18f6      	adds	r6, r6, r3
1000697a:	465b      	mov	r3, fp
1000697c:	9514      	str	r5, [sp, #80]	@ 0x50
1000697e:	46bb      	mov	fp, r7
10006980:	46e0      	mov	r8, ip
10006982:	0037      	movs	r7, r6
10006984:	930f      	str	r3, [sp, #60]	@ 0x3c
10006986:	464e      	mov	r6, r9
10006988:	46a1      	mov	r9, r4
1000698a:	9c10      	ldr	r4, [sp, #64]	@ 0x40
1000698c:	9d11      	ldr	r5, [sp, #68]	@ 0x44
1000698e:	e005      	b.n	1000699c <_vsnprintf+0x720>
10006990:	10005605 	.word	0x10005605
10006994:	0004      	movs	r4, r0
10006996:	000d      	movs	r5, r1
10006998:	2e20      	cmp	r6, #32
1000699a:	d00c      	beq.n	100069b6 <_vsnprintf+0x73a>
1000699c:	220a      	movs	r2, #10
1000699e:	2300      	movs	r3, #0
100069a0:	0020      	movs	r0, r4
100069a2:	0029      	movs	r1, r5
100069a4:	f7fd ff7e 	bl	100048a4 <__wrap___aeabi_uldivmod>
100069a8:	3601      	adds	r6, #1
100069aa:	3230      	adds	r2, #48	@ 0x30
100069ac:	55ba      	strb	r2, [r7, r6]
100069ae:	2d00      	cmp	r5, #0
100069b0:	d1f0      	bne.n	10006994 <_vsnprintf+0x718>
100069b2:	2c09      	cmp	r4, #9
100069b4:	d8ee      	bhi.n	10006994 <_vsnprintf+0x718>
100069b6:	9b0f      	ldr	r3, [sp, #60]	@ 0x3c
100069b8:	9410      	str	r4, [sp, #64]	@ 0x40
100069ba:	9511      	str	r5, [sp, #68]	@ 0x44
100069bc:	465f      	mov	r7, fp
100069be:	464c      	mov	r4, r9
100069c0:	46c4      	mov	ip, r8
100069c2:	46b1      	mov	r9, r6
100069c4:	469b      	mov	fp, r3
100069c6:	9d14      	ldr	r5, [sp, #80]	@ 0x50
100069c8:	4663      	mov	r3, ip
100069ca:	9306      	str	r3, [sp, #24]
100069cc:	9b0d      	ldr	r3, [sp, #52]	@ 0x34
100069ce:	9505      	str	r5, [sp, #20]
100069d0:	9304      	str	r3, [sp, #16]
100069d2:	230a      	movs	r3, #10
100069d4:	9303      	str	r3, [sp, #12]
100069d6:	465b      	mov	r3, fp
100069d8:	9302      	str	r3, [sp, #8]
100069da:	464b      	mov	r3, r9
100069dc:	9301      	str	r3, [sp, #4]
100069de:	ab1a      	add	r3, sp, #104	@ 0x68
100069e0:	0022      	movs	r2, r4
100069e2:	9300      	str	r3, [sp, #0]
100069e4:	990a      	ldr	r1, [sp, #40]	@ 0x28
100069e6:	4653      	mov	r3, sl
100069e8:	980b      	ldr	r0, [sp, #44]	@ 0x2c
100069ea:	f7fe fe61 	bl	100056b0 <_ntoa_format>
100069ee:	0004      	movs	r4, r0
100069f0:	e46b      	b.n	100062ca <_vsnprintf+0x4e>
100069f2:	9b0f      	ldr	r3, [sp, #60]	@ 0x3c
100069f4:	429d      	cmp	r5, r3
100069f6:	d800      	bhi.n	100069fa <_vsnprintf+0x77e>
100069f8:	e196      	b.n	10006d28 <_vsnprintf+0xaac>
100069fa:	2380      	movs	r3, #128	@ 0x80
100069fc:	00db      	lsls	r3, r3, #3
100069fe:	930c      	str	r3, [sp, #48]	@ 0x30
10006a00:	9b0f      	ldr	r3, [sp, #60]	@ 0x3c
10006a02:	192e      	adds	r6, r5, r4
10006a04:	1af6      	subs	r6, r6, r3
10006a06:	4643      	mov	r3, r8
10006a08:	930f      	str	r3, [sp, #60]	@ 0x3c
10006a0a:	9b0d      	ldr	r3, [sp, #52]	@ 0x34
10006a0c:	46a8      	mov	r8, r5
10006a0e:	4699      	mov	r9, r3
10006a10:	4653      	mov	r3, sl
10006a12:	46ba      	mov	sl, r7
10006a14:	001f      	movs	r7, r3
10006a16:	9d0b      	ldr	r5, [sp, #44]	@ 0x2c
10006a18:	0022      	movs	r2, r4
10006a1a:	003b      	movs	r3, r7
10006a1c:	3401      	adds	r4, #1
10006a1e:	2020      	movs	r0, #32
10006a20:	990a      	ldr	r1, [sp, #40]	@ 0x28
10006a22:	47a8      	blx	r5
10006a24:	42b4      	cmp	r4, r6
10006a26:	d1f7      	bne.n	10006a18 <_vsnprintf+0x79c>
10006a28:	9b0f      	ldr	r3, [sp, #60]	@ 0x3c
10006a2a:	4645      	mov	r5, r8
10006a2c:	4698      	mov	r8, r3
10006a2e:	464b      	mov	r3, r9
10006a30:	930d      	str	r3, [sp, #52]	@ 0x34
10006a32:	003b      	movs	r3, r7
10006a34:	4657      	mov	r7, sl
10006a36:	469a      	mov	sl, r3
10006a38:	4643      	mov	r3, r8
10006a3a:	7818      	ldrb	r0, [r3, #0]
10006a3c:	2800      	cmp	r0, #0
10006a3e:	d100      	bne.n	10006a42 <_vsnprintf+0x7c6>
10006a40:	e562      	b.n	10006508 <_vsnprintf+0x28c>
10006a42:	1c6b      	adds	r3, r5, #1
10006a44:	930f      	str	r3, [sp, #60]	@ 0x3c
10006a46:	9b0c      	ldr	r3, [sp, #48]	@ 0x30
10006a48:	2b00      	cmp	r3, #0
10006a4a:	d100      	bne.n	10006a4e <_vsnprintf+0x7d2>
10006a4c:	e6a8      	b.n	100067a0 <_vsnprintf+0x524>
10006a4e:	2300      	movs	r3, #0
10006a50:	e53d      	b.n	100064ce <_vsnprintf+0x252>
10006a52:	9b0c      	ldr	r3, [sp, #48]	@ 0x30
10006a54:	781b      	ldrb	r3, [r3, #0]
10006a56:	0019      	movs	r1, r3
10006a58:	e731      	b.n	100068be <_vsnprintf+0x642>
10006a5a:	2310      	movs	r3, #16
10006a5c:	439e      	bics	r6, r3
10006a5e:	46b4      	mov	ip, r6
10006a60:	e70b      	b.n	1000687a <_vsnprintf+0x5fe>
10006a62:	9b0c      	ldr	r3, [sp, #48]	@ 0x30
10006a64:	781b      	ldrb	r3, [r3, #0]
10006a66:	4699      	mov	r9, r3
10006a68:	e669      	b.n	1000673e <_vsnprintf+0x4c2>
10006a6a:	17da      	asrs	r2, r3, #31
10006a6c:	9212      	str	r2, [sp, #72]	@ 0x48
10006a6e:	9213      	str	r2, [sp, #76]	@ 0x4c
10006a70:	404a      	eors	r2, r1
10006a72:	9210      	str	r2, [sp, #64]	@ 0x40
10006a74:	9812      	ldr	r0, [sp, #72]	@ 0x48
10006a76:	9913      	ldr	r1, [sp, #76]	@ 0x4c
10006a78:	000a      	movs	r2, r1
10006a7a:	405a      	eors	r2, r3
10006a7c:	9211      	str	r2, [sp, #68]	@ 0x44
10006a7e:	9a10      	ldr	r2, [sp, #64]	@ 0x40
10006a80:	9b11      	ldr	r3, [sp, #68]	@ 0x44
10006a82:	1a12      	subs	r2, r2, r0
10006a84:	418b      	sbcs	r3, r1
10006a86:	9210      	str	r2, [sp, #64]	@ 0x40
10006a88:	9311      	str	r3, [sp, #68]	@ 0x44
10006a8a:	e771      	b.n	10006970 <_vsnprintf+0x6f4>
10006a8c:	9b0c      	ldr	r3, [sp, #48]	@ 0x30
10006a8e:	0022      	movs	r2, r4
10006a90:	7818      	ldrb	r0, [r3, #0]
10006a92:	990a      	ldr	r1, [sp, #40]	@ 0x28
10006a94:	4653      	mov	r3, sl
10006a96:	9c0b      	ldr	r4, [sp, #44]	@ 0x2c
10006a98:	47a0      	blx	r4
10006a9a:	4644      	mov	r4, r8
10006a9c:	e534      	b.n	10006508 <_vsnprintf+0x28c>
10006a9e:	2208      	movs	r2, #8
10006aa0:	2607      	movs	r6, #7
10006aa2:	4690      	mov	r8, r2
10006aa4:	9b0c      	ldr	r3, [sp, #48]	@ 0x30
10006aa6:	3307      	adds	r3, #7
10006aa8:	43b3      	bics	r3, r6
10006aaa:	4498      	add	r8, r3
10006aac:	4642      	mov	r2, r8
10006aae:	920c      	str	r2, [sp, #48]	@ 0x30
10006ab0:	681a      	ldr	r2, [r3, #0]
10006ab2:	685b      	ldr	r3, [r3, #4]
10006ab4:	9214      	str	r2, [sp, #80]	@ 0x50
10006ab6:	9308      	str	r3, [sp, #32]
10006ab8:	0013      	movs	r3, r2
10006aba:	9a08      	ldr	r2, [sp, #32]
10006abc:	4313      	orrs	r3, r2
10006abe:	d105      	bne.n	10006acc <_vsnprintf+0x850>
10006ac0:	3310      	adds	r3, #16
10006ac2:	4399      	bics	r1, r3
10006ac4:	2300      	movs	r3, #0
10006ac6:	4698      	mov	r8, r3
10006ac8:	2800      	cmp	r0, #0
10006aca:	d138      	bne.n	10006b3e <_vsnprintf+0x8c2>
10006acc:	2061      	movs	r0, #97	@ 0x61
10006ace:	068b      	lsls	r3, r1, #26
10006ad0:	d500      	bpl.n	10006ad4 <_vsnprintf+0x858>
10006ad2:	2041      	movs	r0, #65	@ 0x41
10006ad4:	2300      	movs	r3, #0
10006ad6:	261f      	movs	r6, #31
10006ad8:	4698      	mov	r8, r3
10006ada:	465a      	mov	r2, fp
10006adc:	ab12      	add	r3, sp, #72	@ 0x48
10006ade:	18f6      	adds	r6, r6, r3
10006ae0:	0003      	movs	r3, r0
10006ae2:	9218      	str	r2, [sp, #96]	@ 0x60
10006ae4:	9a0f      	ldr	r2, [sp, #60]	@ 0x3c
10006ae6:	3b0a      	subs	r3, #10
10006ae8:	46b1      	mov	r9, r6
10006aea:	9516      	str	r5, [sp, #88]	@ 0x58
10006aec:	9417      	str	r4, [sp, #92]	@ 0x5c
10006aee:	9719      	str	r7, [sp, #100]	@ 0x64
10006af0:	4644      	mov	r4, r8
10006af2:	4666      	mov	r6, ip
10006af4:	4690      	mov	r8, r2
10006af6:	469b      	mov	fp, r3
10006af8:	9f14      	ldr	r7, [sp, #80]	@ 0x50
10006afa:	9d08      	ldr	r5, [sp, #32]
10006afc:	9115      	str	r1, [sp, #84]	@ 0x54
10006afe:	e003      	b.n	10006b08 <_vsnprintf+0x88c>
10006b00:	0007      	movs	r7, r0
10006b02:	000d      	movs	r5, r1
10006b04:	2c20      	cmp	r4, #32
10006b06:	d013      	beq.n	10006b30 <_vsnprintf+0x8b4>
10006b08:	0032      	movs	r2, r6
10006b0a:	2300      	movs	r3, #0
10006b0c:	0038      	movs	r0, r7
10006b0e:	0029      	movs	r1, r5
10006b10:	f7fd fec8 	bl	100048a4 <__wrap___aeabi_uldivmod>
10006b14:	465b      	mov	r3, fp
10006b16:	b2d2      	uxtb	r2, r2
10006b18:	18d3      	adds	r3, r2, r3
10006b1a:	2a09      	cmp	r2, #9
10006b1c:	d801      	bhi.n	10006b22 <_vsnprintf+0x8a6>
10006b1e:	0013      	movs	r3, r2
10006b20:	3330      	adds	r3, #48	@ 0x30
10006b22:	464a      	mov	r2, r9
10006b24:	3401      	adds	r4, #1
10006b26:	5513      	strb	r3, [r2, r4]
10006b28:	45a8      	cmp	r8, r5
10006b2a:	d1e9      	bne.n	10006b00 <_vsnprintf+0x884>
10006b2c:	42be      	cmp	r6, r7
10006b2e:	d9e7      	bls.n	10006b00 <_vsnprintf+0x884>
10006b30:	9b18      	ldr	r3, [sp, #96]	@ 0x60
10006b32:	46a0      	mov	r8, r4
10006b34:	469b      	mov	fp, r3
10006b36:	9915      	ldr	r1, [sp, #84]	@ 0x54
10006b38:	9d16      	ldr	r5, [sp, #88]	@ 0x58
10006b3a:	9c17      	ldr	r4, [sp, #92]	@ 0x5c
10006b3c:	9f19      	ldr	r7, [sp, #100]	@ 0x64
10006b3e:	9b0d      	ldr	r3, [sp, #52]	@ 0x34
10006b40:	9106      	str	r1, [sp, #24]
10006b42:	9304      	str	r3, [sp, #16]
10006b44:	465b      	mov	r3, fp
10006b46:	9303      	str	r3, [sp, #12]
10006b48:	2300      	movs	r3, #0
10006b4a:	9505      	str	r5, [sp, #20]
10006b4c:	9302      	str	r3, [sp, #8]
10006b4e:	4643      	mov	r3, r8
10006b50:	e744      	b.n	100069dc <_vsnprintf+0x760>
10006b52:	2061      	movs	r0, #97	@ 0x61
10006b54:	068b      	lsls	r3, r1, #26
10006b56:	d500      	bpl.n	10006b5a <_vsnprintf+0x8de>
10006b58:	2041      	movs	r0, #65	@ 0x41
10006b5a:	261f      	movs	r6, #31
10006b5c:	ab12      	add	r3, sp, #72	@ 0x48
10006b5e:	18f2      	adds	r2, r6, r3
10006b60:	0003      	movs	r3, r0
10006b62:	3b0a      	subs	r3, #10
10006b64:	930c      	str	r3, [sp, #48]	@ 0x30
10006b66:	464b      	mov	r3, r9
10006b68:	4646      	mov	r6, r8
10006b6a:	46a1      	mov	r9, r4
10006b6c:	46a8      	mov	r8, r5
10006b6e:	001c      	movs	r4, r3
10006b70:	465d      	mov	r5, fp
10006b72:	9114      	str	r1, [sp, #80]	@ 0x50
10006b74:	46bb      	mov	fp, r7
10006b76:	0017      	movs	r7, r2
10006b78:	e002      	b.n	10006b80 <_vsnprintf+0x904>
10006b7a:	0004      	movs	r4, r0
10006b7c:	2e20      	cmp	r6, #32
10006b7e:	d00d      	beq.n	10006b9c <_vsnprintf+0x920>
10006b80:	0029      	movs	r1, r5
10006b82:	0020      	movs	r0, r4
10006b84:	f7fd fe50 	bl	10004828 <__wrap___aeabi_uidiv>
10006b88:	9b0c      	ldr	r3, [sp, #48]	@ 0x30
10006b8a:	18cb      	adds	r3, r1, r3
10006b8c:	2909      	cmp	r1, #9
10006b8e:	d801      	bhi.n	10006b94 <_vsnprintf+0x918>
10006b90:	000b      	movs	r3, r1
10006b92:	3330      	adds	r3, #48	@ 0x30
10006b94:	3601      	adds	r6, #1
10006b96:	55bb      	strb	r3, [r7, r6]
10006b98:	42ac      	cmp	r4, r5
10006b9a:	d2ee      	bcs.n	10006b7a <_vsnprintf+0x8fe>
10006b9c:	465f      	mov	r7, fp
10006b9e:	464c      	mov	r4, r9
10006ba0:	46ab      	mov	fp, r5
10006ba2:	9914      	ldr	r1, [sp, #80]	@ 0x50
10006ba4:	4645      	mov	r5, r8
10006ba6:	46b0      	mov	r8, r6
10006ba8:	e5d4      	b.n	10006754 <_vsnprintf+0x4d8>
10006baa:	9b0f      	ldr	r3, [sp, #60]	@ 0x3c
10006bac:	429d      	cmp	r5, r3
10006bae:	d900      	bls.n	10006bb2 <_vsnprintf+0x936>
10006bb0:	e726      	b.n	10006a00 <_vsnprintf+0x784>
10006bb2:	3301      	adds	r3, #1
10006bb4:	930f      	str	r3, [sp, #60]	@ 0x3c
10006bb6:	e5f3      	b.n	100067a0 <_vsnprintf+0x524>
10006bb8:	2310      	movs	r3, #16
10006bba:	0032      	movs	r2, r6
10006bbc:	439a      	bics	r2, r3
10006bbe:	4694      	mov	ip, r2
10006bc0:	2869      	cmp	r0, #105	@ 0x69
10006bc2:	d000      	beq.n	10006bc6 <_vsnprintf+0x94a>
10006bc4:	e0a2      	b.n	10006d0c <_vsnprintf+0xa90>
10006bc6:	2380      	movs	r3, #128	@ 0x80
10006bc8:	0032      	movs	r2, r6
10006bca:	00db      	lsls	r3, r3, #3
10006bcc:	401a      	ands	r2, r3
10006bce:	4690      	mov	r8, r2
10006bd0:	421e      	tst	r6, r3
10006bd2:	d100      	bne.n	10006bd6 <_vsnprintf+0x95a>
10006bd4:	e651      	b.n	1000687a <_vsnprintf+0x5fe>
10006bd6:	e64c      	b.n	10006872 <_vsnprintf+0x5f6>
10006bd8:	4643      	mov	r3, r8
10006bda:	2b00      	cmp	r3, #0
10006bdc:	d000      	beq.n	10006be0 <_vsnprintf+0x964>
10006bde:	e693      	b.n	10006908 <_vsnprintf+0x68c>
10006be0:	e673      	b.n	100068ca <_vsnprintf+0x64e>
10006be2:	9b0c      	ldr	r3, [sp, #48]	@ 0x30
10006be4:	681b      	ldr	r3, [r3, #0]
10006be6:	0fda      	lsrs	r2, r3, #31
10006be8:	2b00      	cmp	r3, #0
10006bea:	d070      	beq.n	10006cce <_vsnprintf+0xa52>
10006bec:	17d9      	asrs	r1, r3, #31
10006bee:	185b      	adds	r3, r3, r1
10006bf0:	404b      	eors	r3, r1
10006bf2:	4698      	mov	r8, r3
10006bf4:	261f      	movs	r6, #31
10006bf6:	ab12      	add	r3, sp, #72	@ 0x48
10006bf8:	18f6      	adds	r6, r6, r3
10006bfa:	46a1      	mov	r9, r4
10006bfc:	9514      	str	r5, [sp, #80]	@ 0x50
10006bfe:	465c      	mov	r4, fp
10006c00:	4645      	mov	r5, r8
10006c02:	46bb      	mov	fp, r7
10006c04:	46e0      	mov	r8, ip
10006c06:	0037      	movs	r7, r6
10006c08:	920c      	str	r2, [sp, #48]	@ 0x30
10006c0a:	e006      	b.n	10006c1a <_vsnprintf+0x99e>
10006c0c:	0028      	movs	r0, r5
10006c0e:	210a      	movs	r1, #10
10006c10:	f7fd fe0a 	bl	10004828 <__wrap___aeabi_uidiv>
10006c14:	0005      	movs	r5, r0
10006c16:	2c20      	cmp	r4, #32
10006c18:	d008      	beq.n	10006c2c <_vsnprintf+0x9b0>
10006c1a:	210a      	movs	r1, #10
10006c1c:	0028      	movs	r0, r5
10006c1e:	f7fd fe03 	bl	10004828 <__wrap___aeabi_uidiv>
10006c22:	3401      	adds	r4, #1
10006c24:	3130      	adds	r1, #48	@ 0x30
10006c26:	5539      	strb	r1, [r7, r4]
10006c28:	2d09      	cmp	r5, #9
10006c2a:	d8ef      	bhi.n	10006c0c <_vsnprintf+0x990>
10006c2c:	465f      	mov	r7, fp
10006c2e:	46c4      	mov	ip, r8
10006c30:	46a3      	mov	fp, r4
10006c32:	464c      	mov	r4, r9
10006c34:	9d14      	ldr	r5, [sp, #80]	@ 0x50
10006c36:	9a0c      	ldr	r2, [sp, #48]	@ 0x30
10006c38:	4663      	mov	r3, ip
10006c3a:	9306      	str	r3, [sp, #24]
10006c3c:	9b0d      	ldr	r3, [sp, #52]	@ 0x34
10006c3e:	9505      	str	r5, [sp, #20]
10006c40:	9304      	str	r3, [sp, #16]
10006c42:	230a      	movs	r3, #10
10006c44:	9202      	str	r2, [sp, #8]
10006c46:	9303      	str	r3, [sp, #12]
10006c48:	465b      	mov	r3, fp
10006c4a:	e667      	b.n	1000691c <_vsnprintf+0x6a0>
10006c4c:	9b0c      	ldr	r3, [sp, #48]	@ 0x30
10006c4e:	681b      	ldr	r3, [r3, #0]
10006c50:	4698      	mov	r8, r3
10006c52:	2b00      	cmp	r3, #0
10006c54:	d103      	bne.n	10006c5e <_vsnprintf+0x9e2>
10006c56:	3310      	adds	r3, #16
10006c58:	4399      	bics	r1, r3
10006c5a:	2800      	cmp	r0, #0
10006c5c:	d12d      	bne.n	10006cba <_vsnprintf+0xa3e>
10006c5e:	2061      	movs	r0, #97	@ 0x61
10006c60:	068b      	lsls	r3, r1, #26
10006c62:	d500      	bpl.n	10006c66 <_vsnprintf+0x9ea>
10006c64:	2041      	movs	r0, #65	@ 0x41
10006c66:	261f      	movs	r6, #31
10006c68:	ab12      	add	r3, sp, #72	@ 0x48
10006c6a:	18f6      	adds	r6, r6, r3
10006c6c:	0003      	movs	r3, r0
10006c6e:	3b0a      	subs	r3, #10
10006c70:	464a      	mov	r2, r9
10006c72:	930c      	str	r3, [sp, #48]	@ 0x30
10006c74:	9114      	str	r1, [sp, #80]	@ 0x50
10006c76:	4643      	mov	r3, r8
10006c78:	0031      	movs	r1, r6
10006c7a:	46a8      	mov	r8, r5
10006c7c:	46a1      	mov	r9, r4
10006c7e:	465e      	mov	r6, fp
10006c80:	0014      	movs	r4, r2
10006c82:	46bb      	mov	fp, r7
10006c84:	001d      	movs	r5, r3
10006c86:	000f      	movs	r7, r1
10006c88:	e002      	b.n	10006c90 <_vsnprintf+0xa14>
10006c8a:	0005      	movs	r5, r0
10006c8c:	2c20      	cmp	r4, #32
10006c8e:	d00d      	beq.n	10006cac <_vsnprintf+0xa30>
10006c90:	0031      	movs	r1, r6
10006c92:	0028      	movs	r0, r5
10006c94:	f7fd fdc8 	bl	10004828 <__wrap___aeabi_uidiv>
10006c98:	9b0c      	ldr	r3, [sp, #48]	@ 0x30
10006c9a:	18cb      	adds	r3, r1, r3
10006c9c:	2909      	cmp	r1, #9
10006c9e:	d801      	bhi.n	10006ca4 <_vsnprintf+0xa28>
10006ca0:	000b      	movs	r3, r1
10006ca2:	3330      	adds	r3, #48	@ 0x30
10006ca4:	3401      	adds	r4, #1
10006ca6:	553b      	strb	r3, [r7, r4]
10006ca8:	42b5      	cmp	r5, r6
10006caa:	d2ee      	bcs.n	10006c8a <_vsnprintf+0xa0e>
10006cac:	0023      	movs	r3, r4
10006cae:	465f      	mov	r7, fp
10006cb0:	464c      	mov	r4, r9
10006cb2:	4645      	mov	r5, r8
10006cb4:	46b3      	mov	fp, r6
10006cb6:	4699      	mov	r9, r3
10006cb8:	9914      	ldr	r1, [sp, #80]	@ 0x50
10006cba:	9b0d      	ldr	r3, [sp, #52]	@ 0x34
10006cbc:	9106      	str	r1, [sp, #24]
10006cbe:	9304      	str	r3, [sp, #16]
10006cc0:	465b      	mov	r3, fp
10006cc2:	9303      	str	r3, [sp, #12]
10006cc4:	2300      	movs	r3, #0
10006cc6:	9505      	str	r5, [sp, #20]
10006cc8:	9302      	str	r3, [sp, #8]
10006cca:	464b      	mov	r3, r9
10006ccc:	e626      	b.n	1000691c <_vsnprintf+0x6a0>
10006cce:	4643      	mov	r3, r8
10006cd0:	2b00      	cmp	r3, #0
10006cd2:	d1b1      	bne.n	10006c38 <_vsnprintf+0x9bc>
10006cd4:	e78e      	b.n	10006bf4 <_vsnprintf+0x978>
10006cd6:	9b0c      	ldr	r3, [sp, #48]	@ 0x30
10006cd8:	681b      	ldr	r3, [r3, #0]
10006cda:	17d8      	asrs	r0, r3, #31
10006cdc:	1819      	adds	r1, r3, r0
10006cde:	4041      	eors	r1, r0
10006ce0:	e5ed      	b.n	100068be <_vsnprintf+0x642>
10006ce2:	2380      	movs	r3, #128	@ 0x80
10006ce4:	0032      	movs	r2, r6
10006ce6:	00db      	lsls	r3, r3, #3
10006ce8:	401a      	ands	r2, r3
10006cea:	920f      	str	r2, [sp, #60]	@ 0x3c
10006cec:	421e      	tst	r6, r3
10006cee:	d00f      	beq.n	10006d10 <_vsnprintf+0xa94>
10006cf0:	3002      	adds	r0, #2
10006cf2:	0002      	movs	r2, r0
10006cf4:	4032      	ands	r2, r6
10006cf6:	920f      	str	r2, [sp, #60]	@ 0x3c
10006cf8:	4230      	tst	r0, r6
10006cfa:	d019      	beq.n	10006d30 <_vsnprintf+0xab4>
10006cfc:	2300      	movs	r3, #0
10006cfe:	46a0      	mov	r8, r4
10006d00:	930f      	str	r3, [sp, #60]	@ 0x3c
10006d02:	e59a      	b.n	1000683a <_vsnprintf+0x5be>
10006d04:	9b0c      	ldr	r3, [sp, #48]	@ 0x30
10006d06:	681b      	ldr	r3, [r3, #0]
10006d08:	4699      	mov	r9, r3
10006d0a:	e518      	b.n	1000673e <_vsnprintf+0x4c2>
10006d0c:	0016      	movs	r6, r2
10006d0e:	e49b      	b.n	10006648 <_vsnprintf+0x3cc>
10006d10:	2302      	movs	r3, #2
10006d12:	001a      	movs	r2, r3
10006d14:	4032      	ands	r2, r6
10006d16:	920c      	str	r2, [sp, #48]	@ 0x30
10006d18:	4233      	tst	r3, r6
10006d1a:	d000      	beq.n	10006d1e <_vsnprintf+0xaa2>
10006d1c:	e58c      	b.n	10006838 <_vsnprintf+0x5bc>
10006d1e:	2d00      	cmp	r5, #0
10006d20:	d000      	beq.n	10006d24 <_vsnprintf+0xaa8>
10006d22:	e66d      	b.n	10006a00 <_vsnprintf+0x784>
10006d24:	f7ff fbf0 	bl	10006508 <_vsnprintf+0x28c>
10006d28:	3301      	adds	r3, #1
10006d2a:	930f      	str	r3, [sp, #60]	@ 0x3c
10006d2c:	f7ff fbd0 	bl	100064d0 <_vsnprintf+0x254>
10006d30:	930c      	str	r3, [sp, #48]	@ 0x30
10006d32:	e7f4      	b.n	10006d1e <_vsnprintf+0xaa2>

10006d34 <vfctprintf>:
10006d34:	b500      	push	{lr}
10006d36:	b085      	sub	sp, #20
10006d38:	9103      	str	r1, [sp, #12]
10006d3a:	2101      	movs	r1, #1
10006d3c:	9002      	str	r0, [sp, #8]
10006d3e:	9300      	str	r3, [sp, #0]
10006d40:	4803      	ldr	r0, [pc, #12]	@ (10006d50 <vfctprintf+0x1c>)
10006d42:	0013      	movs	r3, r2
10006d44:	424a      	negs	r2, r1
10006d46:	a902      	add	r1, sp, #8
10006d48:	f7ff fa98 	bl	1000627c <_vsnprintf>
10006d4c:	b005      	add	sp, #20
10006d4e:	bd00      	pop	{pc}
10006d50:	10005899 	.word	0x10005899

10006d54 <weak_raw_vprintf>:
10006d54:	b510      	push	{r4, lr}
10006d56:	4a09      	ldr	r2, [pc, #36]	@ (10006d7c <weak_raw_vprintf+0x28>)
10006d58:	0003      	movs	r3, r0
10006d5a:	6814      	ldr	r4, [r2, #0]
10006d5c:	b084      	sub	sp, #16
10006d5e:	2c00      	cmp	r4, #0
10006d60:	d008      	beq.n	10006d74 <weak_raw_vprintf+0x20>
10006d62:	2201      	movs	r2, #1
10006d64:	9100      	str	r1, [sp, #0]
10006d66:	4806      	ldr	r0, [pc, #24]	@ (10006d80 <weak_raw_vprintf+0x2c>)
10006d68:	4252      	negs	r2, r2
10006d6a:	a903      	add	r1, sp, #12
10006d6c:	47a0      	blx	r4
10006d6e:	2001      	movs	r0, #1
10006d70:	b004      	add	sp, #16
10006d72:	bd10      	pop	{r4, pc}
10006d74:	f000 f984 	bl	10007080 <__wrap_puts>
10006d78:	2000      	movs	r0, #0
10006d7a:	e7f9      	b.n	10006d70 <weak_raw_vprintf+0x1c>
10006d7c:	20005560 	.word	0x20005560
10006d80:	10005889 	.word	0x10005889

10006d84 <_exit>:
10006d84:	be00      	bkpt	0x0000
10006d86:	e7fd      	b.n	10006d84 <_exit>

10006d88 <exit>:
10006d88:	b510      	push	{r4, lr}
10006d8a:	f7ff fffb 	bl	10006d84 <_exit>
10006d8e:	46c0      	nop			@ (mov r8, r8)

10006d90 <runtime_init>:
10006d90:	b570      	push	{r4, r5, r6, lr}
10006d92:	f7fd fbe7 	bl	10004564 <runtime_run_initializers>
10006d96:	4d07      	ldr	r5, [pc, #28]	@ (10006db4 <runtime_init+0x24>)
10006d98:	4e07      	ldr	r6, [pc, #28]	@ (10006db8 <runtime_init+0x28>)
10006d9a:	42b5      	cmp	r5, r6
10006d9c:	d209      	bcs.n	10006db2 <runtime_init+0x22>
10006d9e:	2400      	movs	r4, #0
10006da0:	3e01      	subs	r6, #1
10006da2:	1b76      	subs	r6, r6, r5
10006da4:	08b6      	lsrs	r6, r6, #2
10006da6:	3601      	adds	r6, #1
10006da8:	cd08      	ldmia	r5!, {r3}
10006daa:	3401      	adds	r4, #1
10006dac:	4798      	blx	r3
10006dae:	42b4      	cmp	r4, r6
10006db0:	d1fa      	bne.n	10006da8 <runtime_init+0x18>
10006db2:	bd70      	pop	{r4, r5, r6, pc}
10006db4:	1000a55c 	.word	0x1000a55c
10006db8:	1000a564 	.word	0x1000a564

10006dbc <stdio_out_chars_no_crlf>:
10006dbc:	0003      	movs	r3, r0
10006dbe:	b510      	push	{r4, lr}
10006dc0:	0008      	movs	r0, r1
10006dc2:	0011      	movs	r1, r2
10006dc4:	681b      	ldr	r3, [r3, #0]
10006dc6:	4798      	blx	r3
10006dc8:	bd10      	pop	{r4, pc}
10006dca:	46c0      	nop			@ (mov r8, r8)

10006dcc <stdio_out_chars_crlf>:
10006dcc:	b5f8      	push	{r3, r4, r5, r6, r7, lr}
10006dce:	7d43      	ldrb	r3, [r0, #21]
10006dd0:	0007      	movs	r7, r0
10006dd2:	000d      	movs	r5, r1
10006dd4:	0016      	movs	r6, r2
10006dd6:	2b00      	cmp	r3, #0
10006dd8:	d038      	beq.n	10006e4c <stdio_out_chars_crlf+0x80>
10006dda:	2a00      	cmp	r2, #0
10006ddc:	dd1a      	ble.n	10006e14 <stdio_out_chars_crlf+0x48>
10006dde:	780b      	ldrb	r3, [r1, #0]
10006de0:	2b0a      	cmp	r3, #10
10006de2:	d018      	beq.n	10006e16 <stdio_out_chars_crlf+0x4a>
10006de4:	2000      	movs	r0, #0
10006de6:	2e01      	cmp	r6, #1
10006de8:	d009      	beq.n	10006dfe <stdio_out_chars_crlf+0x32>
10006dea:	2401      	movs	r4, #1
10006dec:	0021      	movs	r1, r4
10006dee:	5c6b      	ldrb	r3, [r5, r1]
10006df0:	3401      	adds	r4, #1
10006df2:	2b0a      	cmp	r3, #10
10006df4:	d01a      	beq.n	10006e2c <stdio_out_chars_crlf+0x60>
10006df6:	42b4      	cmp	r4, r6
10006df8:	d1f8      	bne.n	10006dec <stdio_out_chars_crlf+0x20>
10006dfa:	4286      	cmp	r6, r0
10006dfc:	dd03      	ble.n	10006e06 <stdio_out_chars_crlf+0x3a>
10006dfe:	1a31      	subs	r1, r6, r0
10006e00:	683b      	ldr	r3, [r7, #0]
10006e02:	1828      	adds	r0, r5, r0
10006e04:	4798      	blx	r3
10006e06:	19ad      	adds	r5, r5, r6
10006e08:	3d01      	subs	r5, #1
10006e0a:	782b      	ldrb	r3, [r5, #0]
10006e0c:	3b0d      	subs	r3, #13
10006e0e:	425a      	negs	r2, r3
10006e10:	4153      	adcs	r3, r2
10006e12:	753b      	strb	r3, [r7, #20]
10006e14:	bdf8      	pop	{r3, r4, r5, r6, r7, pc}
10006e16:	7d03      	ldrb	r3, [r0, #20]
10006e18:	2b00      	cmp	r3, #0
10006e1a:	d1e3      	bne.n	10006de4 <stdio_out_chars_crlf+0x18>
10006e1c:	2102      	movs	r1, #2
10006e1e:	480e      	ldr	r0, [pc, #56]	@ (10006e58 <stdio_out_chars_crlf+0x8c>)
10006e20:	683b      	ldr	r3, [r7, #0]
10006e22:	4798      	blx	r3
10006e24:	2e01      	cmp	r6, #1
10006e26:	d0ee      	beq.n	10006e06 <stdio_out_chars_crlf+0x3a>
10006e28:	2001      	movs	r0, #1
10006e2a:	e7de      	b.n	10006dea <stdio_out_chars_crlf+0x1e>
10006e2c:	1e6b      	subs	r3, r5, #1
10006e2e:	5c5b      	ldrb	r3, [r3, r1]
10006e30:	2b0d      	cmp	r3, #13
10006e32:	d0e0      	beq.n	10006df6 <stdio_out_chars_crlf+0x2a>
10006e34:	4288      	cmp	r0, r1
10006e36:	da03      	bge.n	10006e40 <stdio_out_chars_crlf+0x74>
10006e38:	1a09      	subs	r1, r1, r0
10006e3a:	683b      	ldr	r3, [r7, #0]
10006e3c:	1828      	adds	r0, r5, r0
10006e3e:	4798      	blx	r3
10006e40:	4805      	ldr	r0, [pc, #20]	@ (10006e58 <stdio_out_chars_crlf+0x8c>)
10006e42:	2102      	movs	r1, #2
10006e44:	683b      	ldr	r3, [r7, #0]
10006e46:	4798      	blx	r3
10006e48:	0020      	movs	r0, r4
10006e4a:	e7d4      	b.n	10006df6 <stdio_out_chars_crlf+0x2a>
10006e4c:	6803      	ldr	r3, [r0, #0]
10006e4e:	0011      	movs	r1, r2
10006e50:	0028      	movs	r0, r5
10006e52:	4798      	blx	r3
10006e54:	e7de      	b.n	10006e14 <stdio_out_chars_crlf+0x48>
10006e56:	46c0      	nop			@ (mov r8, r8)
10006e58:	1000b710 	.word	0x1000b710

10006e5c <stdio_buffered_printer>:
10006e5c:	b5f0      	push	{r4, r5, r6, r7, lr}
10006e5e:	46c6      	mov	lr, r8
10006e60:	680b      	ldr	r3, [r1, #0]
10006e62:	0007      	movs	r7, r0
10006e64:	000d      	movs	r5, r1
10006e66:	b500      	push	{lr}
10006e68:	2b80      	cmp	r3, #128	@ 0x80
10006e6a:	d006      	beq.n	10006e7a <stdio_buffered_printer+0x1e>
10006e6c:	1c5a      	adds	r2, r3, #1
10006e6e:	602a      	str	r2, [r5, #0]
10006e70:	18ed      	adds	r5, r5, r3
10006e72:	712f      	strb	r7, [r5, #4]
10006e74:	bc80      	pop	{r7}
10006e76:	46b8      	mov	r8, r7
10006e78:	bdf0      	pop	{r4, r5, r6, r7, pc}
10006e7a:	4b0f      	ldr	r3, [pc, #60]	@ (10006eb8 <stdio_buffered_printer+0x5c>)
10006e7c:	681c      	ldr	r4, [r3, #0]
10006e7e:	2c00      	cmp	r4, #0
10006e80:	d016      	beq.n	10006eb0 <stdio_buffered_printer+0x54>
10006e82:	1d0b      	adds	r3, r1, #4
10006e84:	4698      	mov	r8, r3
10006e86:	4e0d      	ldr	r6, [pc, #52]	@ (10006ebc <stdio_buffered_printer+0x60>)
10006e88:	e002      	b.n	10006e90 <stdio_buffered_printer+0x34>
10006e8a:	6924      	ldr	r4, [r4, #16]
10006e8c:	2c00      	cmp	r4, #0
10006e8e:	d00f      	beq.n	10006eb0 <stdio_buffered_printer+0x54>
10006e90:	6823      	ldr	r3, [r4, #0]
10006e92:	2b00      	cmp	r3, #0
10006e94:	d0f9      	beq.n	10006e8a <stdio_buffered_printer+0x2e>
10006e96:	6833      	ldr	r3, [r6, #0]
10006e98:	2b00      	cmp	r3, #0
10006e9a:	d001      	beq.n	10006ea0 <stdio_buffered_printer+0x44>
10006e9c:	42a3      	cmp	r3, r4
10006e9e:	d1f4      	bne.n	10006e8a <stdio_buffered_printer+0x2e>
10006ea0:	0020      	movs	r0, r4
10006ea2:	4641      	mov	r1, r8
10006ea4:	682a      	ldr	r2, [r5, #0]
10006ea6:	f7ff ff91 	bl	10006dcc <stdio_out_chars_crlf>
10006eaa:	6924      	ldr	r4, [r4, #16]
10006eac:	2c00      	cmp	r4, #0
10006eae:	d1ef      	bne.n	10006e90 <stdio_buffered_printer+0x34>
10006eb0:	2201      	movs	r2, #1
10006eb2:	2300      	movs	r3, #0
10006eb4:	e7db      	b.n	10006e6e <stdio_buffered_printer+0x12>
10006eb6:	46c0      	nop			@ (mov r8, r8)
10006eb8:	20004b20 	.word	0x20004b20
10006ebc:	20005158 	.word	0x20005158

10006ec0 <stdio_put_string>:
10006ec0:	b5f0      	push	{r4, r5, r6, r7, lr}
10006ec2:	4646      	mov	r6, r8
10006ec4:	46d6      	mov	lr, sl
10006ec6:	464f      	mov	r7, r9
10006ec8:	b5c0      	push	{r6, r7, lr}
10006eca:	b082      	sub	sp, #8
10006ecc:	4690      	mov	r8, r2
10006ece:	001c      	movs	r4, r3
10006ed0:	0006      	movs	r6, r0
10006ed2:	000d      	movs	r5, r1
10006ed4:	f7fd f932 	bl	1000413c <time_us_64>
10006ed8:	2300      	movs	r3, #0
10006eda:	4a2f      	ldr	r2, [pc, #188]	@ (10006f98 <stdio_put_string+0xd8>)
10006edc:	1812      	adds	r2, r2, r0
10006ede:	414b      	adcs	r3, r1
10006ee0:	2b00      	cmp	r3, #0
10006ee2:	da02      	bge.n	10006eea <stdio_put_string+0x2a>
10006ee4:	2201      	movs	r2, #1
10006ee6:	4b2d      	ldr	r3, [pc, #180]	@ (10006f9c <stdio_put_string+0xdc>)
10006ee8:	4252      	negs	r2, r2
10006eea:	492d      	ldr	r1, [pc, #180]	@ (10006fa0 <stdio_put_string+0xe0>)
10006eec:	0008      	movs	r0, r1
10006eee:	468a      	mov	sl, r1
10006ef0:	f003 fafe 	bl	1000a4f0 <__mutex_try_enter_block_until_veneer>
10006ef4:	4681      	mov	r9, r0
10006ef6:	1c6b      	adds	r3, r5, #1
10006ef8:	d103      	bne.n	10006f02 <stdio_put_string+0x42>
10006efa:	0030      	movs	r0, r6
10006efc:	f003 fa84 	bl	1000a408 <strlen>
10006f00:	0005      	movs	r5, r0
10006f02:	2c00      	cmp	r4, #0
10006f04:	d027      	beq.n	10006f56 <stdio_put_string+0x96>
10006f06:	4f27      	ldr	r7, [pc, #156]	@ (10006fa4 <stdio_put_string+0xe4>)
10006f08:	4b27      	ldr	r3, [pc, #156]	@ (10006fa8 <stdio_put_string+0xe8>)
10006f0a:	681c      	ldr	r4, [r3, #0]
10006f0c:	2c00      	cmp	r4, #0
10006f0e:	d018      	beq.n	10006f42 <stdio_put_string+0x82>
10006f10:	4643      	mov	r3, r8
10006f12:	2b00      	cmp	r3, #0
10006f14:	d121      	bne.n	10006f5a <stdio_put_string+0x9a>
10006f16:	4b25      	ldr	r3, [pc, #148]	@ (10006fac <stdio_put_string+0xec>)
10006f18:	4698      	mov	r8, r3
10006f1a:	e002      	b.n	10006f22 <stdio_put_string+0x62>
10006f1c:	6924      	ldr	r4, [r4, #16]
10006f1e:	2c00      	cmp	r4, #0
10006f20:	d00f      	beq.n	10006f42 <stdio_put_string+0x82>
10006f22:	6823      	ldr	r3, [r4, #0]
10006f24:	2b00      	cmp	r3, #0
10006f26:	d0f9      	beq.n	10006f1c <stdio_put_string+0x5c>
10006f28:	4643      	mov	r3, r8
10006f2a:	681b      	ldr	r3, [r3, #0]
10006f2c:	2b00      	cmp	r3, #0
10006f2e:	d001      	beq.n	10006f34 <stdio_put_string+0x74>
10006f30:	429c      	cmp	r4, r3
10006f32:	d1f3      	bne.n	10006f1c <stdio_put_string+0x5c>
10006f34:	0020      	movs	r0, r4
10006f36:	002a      	movs	r2, r5
10006f38:	0031      	movs	r1, r6
10006f3a:	47b8      	blx	r7
10006f3c:	6924      	ldr	r4, [r4, #16]
10006f3e:	2c00      	cmp	r4, #0
10006f40:	d1ef      	bne.n	10006f22 <stdio_put_string+0x62>
10006f42:	464b      	mov	r3, r9
10006f44:	2b00      	cmp	r3, #0
10006f46:	d123      	bne.n	10006f90 <stdio_put_string+0xd0>
10006f48:	0028      	movs	r0, r5
10006f4a:	b002      	add	sp, #8
10006f4c:	bce0      	pop	{r5, r6, r7}
10006f4e:	46ba      	mov	sl, r7
10006f50:	46b1      	mov	r9, r6
10006f52:	46a8      	mov	r8, r5
10006f54:	bdf0      	pop	{r4, r5, r6, r7, pc}
10006f56:	4f16      	ldr	r7, [pc, #88]	@ (10006fb0 <stdio_put_string+0xf0>)
10006f58:	e7d6      	b.n	10006f08 <stdio_put_string+0x48>
10006f5a:	4b14      	ldr	r3, [pc, #80]	@ (10006fac <stdio_put_string+0xec>)
10006f5c:	4698      	mov	r8, r3
10006f5e:	e002      	b.n	10006f66 <stdio_put_string+0xa6>
10006f60:	6924      	ldr	r4, [r4, #16]
10006f62:	2c00      	cmp	r4, #0
10006f64:	d0ed      	beq.n	10006f42 <stdio_put_string+0x82>
10006f66:	6823      	ldr	r3, [r4, #0]
10006f68:	2b00      	cmp	r3, #0
10006f6a:	d0f9      	beq.n	10006f60 <stdio_put_string+0xa0>
10006f6c:	4643      	mov	r3, r8
10006f6e:	681b      	ldr	r3, [r3, #0]
10006f70:	2b00      	cmp	r3, #0
10006f72:	d001      	beq.n	10006f78 <stdio_put_string+0xb8>
10006f74:	42a3      	cmp	r3, r4
10006f76:	d1f3      	bne.n	10006f60 <stdio_put_string+0xa0>
10006f78:	002a      	movs	r2, r5
10006f7a:	0031      	movs	r1, r6
10006f7c:	0020      	movs	r0, r4
10006f7e:	47b8      	blx	r7
10006f80:	466b      	mov	r3, sp
10006f82:	220a      	movs	r2, #10
10006f84:	0020      	movs	r0, r4
10006f86:	71da      	strb	r2, [r3, #7]
10006f88:	1dd9      	adds	r1, r3, #7
10006f8a:	3a09      	subs	r2, #9
10006f8c:	47b8      	blx	r7
10006f8e:	e7e7      	b.n	10006f60 <stdio_put_string+0xa0>
10006f90:	4650      	mov	r0, sl
10006f92:	f003 fa85 	bl	1000a4a0 <__mutex_exit_veneer>
10006f96:	e7d7      	b.n	10006f48 <stdio_put_string+0x88>
10006f98:	000f4240 	.word	0x000f4240
10006f9c:	7fffffff 	.word	0x7fffffff
10006fa0:	20001070 	.word	0x20001070
10006fa4:	10006dcd 	.word	0x10006dcd
10006fa8:	20004b20 	.word	0x20004b20
10006fac:	20005158 	.word	0x20005158
10006fb0:	10006dbd 	.word	0x10006dbd

10006fb4 <stdio_set_driver_enabled>:
10006fb4:	4a0a      	ldr	r2, [pc, #40]	@ (10006fe0 <stdio_set_driver_enabled+0x2c>)
10006fb6:	6813      	ldr	r3, [r2, #0]
10006fb8:	2b00      	cmp	r3, #0
10006fba:	d105      	bne.n	10006fc8 <stdio_set_driver_enabled+0x14>
10006fbc:	e00c      	b.n	10006fd8 <stdio_set_driver_enabled+0x24>
10006fbe:	001a      	movs	r2, r3
10006fc0:	691b      	ldr	r3, [r3, #16]
10006fc2:	3210      	adds	r2, #16
10006fc4:	2b00      	cmp	r3, #0
10006fc6:	d007      	beq.n	10006fd8 <stdio_set_driver_enabled+0x24>
10006fc8:	4283      	cmp	r3, r0
10006fca:	d1f8      	bne.n	10006fbe <stdio_set_driver_enabled+0xa>
10006fcc:	2900      	cmp	r1, #0
10006fce:	d102      	bne.n	10006fd6 <stdio_set_driver_enabled+0x22>
10006fd0:	6918      	ldr	r0, [r3, #16]
10006fd2:	6010      	str	r0, [r2, #0]
10006fd4:	6119      	str	r1, [r3, #16]
10006fd6:	4770      	bx	lr
10006fd8:	2900      	cmp	r1, #0
10006fda:	d0fc      	beq.n	10006fd6 <stdio_set_driver_enabled+0x22>
10006fdc:	6010      	str	r0, [r2, #0]
10006fde:	e7fa      	b.n	10006fd6 <stdio_set_driver_enabled+0x22>
10006fe0:	20004b20 	.word	0x20004b20

10006fe4 <stdio_init_all>:
10006fe4:	b510      	push	{r4, lr}
10006fe6:	f000 fa2f 	bl	10007448 <stdio_usb_init>
10006fea:	bd10      	pop	{r4, pc}

10006fec <__wrap_putchar>:
10006fec:	b5f0      	push	{r4, r5, r6, r7, lr}
10006fee:	46ce      	mov	lr, r9
10006ff0:	4647      	mov	r7, r8
10006ff2:	b580      	push	{r7, lr}
10006ff4:	b083      	sub	sp, #12
10006ff6:	466b      	mov	r3, sp
10006ff8:	0006      	movs	r6, r0
10006ffa:	1ddd      	adds	r5, r3, #7
10006ffc:	7028      	strb	r0, [r5, #0]
10006ffe:	f7fd f89d 	bl	1000413c <time_us_64>
10007002:	2300      	movs	r3, #0
10007004:	4a19      	ldr	r2, [pc, #100]	@ (1000706c <__wrap_putchar+0x80>)
10007006:	1812      	adds	r2, r2, r0
10007008:	414b      	adcs	r3, r1
1000700a:	2b00      	cmp	r3, #0
1000700c:	da02      	bge.n	10007014 <__wrap_putchar+0x28>
1000700e:	2201      	movs	r2, #1
10007010:	4b17      	ldr	r3, [pc, #92]	@ (10007070 <__wrap_putchar+0x84>)
10007012:	4252      	negs	r2, r2
10007014:	4917      	ldr	r1, [pc, #92]	@ (10007074 <__wrap_putchar+0x88>)
10007016:	0008      	movs	r0, r1
10007018:	4689      	mov	r9, r1
1000701a:	f003 fa69 	bl	1000a4f0 <__mutex_try_enter_block_until_veneer>
1000701e:	4b16      	ldr	r3, [pc, #88]	@ (10007078 <__wrap_putchar+0x8c>)
10007020:	4680      	mov	r8, r0
10007022:	681c      	ldr	r4, [r3, #0]
10007024:	2c00      	cmp	r4, #0
10007026:	d014      	beq.n	10007052 <__wrap_putchar+0x66>
10007028:	4f14      	ldr	r7, [pc, #80]	@ (1000707c <__wrap_putchar+0x90>)
1000702a:	e002      	b.n	10007032 <__wrap_putchar+0x46>
1000702c:	6924      	ldr	r4, [r4, #16]
1000702e:	2c00      	cmp	r4, #0
10007030:	d00f      	beq.n	10007052 <__wrap_putchar+0x66>
10007032:	6823      	ldr	r3, [r4, #0]
10007034:	2b00      	cmp	r3, #0
10007036:	d0f9      	beq.n	1000702c <__wrap_putchar+0x40>
10007038:	683b      	ldr	r3, [r7, #0]
1000703a:	2b00      	cmp	r3, #0
1000703c:	d001      	beq.n	10007042 <__wrap_putchar+0x56>
1000703e:	429c      	cmp	r4, r3
10007040:	d1f4      	bne.n	1000702c <__wrap_putchar+0x40>
10007042:	0020      	movs	r0, r4
10007044:	2201      	movs	r2, #1
10007046:	0029      	movs	r1, r5
10007048:	f7ff fec0 	bl	10006dcc <stdio_out_chars_crlf>
1000704c:	6924      	ldr	r4, [r4, #16]
1000704e:	2c00      	cmp	r4, #0
10007050:	d1ef      	bne.n	10007032 <__wrap_putchar+0x46>
10007052:	4643      	mov	r3, r8
10007054:	2b00      	cmp	r3, #0
10007056:	d105      	bne.n	10007064 <__wrap_putchar+0x78>
10007058:	0030      	movs	r0, r6
1000705a:	b003      	add	sp, #12
1000705c:	bcc0      	pop	{r6, r7}
1000705e:	46b9      	mov	r9, r7
10007060:	46b0      	mov	r8, r6
10007062:	bdf0      	pop	{r4, r5, r6, r7, pc}
10007064:	4648      	mov	r0, r9
10007066:	f003 fa1b 	bl	1000a4a0 <__mutex_exit_veneer>
1000706a:	e7f5      	b.n	10007058 <__wrap_putchar+0x6c>
1000706c:	000f4240 	.word	0x000f4240
10007070:	7fffffff 	.word	0x7fffffff
10007074:	20001070 	.word	0x20001070
10007078:	20004b20 	.word	0x20004b20
1000707c:	20005158 	.word	0x20005158

10007080 <__wrap_puts>:
10007080:	b570      	push	{r4, r5, r6, lr}
10007082:	0004      	movs	r4, r0
10007084:	f003 f9c0 	bl	1000a408 <strlen>
10007088:	2301      	movs	r3, #1
1000708a:	0001      	movs	r1, r0
1000708c:	0005      	movs	r5, r0
1000708e:	2201      	movs	r2, #1
10007090:	0020      	movs	r0, r4
10007092:	f7ff ff15 	bl	10006ec0 <stdio_put_string>
10007096:	4b08      	ldr	r3, [pc, #32]	@ (100070b8 <__wrap_puts+0x38>)
10007098:	681c      	ldr	r4, [r3, #0]
1000709a:	2c00      	cmp	r4, #0
1000709c:	d006      	beq.n	100070ac <__wrap_puts+0x2c>
1000709e:	6863      	ldr	r3, [r4, #4]
100070a0:	2b00      	cmp	r3, #0
100070a2:	d005      	beq.n	100070b0 <__wrap_puts+0x30>
100070a4:	4798      	blx	r3
100070a6:	6924      	ldr	r4, [r4, #16]
100070a8:	2c00      	cmp	r4, #0
100070aa:	d1f8      	bne.n	1000709e <__wrap_puts+0x1e>
100070ac:	0028      	movs	r0, r5
100070ae:	bd70      	pop	{r4, r5, r6, pc}
100070b0:	6924      	ldr	r4, [r4, #16]
100070b2:	2c00      	cmp	r4, #0
100070b4:	d1f3      	bne.n	1000709e <__wrap_puts+0x1e>
100070b6:	e7f9      	b.n	100070ac <__wrap_puts+0x2c>
100070b8:	20004b20 	.word	0x20004b20

100070bc <__wrap_vprintf>:
100070bc:	b5f0      	push	{r4, r5, r6, r7, lr}
100070be:	46ce      	mov	lr, r9
100070c0:	4647      	mov	r7, r8
100070c2:	b580      	push	{r7, lr}
100070c4:	b0a3      	sub	sp, #140	@ 0x8c
100070c6:	0004      	movs	r4, r0
100070c8:	000e      	movs	r6, r1
100070ca:	f7fd f837 	bl	1000413c <time_us_64>
100070ce:	2300      	movs	r3, #0
100070d0:	4a26      	ldr	r2, [pc, #152]	@ (1000716c <__wrap_vprintf+0xb0>)
100070d2:	1812      	adds	r2, r2, r0
100070d4:	414b      	adcs	r3, r1
100070d6:	2b00      	cmp	r3, #0
100070d8:	da02      	bge.n	100070e0 <__wrap_vprintf+0x24>
100070da:	2201      	movs	r2, #1
100070dc:	4b24      	ldr	r3, [pc, #144]	@ (10007170 <__wrap_vprintf+0xb4>)
100070de:	4252      	negs	r2, r2
100070e0:	4824      	ldr	r0, [pc, #144]	@ (10007174 <__wrap_vprintf+0xb8>)
100070e2:	f003 fa05 	bl	1000a4f0 <__mutex_try_enter_block_until_veneer>
100070e6:	2300      	movs	r3, #0
100070e8:	0022      	movs	r2, r4
100070ea:	9301      	str	r3, [sp, #4]
100070ec:	4680      	mov	r8, r0
100070ee:	0033      	movs	r3, r6
100070f0:	4821      	ldr	r0, [pc, #132]	@ (10007178 <__wrap_vprintf+0xbc>)
100070f2:	a901      	add	r1, sp, #4
100070f4:	f7ff fe1e 	bl	10006d34 <vfctprintf>
100070f8:	4f20      	ldr	r7, [pc, #128]	@ (1000717c <__wrap_vprintf+0xc0>)
100070fa:	9b01      	ldr	r3, [sp, #4]
100070fc:	4681      	mov	r9, r0
100070fe:	683c      	ldr	r4, [r7, #0]
10007100:	2b00      	cmp	r3, #0
10007102:	d019      	beq.n	10007138 <__wrap_vprintf+0x7c>
10007104:	2c00      	cmp	r4, #0
10007106:	d02f      	beq.n	10007168 <__wrap_vprintf+0xac>
10007108:	4e1d      	ldr	r6, [pc, #116]	@ (10007180 <__wrap_vprintf+0xc4>)
1000710a:	e002      	b.n	10007112 <__wrap_vprintf+0x56>
1000710c:	6924      	ldr	r4, [r4, #16]
1000710e:	2c00      	cmp	r4, #0
10007110:	d00f      	beq.n	10007132 <__wrap_vprintf+0x76>
10007112:	6823      	ldr	r3, [r4, #0]
10007114:	2b00      	cmp	r3, #0
10007116:	d0f9      	beq.n	1000710c <__wrap_vprintf+0x50>
10007118:	6833      	ldr	r3, [r6, #0]
1000711a:	2b00      	cmp	r3, #0
1000711c:	d001      	beq.n	10007122 <__wrap_vprintf+0x66>
1000711e:	42a3      	cmp	r3, r4
10007120:	d1f4      	bne.n	1000710c <__wrap_vprintf+0x50>
10007122:	0020      	movs	r0, r4
10007124:	9a01      	ldr	r2, [sp, #4]
10007126:	a902      	add	r1, sp, #8
10007128:	f7ff fe50 	bl	10006dcc <stdio_out_chars_crlf>
1000712c:	6924      	ldr	r4, [r4, #16]
1000712e:	2c00      	cmp	r4, #0
10007130:	d1ef      	bne.n	10007112 <__wrap_vprintf+0x56>
10007132:	2300      	movs	r3, #0
10007134:	683c      	ldr	r4, [r7, #0]
10007136:	9301      	str	r3, [sp, #4]
10007138:	2c00      	cmp	r4, #0
1000713a:	d006      	beq.n	1000714a <__wrap_vprintf+0x8e>
1000713c:	6863      	ldr	r3, [r4, #4]
1000713e:	2b00      	cmp	r3, #0
10007140:	d00c      	beq.n	1000715c <__wrap_vprintf+0xa0>
10007142:	4798      	blx	r3
10007144:	6924      	ldr	r4, [r4, #16]
10007146:	2c00      	cmp	r4, #0
10007148:	d1f8      	bne.n	1000713c <__wrap_vprintf+0x80>
1000714a:	4643      	mov	r3, r8
1000714c:	2b00      	cmp	r3, #0
1000714e:	d107      	bne.n	10007160 <__wrap_vprintf+0xa4>
10007150:	4648      	mov	r0, r9
10007152:	b023      	add	sp, #140	@ 0x8c
10007154:	bcc0      	pop	{r6, r7}
10007156:	46b9      	mov	r9, r7
10007158:	46b0      	mov	r8, r6
1000715a:	bdf0      	pop	{r4, r5, r6, r7, pc}
1000715c:	6924      	ldr	r4, [r4, #16]
1000715e:	e7eb      	b.n	10007138 <__wrap_vprintf+0x7c>
10007160:	4804      	ldr	r0, [pc, #16]	@ (10007174 <__wrap_vprintf+0xb8>)
10007162:	f003 f99d 	bl	1000a4a0 <__mutex_exit_veneer>
10007166:	e7f3      	b.n	10007150 <__wrap_vprintf+0x94>
10007168:	9401      	str	r4, [sp, #4]
1000716a:	e7ee      	b.n	1000714a <__wrap_vprintf+0x8e>
1000716c:	000f4240 	.word	0x000f4240
10007170:	7fffffff 	.word	0x7fffffff
10007174:	20001070 	.word	0x20001070
10007178:	10006e5d 	.word	0x10006e5d
1000717c:	20004b20 	.word	0x20004b20
10007180:	20005158 	.word	0x20005158

10007184 <__wrap_printf>:
10007184:	b40f      	push	{r0, r1, r2, r3}
10007186:	b500      	push	{lr}
10007188:	b083      	sub	sp, #12
1000718a:	a904      	add	r1, sp, #16
1000718c:	c901      	ldmia	r1!, {r0}
1000718e:	9101      	str	r1, [sp, #4]
10007190:	f7ff ff94 	bl	100070bc <__wrap_vprintf>
10007194:	b003      	add	sp, #12
10007196:	bc08      	pop	{r3}
10007198:	b004      	add	sp, #16
1000719a:	4718      	bx	r3

1000719c <resetd_init>:
1000719c:	4770      	bx	lr
1000719e:	46c0      	nop			@ (mov r8, r8)

100071a0 <resetd_reset>:
100071a0:	2200      	movs	r2, #0
100071a2:	4b01      	ldr	r3, [pc, #4]	@ (100071a8 <resetd_reset+0x8>)
100071a4:	701a      	strb	r2, [r3, #0]
100071a6:	4770      	bx	lr
100071a8:	2000f072 	.word	0x2000f072

100071ac <resetd_open>:
100071ac:	794b      	ldrb	r3, [r1, #5]
100071ae:	2000      	movs	r0, #0
100071b0:	2bff      	cmp	r3, #255	@ 0xff
100071b2:	d10b      	bne.n	100071cc <resetd_open+0x20>
100071b4:	798b      	ldrb	r3, [r1, #6]
100071b6:	2b00      	cmp	r3, #0
100071b8:	d108      	bne.n	100071cc <resetd_open+0x20>
100071ba:	79cb      	ldrb	r3, [r1, #7]
100071bc:	2b01      	cmp	r3, #1
100071be:	d105      	bne.n	100071cc <resetd_open+0x20>
100071c0:	2a08      	cmp	r2, #8
100071c2:	d903      	bls.n	100071cc <resetd_open+0x20>
100071c4:	4b02      	ldr	r3, [pc, #8]	@ (100071d0 <resetd_open+0x24>)
100071c6:	788a      	ldrb	r2, [r1, #2]
100071c8:	3009      	adds	r0, #9
100071ca:	701a      	strb	r2, [r3, #0]
100071cc:	4770      	bx	lr
100071ce:	46c0      	nop			@ (mov r8, r8)
100071d0:	2000f072 	.word	0x2000f072

100071d4 <resetd_xfer_cb>:
100071d4:	2001      	movs	r0, #1
100071d6:	4770      	bx	lr

100071d8 <resetd_control_xfer_cb>:
100071d8:	b510      	push	{r4, lr}
100071da:	2901      	cmp	r1, #1
100071dc:	d113      	bne.n	10007206 <resetd_control_xfer_cb+0x2e>
100071de:	4912      	ldr	r1, [pc, #72]	@ (10007228 <resetd_control_xfer_cb+0x50>)
100071e0:	7953      	ldrb	r3, [r2, #5]
100071e2:	7910      	ldrb	r0, [r2, #4]
100071e4:	7809      	ldrb	r1, [r1, #0]
100071e6:	021b      	lsls	r3, r3, #8
100071e8:	4303      	orrs	r3, r0
100071ea:	2000      	movs	r0, #0
100071ec:	4299      	cmp	r1, r3
100071ee:	d000      	beq.n	100071f2 <resetd_control_xfer_cb+0x1a>
100071f0:	bd10      	pop	{r4, pc}
100071f2:	7853      	ldrb	r3, [r2, #1]
100071f4:	2b01      	cmp	r3, #1
100071f6:	d008      	beq.n	1000720a <resetd_control_xfer_cb+0x32>
100071f8:	2b02      	cmp	r3, #2
100071fa:	d1f9      	bne.n	100071f0 <resetd_control_xfer_cb+0x18>
100071fc:	2264      	movs	r2, #100	@ 0x64
100071fe:	2100      	movs	r1, #0
10007200:	2000      	movs	r0, #0
10007202:	f7fd f8f9 	bl	100043f8 <watchdog_reboot>
10007206:	2001      	movs	r0, #1
10007208:	e7f2      	b.n	100071f0 <resetd_control_xfer_cb+0x18>
1000720a:	78d3      	ldrb	r3, [r2, #3]
1000720c:	7891      	ldrb	r1, [r2, #2]
1000720e:	021b      	lsls	r3, r3, #8
10007210:	4319      	orrs	r1, r3
10007212:	0a48      	lsrs	r0, r1, #9
10007214:	05db      	lsls	r3, r3, #23
10007216:	d401      	bmi.n	1000721c <resetd_control_xfer_cb+0x44>
10007218:	2001      	movs	r0, #1
1000721a:	4240      	negs	r0, r0
1000721c:	237f      	movs	r3, #127	@ 0x7f
1000721e:	058a      	lsls	r2, r1, #22
10007220:	0fd2      	lsrs	r2, r2, #31
10007222:	4019      	ands	r1, r3
10007224:	f7fd f970 	bl	10004508 <rom_reset_usb_boot_extra>
10007228:	2000f072 	.word	0x2000f072

1000722c <usbd_app_driver_get_cb>:
1000722c:	2301      	movs	r3, #1
1000722e:	7003      	strb	r3, [r0, #0]
10007230:	4800      	ldr	r0, [pc, #0]	@ (10007234 <usbd_app_driver_get_cb+0x8>)
10007232:	4770      	bx	lr
10007234:	1000b714 	.word	0x1000b714

10007238 <tud_cdc_line_coding_cb>:
10007238:	784b      	ldrb	r3, [r1, #1]
1000723a:	780a      	ldrb	r2, [r1, #0]
1000723c:	021b      	lsls	r3, r3, #8
1000723e:	4313      	orrs	r3, r2
10007240:	788a      	ldrb	r2, [r1, #2]
10007242:	b510      	push	{r4, lr}
10007244:	0412      	lsls	r2, r2, #16
10007246:	431a      	orrs	r2, r3
10007248:	78cb      	ldrb	r3, [r1, #3]
1000724a:	061b      	lsls	r3, r3, #24
1000724c:	4313      	orrs	r3, r2
1000724e:	2296      	movs	r2, #150	@ 0x96
10007250:	00d2      	lsls	r2, r2, #3
10007252:	4293      	cmp	r3, r2
10007254:	d000      	beq.n	10007258 <tud_cdc_line_coding_cb+0x20>
10007256:	bd10      	pop	{r4, pc}
10007258:	2200      	movs	r2, #0
1000725a:	2001      	movs	r0, #1
1000725c:	0011      	movs	r1, r2
1000725e:	4240      	negs	r0, r0
10007260:	f7fd f952 	bl	10004508 <rom_reset_usb_boot_extra>

10007264 <stdio_usb_set_chars_available_callback>:
10007264:	4b02      	ldr	r3, [pc, #8]	@ (10007270 <stdio_usb_set_chars_available_callback+0xc>)
10007266:	6018      	str	r0, [r3, #0]
10007268:	4b02      	ldr	r3, [pc, #8]	@ (10007274 <stdio_usb_set_chars_available_callback+0x10>)
1000726a:	6019      	str	r1, [r3, #0]
1000726c:	4770      	bx	lr
1000726e:	46c0      	nop			@ (mov r8, r8)
10007270:	20004a5c 	.word	0x20004a5c
10007274:	20004a60 	.word	0x20004a60

10007278 <stdio_usb_in_chars>:
10007278:	b570      	push	{r4, r5, r6, lr}
1000727a:	0005      	movs	r5, r0
1000727c:	2000      	movs	r0, #0
1000727e:	000e      	movs	r6, r1
10007280:	f002 f8d0 	bl	10009424 <tud_cdc_n_connected>
10007284:	2800      	cmp	r0, #0
10007286:	d034      	beq.n	100072f2 <stdio_usb_in_chars+0x7a>
10007288:	2000      	movs	r0, #0
1000728a:	f002 f8e5 	bl	10009458 <tud_cdc_n_available>
1000728e:	2800      	cmp	r0, #0
10007290:	d02f      	beq.n	100072f2 <stdio_usb_in_chars+0x7a>
10007292:	f7fc ff53 	bl	1000413c <time_us_64>
10007296:	2300      	movs	r3, #0
10007298:	4a17      	ldr	r2, [pc, #92]	@ (100072f8 <stdio_usb_in_chars+0x80>)
1000729a:	1812      	adds	r2, r2, r0
1000729c:	414b      	adcs	r3, r1
1000729e:	2b00      	cmp	r3, #0
100072a0:	db16      	blt.n	100072d0 <stdio_usb_in_chars+0x58>
100072a2:	4c16      	ldr	r4, [pc, #88]	@ (100072fc <stdio_usb_in_chars+0x84>)
100072a4:	0020      	movs	r0, r4
100072a6:	f003 f923 	bl	1000a4f0 <__mutex_try_enter_block_until_veneer>
100072aa:	2800      	cmp	r0, #0
100072ac:	d021      	beq.n	100072f2 <stdio_usb_in_chars+0x7a>
100072ae:	2000      	movs	r0, #0
100072b0:	f002 f8b8 	bl	10009424 <tud_cdc_n_connected>
100072b4:	2800      	cmp	r0, #0
100072b6:	d10f      	bne.n	100072d8 <stdio_usb_in_chars+0x60>
100072b8:	2001      	movs	r0, #1
100072ba:	2100      	movs	r1, #0
100072bc:	4240      	negs	r0, r0
100072be:	f000 fcab 	bl	10007c18 <tud_task_ext>
100072c2:	2503      	movs	r5, #3
100072c4:	426d      	negs	r5, r5
100072c6:	0020      	movs	r0, r4
100072c8:	f003 f8ea 	bl	1000a4a0 <__mutex_exit_veneer>
100072cc:	0028      	movs	r0, r5
100072ce:	bd70      	pop	{r4, r5, r6, pc}
100072d0:	2201      	movs	r2, #1
100072d2:	4b0b      	ldr	r3, [pc, #44]	@ (10007300 <stdio_usb_in_chars+0x88>)
100072d4:	4252      	negs	r2, r2
100072d6:	e7e4      	b.n	100072a2 <stdio_usb_in_chars+0x2a>
100072d8:	2000      	movs	r0, #0
100072da:	f002 f8bd 	bl	10009458 <tud_cdc_n_available>
100072de:	2800      	cmp	r0, #0
100072e0:	d0ea      	beq.n	100072b8 <stdio_usb_in_chars+0x40>
100072e2:	0029      	movs	r1, r5
100072e4:	0032      	movs	r2, r6
100072e6:	2000      	movs	r0, #0
100072e8:	f002 f8c4 	bl	10009474 <tud_cdc_n_read>
100072ec:	1e05      	subs	r5, r0, #0
100072ee:	d1ea      	bne.n	100072c6 <stdio_usb_in_chars+0x4e>
100072f0:	e7e7      	b.n	100072c2 <stdio_usb_in_chars+0x4a>
100072f2:	2503      	movs	r5, #3
100072f4:	426d      	negs	r5, r5
100072f6:	e7e9      	b.n	100072cc <stdio_usb_in_chars+0x54>
100072f8:	000f4240 	.word	0x000f4240
100072fc:	20006448 	.word	0x20006448
10007300:	7fffffff 	.word	0x7fffffff

10007304 <stdio_usb_out_flush>:
10007304:	b510      	push	{r4, lr}
10007306:	f7fc ff19 	bl	1000413c <time_us_64>
1000730a:	2300      	movs	r3, #0
1000730c:	4a0d      	ldr	r2, [pc, #52]	@ (10007344 <stdio_usb_out_flush+0x40>)
1000730e:	1812      	adds	r2, r2, r0
10007310:	414b      	adcs	r3, r1
10007312:	2b00      	cmp	r3, #0
10007314:	da02      	bge.n	1000731c <stdio_usb_out_flush+0x18>
10007316:	2201      	movs	r2, #1
10007318:	4b0b      	ldr	r3, [pc, #44]	@ (10007348 <stdio_usb_out_flush+0x44>)
1000731a:	4252      	negs	r2, r2
1000731c:	480b      	ldr	r0, [pc, #44]	@ (1000734c <stdio_usb_out_flush+0x48>)
1000731e:	f003 f8e7 	bl	1000a4f0 <__mutex_try_enter_block_until_veneer>
10007322:	2800      	cmp	r0, #0
10007324:	d00c      	beq.n	10007340 <stdio_usb_out_flush+0x3c>
10007326:	2001      	movs	r0, #1
10007328:	2100      	movs	r1, #0
1000732a:	4240      	negs	r0, r0
1000732c:	f000 fc74 	bl	10007c18 <tud_task_ext>
10007330:	2000      	movs	r0, #0
10007332:	f002 f8ed 	bl	10009510 <tud_cdc_n_write_flush>
10007336:	2800      	cmp	r0, #0
10007338:	d1f5      	bne.n	10007326 <stdio_usb_out_flush+0x22>
1000733a:	4804      	ldr	r0, [pc, #16]	@ (1000734c <stdio_usb_out_flush+0x48>)
1000733c:	f003 f8b0 	bl	1000a4a0 <__mutex_exit_veneer>
10007340:	bd10      	pop	{r4, pc}
10007342:	46c0      	nop			@ (mov r8, r8)
10007344:	000f4240 	.word	0x000f4240
10007348:	7fffffff 	.word	0x7fffffff
1000734c:	20006448 	.word	0x20006448

10007350 <stdio_usb_out_chars>:
10007350:	b5f8      	push	{r3, r4, r5, r6, r7, lr}
10007352:	46ce      	mov	lr, r9
10007354:	4647      	mov	r7, r8
10007356:	b580      	push	{r7, lr}
10007358:	0005      	movs	r5, r0
1000735a:	000c      	movs	r4, r1
1000735c:	f7fc feee 	bl	1000413c <time_us_64>
10007360:	2300      	movs	r3, #0
10007362:	4a34      	ldr	r2, [pc, #208]	@ (10007434 <stdio_usb_out_chars+0xe4>)
10007364:	1812      	adds	r2, r2, r0
10007366:	414b      	adcs	r3, r1
10007368:	2b00      	cmp	r3, #0
1000736a:	da02      	bge.n	10007372 <stdio_usb_out_chars+0x22>
1000736c:	2201      	movs	r2, #1
1000736e:	4b32      	ldr	r3, [pc, #200]	@ (10007438 <stdio_usb_out_chars+0xe8>)
10007370:	4252      	negs	r2, r2
10007372:	4932      	ldr	r1, [pc, #200]	@ (1000743c <stdio_usb_out_chars+0xec>)
10007374:	0008      	movs	r0, r1
10007376:	4688      	mov	r8, r1
10007378:	f003 f8ba 	bl	1000a4f0 <__mutex_try_enter_block_until_veneer>
1000737c:	2800      	cmp	r0, #0
1000737e:	d103      	bne.n	10007388 <stdio_usb_out_chars+0x38>
10007380:	bcc0      	pop	{r6, r7}
10007382:	46b9      	mov	r9, r7
10007384:	46b0      	mov	r8, r6
10007386:	bdf8      	pop	{r3, r4, r5, r6, r7, pc}
10007388:	2000      	movs	r0, #0
1000738a:	f002 f84b 	bl	10009424 <tud_cdc_n_connected>
1000738e:	2800      	cmp	r0, #0
10007390:	d048      	beq.n	10007424 <stdio_usb_out_chars+0xd4>
10007392:	2600      	movs	r6, #0
10007394:	2c00      	cmp	r4, #0
10007396:	dd41      	ble.n	1000741c <stdio_usb_out_chars+0xcc>
10007398:	4b29      	ldr	r3, [pc, #164]	@ (10007440 <stdio_usb_out_chars+0xf0>)
1000739a:	4699      	mov	r9, r3
1000739c:	e013      	b.n	100073c6 <stdio_usb_out_chars+0x76>
1000739e:	19a9      	adds	r1, r5, r6
100073a0:	2000      	movs	r0, #0
100073a2:	f002 f8f3 	bl	1000958c <tud_cdc_n_write>
100073a6:	0007      	movs	r7, r0
100073a8:	2001      	movs	r0, #1
100073aa:	2100      	movs	r1, #0
100073ac:	4240      	negs	r0, r0
100073ae:	f000 fc33 	bl	10007c18 <tud_task_ext>
100073b2:	2000      	movs	r0, #0
100073b4:	f002 f8ac 	bl	10009510 <tud_cdc_n_write_flush>
100073b8:	f7fc fec0 	bl	1000413c <time_us_64>
100073bc:	4b20      	ldr	r3, [pc, #128]	@ (10007440 <stdio_usb_out_chars+0xf0>)
100073be:	19f6      	adds	r6, r6, r7
100073c0:	c303      	stmia	r3!, {r0, r1}
100073c2:	42b4      	cmp	r4, r6
100073c4:	dd2a      	ble.n	1000741c <stdio_usb_out_chars+0xcc>
100073c6:	2000      	movs	r0, #0
100073c8:	f002 f902 	bl	100095d0 <tud_cdc_n_write_available>
100073cc:	1ba7      	subs	r7, r4, r6
100073ce:	0002      	movs	r2, r0
100073d0:	42b8      	cmp	r0, r7
100073d2:	dd00      	ble.n	100073d6 <stdio_usb_out_chars+0x86>
100073d4:	003a      	movs	r2, r7
100073d6:	2a00      	cmp	r2, #0
100073d8:	d1e1      	bne.n	1000739e <stdio_usb_out_chars+0x4e>
100073da:	2001      	movs	r0, #1
100073dc:	2100      	movs	r1, #0
100073de:	4240      	negs	r0, r0
100073e0:	f000 fc1a 	bl	10007c18 <tud_task_ext>
100073e4:	2000      	movs	r0, #0
100073e6:	f002 f893 	bl	10009510 <tud_cdc_n_write_flush>
100073ea:	2000      	movs	r0, #0
100073ec:	f002 f81a 	bl	10009424 <tud_cdc_n_connected>
100073f0:	2800      	cmp	r0, #0
100073f2:	d013      	beq.n	1000741c <stdio_usb_out_chars+0xcc>
100073f4:	2000      	movs	r0, #0
100073f6:	f002 f8eb 	bl	100095d0 <tud_cdc_n_write_available>
100073fa:	2800      	cmp	r0, #0
100073fc:	d1e1      	bne.n	100073c2 <stdio_usb_out_chars+0x72>
100073fe:	f7fc fe9d 	bl	1000413c <time_us_64>
10007402:	464b      	mov	r3, r9
10007404:	000f      	movs	r7, r1
10007406:	cb0c      	ldmia	r3, {r2, r3}
10007408:	2100      	movs	r1, #0
1000740a:	4684      	mov	ip, r0
1000740c:	480d      	ldr	r0, [pc, #52]	@ (10007444 <stdio_usb_out_chars+0xf4>)
1000740e:	1812      	adds	r2, r2, r0
10007410:	414b      	adcs	r3, r1
10007412:	429f      	cmp	r7, r3
10007414:	d802      	bhi.n	1000741c <stdio_usb_out_chars+0xcc>
10007416:	d1d4      	bne.n	100073c2 <stdio_usb_out_chars+0x72>
10007418:	4594      	cmp	ip, r2
1000741a:	d9d2      	bls.n	100073c2 <stdio_usb_out_chars+0x72>
1000741c:	4640      	mov	r0, r8
1000741e:	f003 f83f 	bl	1000a4a0 <__mutex_exit_veneer>
10007422:	e7ad      	b.n	10007380 <stdio_usb_out_chars+0x30>
10007424:	2000      	movs	r0, #0
10007426:	2100      	movs	r1, #0
10007428:	4b05      	ldr	r3, [pc, #20]	@ (10007440 <stdio_usb_out_chars+0xf0>)
1000742a:	c303      	stmia	r3!, {r0, r1}
1000742c:	4640      	mov	r0, r8
1000742e:	f003 f837 	bl	1000a4a0 <__mutex_exit_veneer>
10007432:	e7a5      	b.n	10007380 <stdio_usb_out_chars+0x30>
10007434:	000f4240 	.word	0x000f4240
10007438:	7fffffff 	.word	0x7fffffff
1000743c:	20006448 	.word	0x20006448
10007440:	20002cf8 	.word	0x20002cf8
10007444:	0007a120 	.word	0x0007a120

10007448 <stdio_usb_init>:
10007448:	23d0      	movs	r3, #208	@ 0xd0
1000744a:	b510      	push	{r4, lr}
1000744c:	061b      	lsls	r3, r3, #24
1000744e:	681c      	ldr	r4, [r3, #0]
10007450:	f7fc fc50 	bl	10003cf4 <alarm_pool_get_default>
10007454:	f7fc fcea 	bl	10003e2c <alarm_pool_core_num>
10007458:	2300      	movs	r3, #0
1000745a:	42a0      	cmp	r0, r4
1000745c:	d10a      	bne.n	10007474 <stdio_usb_init+0x2c>
1000745e:	4b08      	ldr	r3, [pc, #32]	@ (10007480 <stdio_usb_init+0x38>)
10007460:	4808      	ldr	r0, [pc, #32]	@ (10007484 <stdio_usb_init+0x3c>)
10007462:	781b      	ldrb	r3, [r3, #0]
10007464:	6803      	ldr	r3, [r0, #0]
10007466:	2b00      	cmp	r3, #0
10007468:	d006      	beq.n	10007478 <stdio_usb_init+0x30>
1000746a:	2101      	movs	r1, #1
1000746c:	4806      	ldr	r0, [pc, #24]	@ (10007488 <stdio_usb_init+0x40>)
1000746e:	f7ff fda1 	bl	10006fb4 <stdio_set_driver_enabled>
10007472:	2301      	movs	r3, #1
10007474:	0018      	movs	r0, r3
10007476:	bd10      	pop	{r4, pc}
10007478:	f7fc fa22 	bl	100038c0 <mutex_init>
1000747c:	e7f5      	b.n	1000746a <stdio_usb_init+0x22>
1000747e:	46c0      	nop			@ (mov r8, r8)
10007480:	1000b844 	.word	0x1000b844
10007484:	20006448 	.word	0x20006448
10007488:	20001030 	.word	0x20001030

1000748c <_retrieve_unique_id_on_boot>:
1000748c:	b510      	push	{r4, lr}
1000748e:	4802      	ldr	r0, [pc, #8]	@ (10007498 <_retrieve_unique_id_on_boot+0xc>)
10007490:	f000 f8f4 	bl	1000767c <flash_get_unique_id>
10007494:	bd10      	pop	{r4, pc}
10007496:	46c0      	nop			@ (mov r8, r8)
10007498:	20005810 	.word	0x20005810

1000749c <pico_get_unique_board_id_string>:
1000749c:	b530      	push	{r4, r5, lr}
1000749e:	2901      	cmp	r1, #1
100074a0:	d100      	bne.n	100074a4 <pico_get_unique_board_id_string+0x8>
100074a2:	e0bb      	b.n	1000761c <pico_get_unique_board_id_string+0x180>
100074a4:	4b74      	ldr	r3, [pc, #464]	@ (10007678 <pico_get_unique_board_id_string+0x1dc>)
100074a6:	3901      	subs	r1, #1
100074a8:	781a      	ldrb	r2, [r3, #0]
100074aa:	1112      	asrs	r2, r2, #4
100074ac:	0014      	movs	r4, r2
100074ae:	3430      	adds	r4, #48	@ 0x30
100074b0:	2a09      	cmp	r2, #9
100074b2:	dd00      	ble.n	100074b6 <pico_get_unique_board_id_string+0x1a>
100074b4:	e0b5      	b.n	10007622 <pico_get_unique_board_id_string+0x186>
100074b6:	7004      	strb	r4, [r0, #0]
100074b8:	2901      	cmp	r1, #1
100074ba:	d100      	bne.n	100074be <pico_get_unique_board_id_string+0x22>
100074bc:	e0da      	b.n	10007674 <pico_get_unique_board_id_string+0x1d8>
100074be:	220f      	movs	r2, #15
100074c0:	781c      	ldrb	r4, [r3, #0]
100074c2:	4022      	ands	r2, r4
100074c4:	0014      	movs	r4, r2
100074c6:	3430      	adds	r4, #48	@ 0x30
100074c8:	2a09      	cmp	r2, #9
100074ca:	d900      	bls.n	100074ce <pico_get_unique_board_id_string+0x32>
100074cc:	e0ac      	b.n	10007628 <pico_get_unique_board_id_string+0x18c>
100074ce:	7044      	strb	r4, [r0, #1]
100074d0:	2902      	cmp	r1, #2
100074d2:	d100      	bne.n	100074d6 <pico_get_unique_board_id_string+0x3a>
100074d4:	e0ce      	b.n	10007674 <pico_get_unique_board_id_string+0x1d8>
100074d6:	785a      	ldrb	r2, [r3, #1]
100074d8:	4694      	mov	ip, r2
100074da:	1112      	asrs	r2, r2, #4
100074dc:	0014      	movs	r4, r2
100074de:	3430      	adds	r4, #48	@ 0x30
100074e0:	2a09      	cmp	r2, #9
100074e2:	dd00      	ble.n	100074e6 <pico_get_unique_board_id_string+0x4a>
100074e4:	e0a3      	b.n	1000762e <pico_get_unique_board_id_string+0x192>
100074e6:	7084      	strb	r4, [r0, #2]
100074e8:	2903      	cmp	r1, #3
100074ea:	d100      	bne.n	100074ee <pico_get_unique_board_id_string+0x52>
100074ec:	e0c2      	b.n	10007674 <pico_get_unique_board_id_string+0x1d8>
100074ee:	4664      	mov	r4, ip
100074f0:	220f      	movs	r2, #15
100074f2:	4022      	ands	r2, r4
100074f4:	0014      	movs	r4, r2
100074f6:	3430      	adds	r4, #48	@ 0x30
100074f8:	2a09      	cmp	r2, #9
100074fa:	d900      	bls.n	100074fe <pico_get_unique_board_id_string+0x62>
100074fc:	e09a      	b.n	10007634 <pico_get_unique_board_id_string+0x198>
100074fe:	70c4      	strb	r4, [r0, #3]
10007500:	2904      	cmp	r1, #4
10007502:	d100      	bne.n	10007506 <pico_get_unique_board_id_string+0x6a>
10007504:	e0b6      	b.n	10007674 <pico_get_unique_board_id_string+0x1d8>
10007506:	789a      	ldrb	r2, [r3, #2]
10007508:	4694      	mov	ip, r2
1000750a:	1112      	asrs	r2, r2, #4
1000750c:	0014      	movs	r4, r2
1000750e:	3430      	adds	r4, #48	@ 0x30
10007510:	2a09      	cmp	r2, #9
10007512:	dd00      	ble.n	10007516 <pico_get_unique_board_id_string+0x7a>
10007514:	e091      	b.n	1000763a <pico_get_unique_board_id_string+0x19e>
10007516:	7104      	strb	r4, [r0, #4]
10007518:	2905      	cmp	r1, #5
1000751a:	d100      	bne.n	1000751e <pico_get_unique_board_id_string+0x82>
1000751c:	e0aa      	b.n	10007674 <pico_get_unique_board_id_string+0x1d8>
1000751e:	4664      	mov	r4, ip
10007520:	220f      	movs	r2, #15
10007522:	4022      	ands	r2, r4
10007524:	0014      	movs	r4, r2
10007526:	3430      	adds	r4, #48	@ 0x30
10007528:	2a09      	cmp	r2, #9
1000752a:	d900      	bls.n	1000752e <pico_get_unique_board_id_string+0x92>
1000752c:	e088      	b.n	10007640 <pico_get_unique_board_id_string+0x1a4>
1000752e:	7144      	strb	r4, [r0, #5]
10007530:	2906      	cmp	r1, #6
10007532:	d100      	bne.n	10007536 <pico_get_unique_board_id_string+0x9a>
10007534:	e09e      	b.n	10007674 <pico_get_unique_board_id_string+0x1d8>
10007536:	2530      	movs	r5, #48	@ 0x30
10007538:	46ac      	mov	ip, r5
1000753a:	78dc      	ldrb	r4, [r3, #3]
1000753c:	1122      	asrs	r2, r4, #4
1000753e:	4494      	add	ip, r2
10007540:	2a09      	cmp	r2, #9
10007542:	dd00      	ble.n	10007546 <pico_get_unique_board_id_string+0xaa>
10007544:	e07f      	b.n	10007646 <pico_get_unique_board_id_string+0x1aa>
10007546:	4662      	mov	r2, ip
10007548:	7182      	strb	r2, [r0, #6]
1000754a:	2907      	cmp	r1, #7
1000754c:	d100      	bne.n	10007550 <pico_get_unique_board_id_string+0xb4>
1000754e:	e091      	b.n	10007674 <pico_get_unique_board_id_string+0x1d8>
10007550:	220f      	movs	r2, #15
10007552:	4022      	ands	r2, r4
10007554:	0014      	movs	r4, r2
10007556:	3430      	adds	r4, #48	@ 0x30
10007558:	2a09      	cmp	r2, #9
1000755a:	d900      	bls.n	1000755e <pico_get_unique_board_id_string+0xc2>
1000755c:	e077      	b.n	1000764e <pico_get_unique_board_id_string+0x1b2>
1000755e:	71c4      	strb	r4, [r0, #7]
10007560:	2908      	cmp	r1, #8
10007562:	d100      	bne.n	10007566 <pico_get_unique_board_id_string+0xca>
10007564:	e086      	b.n	10007674 <pico_get_unique_board_id_string+0x1d8>
10007566:	2530      	movs	r5, #48	@ 0x30
10007568:	46ac      	mov	ip, r5
1000756a:	791c      	ldrb	r4, [r3, #4]
1000756c:	1122      	asrs	r2, r4, #4
1000756e:	4494      	add	ip, r2
10007570:	2a09      	cmp	r2, #9
10007572:	dd00      	ble.n	10007576 <pico_get_unique_board_id_string+0xda>
10007574:	e06e      	b.n	10007654 <pico_get_unique_board_id_string+0x1b8>
10007576:	4662      	mov	r2, ip
10007578:	7202      	strb	r2, [r0, #8]
1000757a:	2909      	cmp	r1, #9
1000757c:	d100      	bne.n	10007580 <pico_get_unique_board_id_string+0xe4>
1000757e:	e079      	b.n	10007674 <pico_get_unique_board_id_string+0x1d8>
10007580:	220f      	movs	r2, #15
10007582:	4022      	ands	r2, r4
10007584:	0014      	movs	r4, r2
10007586:	3430      	adds	r4, #48	@ 0x30
10007588:	2a09      	cmp	r2, #9
1000758a:	d867      	bhi.n	1000765c <pico_get_unique_board_id_string+0x1c0>
1000758c:	7244      	strb	r4, [r0, #9]
1000758e:	290a      	cmp	r1, #10
10007590:	d100      	bne.n	10007594 <pico_get_unique_board_id_string+0xf8>
10007592:	e06f      	b.n	10007674 <pico_get_unique_board_id_string+0x1d8>
10007594:	2530      	movs	r5, #48	@ 0x30
10007596:	46ac      	mov	ip, r5
10007598:	795c      	ldrb	r4, [r3, #5]
1000759a:	1122      	asrs	r2, r4, #4
1000759c:	4494      	add	ip, r2
1000759e:	2a09      	cmp	r2, #9
100075a0:	dc5f      	bgt.n	10007662 <pico_get_unique_board_id_string+0x1c6>
100075a2:	4662      	mov	r2, ip
100075a4:	7282      	strb	r2, [r0, #10]
100075a6:	290b      	cmp	r1, #11
100075a8:	d064      	beq.n	10007674 <pico_get_unique_board_id_string+0x1d8>
100075aa:	220f      	movs	r2, #15
100075ac:	4022      	ands	r2, r4
100075ae:	0014      	movs	r4, r2
100075b0:	3430      	adds	r4, #48	@ 0x30
100075b2:	2a09      	cmp	r2, #9
100075b4:	d859      	bhi.n	1000766a <pico_get_unique_board_id_string+0x1ce>
100075b6:	72c4      	strb	r4, [r0, #11]
100075b8:	290c      	cmp	r1, #12
100075ba:	d05b      	beq.n	10007674 <pico_get_unique_board_id_string+0x1d8>
100075bc:	2530      	movs	r5, #48	@ 0x30
100075be:	46ac      	mov	ip, r5
100075c0:	799c      	ldrb	r4, [r3, #6]
100075c2:	1122      	asrs	r2, r4, #4
100075c4:	4494      	add	ip, r2
100075c6:	2a09      	cmp	r2, #9
100075c8:	dd02      	ble.n	100075d0 <pico_get_unique_board_id_string+0x134>
100075ca:	3507      	adds	r5, #7
100075cc:	46ac      	mov	ip, r5
100075ce:	4494      	add	ip, r2
100075d0:	4662      	mov	r2, ip
100075d2:	7302      	strb	r2, [r0, #12]
100075d4:	290d      	cmp	r1, #13
100075d6:	d04d      	beq.n	10007674 <pico_get_unique_board_id_string+0x1d8>
100075d8:	220f      	movs	r2, #15
100075da:	4022      	ands	r2, r4
100075dc:	0014      	movs	r4, r2
100075de:	3430      	adds	r4, #48	@ 0x30
100075e0:	2a09      	cmp	r2, #9
100075e2:	d901      	bls.n	100075e8 <pico_get_unique_board_id_string+0x14c>
100075e4:	3237      	adds	r2, #55	@ 0x37
100075e6:	0014      	movs	r4, r2
100075e8:	7344      	strb	r4, [r0, #13]
100075ea:	290e      	cmp	r1, #14
100075ec:	d042      	beq.n	10007674 <pico_get_unique_board_id_string+0x1d8>
100075ee:	79da      	ldrb	r2, [r3, #7]
100075f0:	1113      	asrs	r3, r2, #4
100075f2:	001c      	movs	r4, r3
100075f4:	3430      	adds	r4, #48	@ 0x30
100075f6:	2b09      	cmp	r3, #9
100075f8:	dd01      	ble.n	100075fe <pico_get_unique_board_id_string+0x162>
100075fa:	3337      	adds	r3, #55	@ 0x37
100075fc:	001c      	movs	r4, r3
100075fe:	7384      	strb	r4, [r0, #14]
10007600:	290f      	cmp	r1, #15
10007602:	d037      	beq.n	10007674 <pico_get_unique_board_id_string+0x1d8>
10007604:	230f      	movs	r3, #15
10007606:	4013      	ands	r3, r2
10007608:	001a      	movs	r2, r3
1000760a:	3237      	adds	r2, #55	@ 0x37
1000760c:	2b09      	cmp	r3, #9
1000760e:	d801      	bhi.n	10007614 <pico_get_unique_board_id_string+0x178>
10007610:	3330      	adds	r3, #48	@ 0x30
10007612:	001a      	movs	r2, r3
10007614:	73c2      	strb	r2, [r0, #15]
10007616:	2910      	cmp	r1, #16
10007618:	d02c      	beq.n	10007674 <pico_get_unique_board_id_string+0x1d8>
1000761a:	3010      	adds	r0, #16
1000761c:	2300      	movs	r3, #0
1000761e:	7003      	strb	r3, [r0, #0]
10007620:	bd30      	pop	{r4, r5, pc}
10007622:	3237      	adds	r2, #55	@ 0x37
10007624:	0014      	movs	r4, r2
10007626:	e746      	b.n	100074b6 <pico_get_unique_board_id_string+0x1a>
10007628:	3237      	adds	r2, #55	@ 0x37
1000762a:	0014      	movs	r4, r2
1000762c:	e74f      	b.n	100074ce <pico_get_unique_board_id_string+0x32>
1000762e:	3237      	adds	r2, #55	@ 0x37
10007630:	0014      	movs	r4, r2
10007632:	e758      	b.n	100074e6 <pico_get_unique_board_id_string+0x4a>
10007634:	3237      	adds	r2, #55	@ 0x37
10007636:	0014      	movs	r4, r2
10007638:	e761      	b.n	100074fe <pico_get_unique_board_id_string+0x62>
1000763a:	3237      	adds	r2, #55	@ 0x37
1000763c:	0014      	movs	r4, r2
1000763e:	e76a      	b.n	10007516 <pico_get_unique_board_id_string+0x7a>
10007640:	3237      	adds	r2, #55	@ 0x37
10007642:	0014      	movs	r4, r2
10007644:	e773      	b.n	1000752e <pico_get_unique_board_id_string+0x92>
10007646:	3507      	adds	r5, #7
10007648:	46ac      	mov	ip, r5
1000764a:	4494      	add	ip, r2
1000764c:	e77b      	b.n	10007546 <pico_get_unique_board_id_string+0xaa>
1000764e:	3237      	adds	r2, #55	@ 0x37
10007650:	0014      	movs	r4, r2
10007652:	e784      	b.n	1000755e <pico_get_unique_board_id_string+0xc2>
10007654:	3507      	adds	r5, #7
10007656:	46ac      	mov	ip, r5
10007658:	4494      	add	ip, r2
1000765a:	e78c      	b.n	10007576 <pico_get_unique_board_id_string+0xda>
1000765c:	3237      	adds	r2, #55	@ 0x37
1000765e:	0014      	movs	r4, r2
10007660:	e794      	b.n	1000758c <pico_get_unique_board_id_string+0xf0>
10007662:	3507      	adds	r5, #7
10007664:	46ac      	mov	ip, r5
10007666:	4494      	add	ip, r2
10007668:	e79b      	b.n	100075a2 <pico_get_unique_board_id_string+0x106>
1000766a:	3237      	adds	r2, #55	@ 0x37
1000766c:	0014      	movs	r4, r2
1000766e:	72c4      	strb	r4, [r0, #11]
10007670:	290c      	cmp	r1, #12
10007672:	d1a3      	bne.n	100075bc <pico_get_unique_board_id_string+0x120>
10007674:	1840      	adds	r0, r0, r1
10007676:	e7d1      	b.n	1000761c <pico_get_unique_board_id_string+0x180>
10007678:	20005810 	.word	0x20005810

1000767c <flash_get_unique_id>:
1000767c:	b510      	push	{r4, lr}
1000767e:	b088      	sub	sp, #32
10007680:	0004      	movs	r4, r0
10007682:	220d      	movs	r2, #13
10007684:	2100      	movs	r1, #0
10007686:	4668      	mov	r0, sp
10007688:	f7fd ffb0 	bl	100055ec <__wrap_memset>
1000768c:	220d      	movs	r2, #13
1000768e:	2100      	movs	r1, #0
10007690:	a804      	add	r0, sp, #16
10007692:	f7fd ffab 	bl	100055ec <__wrap_memset>
10007696:	234b      	movs	r3, #75	@ 0x4b
10007698:	466a      	mov	r2, sp
1000769a:	4668      	mov	r0, sp
1000769c:	7013      	strb	r3, [r2, #0]
1000769e:	a904      	add	r1, sp, #16
100076a0:	220d      	movs	r2, #13
100076a2:	f002 fef5 	bl	1000a490 <__flash_do_cmd_veneer>
100076a6:	2115      	movs	r1, #21
100076a8:	2208      	movs	r2, #8
100076aa:	0020      	movs	r0, r4
100076ac:	4469      	add	r1, sp
100076ae:	f7fd ffa3 	bl	100055f8 <__wrap___aeabi_memcpy>
100076b2:	b008      	add	sp, #32
100076b4:	bd10      	pop	{r4, pc}
100076b6:	46c0      	nop			@ (mov r8, r8)

100076b8 <dcd_init>:
100076b8:	b5f8      	push	{r3, r4, r5, r6, r7, lr}
100076ba:	f000 f9cb 	bl	10007a54 <rp2040_usb_init>
100076be:	230c      	movs	r3, #12
100076c0:	4d19      	ldr	r5, [pc, #100]	@ (10007728 <dcd_init+0x70>)
100076c2:	22ff      	movs	r2, #255	@ 0xff
100076c4:	67ab      	str	r3, [r5, #120]	@ 0x78
100076c6:	2005      	movs	r0, #5
100076c8:	4918      	ldr	r1, [pc, #96]	@ (1000772c <dcd_init+0x74>)
100076ca:	f7fb fea5 	bl	10003418 <irq_add_shared_handler>
100076ce:	4c18      	ldr	r4, [pc, #96]	@ (10007730 <dcd_init+0x78>)
100076d0:	2240      	movs	r2, #64	@ 0x40
100076d2:	2100      	movs	r1, #0
100076d4:	0020      	movs	r0, r4
100076d6:	f7fd ff89 	bl	100055ec <__wrap_memset>
100076da:	2740      	movs	r7, #64	@ 0x40
100076dc:	2300      	movs	r3, #0
100076de:	2601      	movs	r6, #1
100076e0:	2121      	movs	r1, #33	@ 0x21
100076e2:	4a14      	ldr	r2, [pc, #80]	@ (10007734 <dcd_init+0x7c>)
100076e4:	7066      	strb	r6, [r4, #1]
100076e6:	8327      	strh	r7, [r4, #24]
100076e8:	60a2      	str	r2, [r4, #8]
100076ea:	6013      	str	r3, [r2, #0]
100076ec:	5463      	strb	r3, [r4, r1]
100076ee:	315f      	adds	r1, #95	@ 0x5f
100076f0:	8461      	strh	r1, [r4, #34]	@ 0x22
100076f2:	3945      	subs	r1, #69	@ 0x45
100076f4:	5463      	strb	r3, [r4, r1]
100076f6:	4a10      	ldr	r2, [pc, #64]	@ (10007738 <dcd_init+0x80>)
100076f8:	4910      	ldr	r1, [pc, #64]	@ (1000773c <dcd_init+0x84>)
100076fa:	6063      	str	r3, [r4, #4]
100076fc:	60e2      	str	r2, [r4, #12]
100076fe:	8727      	strh	r7, [r4, #56]	@ 0x38
10007700:	62a1      	str	r1, [r4, #40]	@ 0x28
10007702:	600b      	str	r3, [r1, #0]
10007704:	6263      	str	r3, [r4, #36]	@ 0x24
10007706:	62e2      	str	r2, [r4, #44]	@ 0x2c
10007708:	f002 feb2 	bl	1000a470 <__reset_non_control_endpoints_veneer>
1000770c:	2380      	movs	r3, #128	@ 0x80
1000770e:	059b      	lsls	r3, r3, #22
10007710:	642e      	str	r6, [r5, #64]	@ 0x40
10007712:	64eb      	str	r3, [r5, #76]	@ 0x4c
10007714:	2390      	movs	r3, #144	@ 0x90
10007716:	4a0a      	ldr	r2, [pc, #40]	@ (10007740 <dcd_init+0x88>)
10007718:	2001      	movs	r0, #1
1000771a:	50ea      	str	r2, [r5, r3]
1000771c:	2280      	movs	r2, #128	@ 0x80
1000771e:	4b09      	ldr	r3, [pc, #36]	@ (10007744 <dcd_init+0x8c>)
10007720:	0252      	lsls	r2, r2, #9
10007722:	64da      	str	r2, [r3, #76]	@ 0x4c
10007724:	bdf8      	pop	{r3, r4, r5, r6, r7, pc}
10007726:	46c0      	nop			@ (mov r8, r8)
10007728:	50110000 	.word	0x50110000
1000772c:	200004d5 	.word	0x200004d5
10007730:	20005160 	.word	0x20005160
10007734:	50100084 	.word	0x50100084
10007738:	50100100 	.word	0x50100100
1000773c:	50100080 	.word	0x50100080
10007740:	0001d010 	.word	0x0001d010
10007744:	50112000 	.word	0x50112000

10007748 <dcd_int_enable>:
10007748:	b510      	push	{r4, lr}
1000774a:	2101      	movs	r1, #1
1000774c:	2005      	movs	r0, #5
1000774e:	f7fb fe1b 	bl	10003388 <irq_set_enabled>
10007752:	bd10      	pop	{r4, pc}

10007754 <dcd_set_address>:
10007754:	b510      	push	{r4, lr}
10007756:	2200      	movs	r2, #0
10007758:	2100      	movs	r1, #0
1000775a:	4802      	ldr	r0, [pc, #8]	@ (10007764 <dcd_set_address+0x10>)
1000775c:	f000 f99a 	bl	10007a94 <hw_endpoint_xfer_start>
10007760:	bd10      	pop	{r4, pc}
10007762:	46c0      	nop			@ (mov r8, r8)
10007764:	20005180 	.word	0x20005180

10007768 <dcd_sof_enable>:
10007768:	4b04      	ldr	r3, [pc, #16]	@ (1000777c <dcd_sof_enable+0x14>)
1000776a:	7019      	strb	r1, [r3, #0]
1000776c:	2900      	cmp	r1, #0
1000776e:	d004      	beq.n	1000777a <dcd_sof_enable+0x12>
10007770:	2180      	movs	r1, #128	@ 0x80
10007772:	2390      	movs	r3, #144	@ 0x90
10007774:	4a02      	ldr	r2, [pc, #8]	@ (10007780 <dcd_sof_enable+0x18>)
10007776:	0289      	lsls	r1, r1, #10
10007778:	50d1      	str	r1, [r2, r3]
1000777a:	4770      	bx	lr
1000777c:	2000f06d 	.word	0x2000f06d
10007780:	50112000 	.word	0x50112000

10007784 <dcd_edpt0_status_complete>:
10007784:	780b      	ldrb	r3, [r1, #0]
10007786:	065b      	lsls	r3, r3, #25
10007788:	d000      	beq.n	1000778c <dcd_edpt0_status_complete+0x8>
1000778a:	4770      	bx	lr
1000778c:	784b      	ldrb	r3, [r1, #1]
1000778e:	2b05      	cmp	r3, #5
10007790:	d1fb      	bne.n	1000778a <dcd_edpt0_status_complete+0x6>
10007792:	788a      	ldrb	r2, [r1, #2]
10007794:	4b01      	ldr	r3, [pc, #4]	@ (1000779c <dcd_edpt0_status_complete+0x18>)
10007796:	601a      	str	r2, [r3, #0]
10007798:	e7f7      	b.n	1000778a <dcd_edpt0_status_complete+0x6>
1000779a:	46c0      	nop			@ (mov r8, r8)
1000779c:	50110000 	.word	0x50110000

100077a0 <dcd_edpt_open>:
100077a0:	b5f8      	push	{r3, r4, r5, r6, r7, lr}
100077a2:	46ce      	mov	lr, r9
100077a4:	4647      	mov	r7, r8
100077a6:	78c8      	ldrb	r0, [r1, #3]
100077a8:	b580      	push	{r7, lr}
100077aa:	0780      	lsls	r0, r0, #30
100077ac:	0f83      	lsrs	r3, r0, #30
100077ae:	0018      	movs	r0, r3
100077b0:	2b01      	cmp	r3, #1
100077b2:	d061      	beq.n	10007878 <dcd_edpt_open+0xd8>
100077b4:	788b      	ldrb	r3, [r1, #2]
100077b6:	790a      	ldrb	r2, [r1, #4]
100077b8:	469c      	mov	ip, r3
100077ba:	794b      	ldrb	r3, [r1, #5]
100077bc:	217f      	movs	r1, #127	@ 0x7f
100077be:	021b      	lsls	r3, r3, #8
100077c0:	4313      	orrs	r3, r2
100077c2:	055b      	lsls	r3, r3, #21
100077c4:	0d5e      	lsrs	r6, r3, #21
100077c6:	4663      	mov	r3, ip
100077c8:	4019      	ands	r1, r3
100077ca:	09dc      	lsrs	r4, r3, #7
100077cc:	004b      	lsls	r3, r1, #1
100077ce:	191a      	adds	r2, r3, r4
100077d0:	001f      	movs	r7, r3
100077d2:	4663      	mov	r3, ip
100077d4:	4d2f      	ldr	r5, [pc, #188]	@ (10007894 <dcd_edpt_open+0xf4>)
100077d6:	0152      	lsls	r2, r2, #5
100077d8:	18aa      	adds	r2, r5, r2
100077da:	7093      	strb	r3, [r2, #2]
100077dc:	2301      	movs	r3, #1
100077de:	4063      	eors	r3, r4
100077e0:	7053      	strb	r3, [r2, #1]
100077e2:	2300      	movs	r3, #0
100077e4:	8316      	strh	r6, [r2, #24]
100077e6:	70d3      	strb	r3, [r2, #3]
100077e8:	76d0      	strb	r0, [r2, #27]
100077ea:	46b1      	mov	r9, r6
100077ec:	00ca      	lsls	r2, r1, #3
100077ee:	2c01      	cmp	r4, #1
100077f0:	d031      	beq.n	10007856 <dcd_edpt_open+0xb6>
100077f2:	4e29      	ldr	r6, [pc, #164]	@ (10007898 <dcd_edpt_open+0xf8>)
100077f4:	1992      	adds	r2, r2, r6
100077f6:	018e      	lsls	r6, r1, #6
100077f8:	46b4      	mov	ip, r6
100077fa:	44ac      	add	ip, r5
100077fc:	4666      	mov	r6, ip
100077fe:	60b2      	str	r2, [r6, #8]
10007800:	6013      	str	r3, [r2, #0]
10007802:	2900      	cmp	r1, #0
10007804:	d031      	beq.n	1000786a <dcd_edpt_open+0xca>
10007806:	4b25      	ldr	r3, [pc, #148]	@ (1000789c <dcd_edpt_open+0xfc>)
10007808:	00c9      	lsls	r1, r1, #3
1000780a:	18c9      	adds	r1, r1, r3
1000780c:	6071      	str	r1, [r6, #4]
1000780e:	464b      	mov	r3, r9
10007810:	333f      	adds	r3, #63	@ 0x3f
10007812:	099b      	lsrs	r3, r3, #6
10007814:	2802      	cmp	r0, #2
10007816:	d036      	beq.n	10007886 <dcd_edpt_open+0xe6>
10007818:	019b      	lsls	r3, r3, #6
1000781a:	4821      	ldr	r0, [pc, #132]	@ (100078a0 <dcd_edpt_open+0x100>)
1000781c:	1939      	adds	r1, r7, r4
1000781e:	6802      	ldr	r2, [r0, #0]
10007820:	0149      	lsls	r1, r1, #5
10007822:	1869      	adds	r1, r5, r1
10007824:	000e      	movs	r6, r1
10007826:	60ca      	str	r2, [r1, #12]
10007828:	491e      	ldr	r1, [pc, #120]	@ (100078a4 <dcd_edpt_open+0x104>)
1000782a:	18d3      	adds	r3, r2, r3
1000782c:	6003      	str	r3, [r0, #0]
1000782e:	428b      	cmp	r3, r1
10007830:	d82b      	bhi.n	1000788a <dcd_edpt_open+0xea>
10007832:	193b      	adds	r3, r7, r4
10007834:	015b      	lsls	r3, r3, #5
10007836:	18ed      	adds	r5, r5, r3
10007838:	7eeb      	ldrb	r3, [r5, #27]
1000783a:	491b      	ldr	r1, [pc, #108]	@ (100078a8 <dcd_edpt_open+0x108>)
1000783c:	069b      	lsls	r3, r3, #26
1000783e:	404a      	eors	r2, r1
10007840:	4313      	orrs	r3, r2
10007842:	2280      	movs	r2, #128	@ 0x80
10007844:	0612      	lsls	r2, r2, #24
10007846:	4313      	orrs	r3, r2
10007848:	686a      	ldr	r2, [r5, #4]
1000784a:	6013      	str	r3, [r2, #0]
1000784c:	2001      	movs	r0, #1
1000784e:	bcc0      	pop	{r6, r7}
10007850:	46b9      	mov	r9, r7
10007852:	46b0      	mov	r8, r6
10007854:	bdf8      	pop	{r3, r4, r5, r6, r7, pc}
10007856:	4e15      	ldr	r6, [pc, #84]	@ (100078ac <dcd_edpt_open+0x10c>)
10007858:	1992      	adds	r2, r2, r6
1000785a:	018e      	lsls	r6, r1, #6
1000785c:	46b4      	mov	ip, r6
1000785e:	44ac      	add	ip, r5
10007860:	4666      	mov	r6, ip
10007862:	62b2      	str	r2, [r6, #40]	@ 0x28
10007864:	6013      	str	r3, [r2, #0]
10007866:	2900      	cmp	r1, #0
10007868:	d108      	bne.n	1000787c <dcd_edpt_open+0xdc>
1000786a:	2300      	movs	r3, #0
1000786c:	0164      	lsls	r4, r4, #5
1000786e:	192c      	adds	r4, r5, r4
10007870:	6063      	str	r3, [r4, #4]
10007872:	4b0f      	ldr	r3, [pc, #60]	@ (100078b0 <dcd_edpt_open+0x110>)
10007874:	60e3      	str	r3, [r4, #12]
10007876:	e7e9      	b.n	1000784c <dcd_edpt_open+0xac>
10007878:	2000      	movs	r0, #0
1000787a:	e7e8      	b.n	1000784e <dcd_edpt_open+0xae>
1000787c:	4b0a      	ldr	r3, [pc, #40]	@ (100078a8 <dcd_edpt_open+0x108>)
1000787e:	00c9      	lsls	r1, r1, #3
10007880:	18c9      	adds	r1, r1, r3
10007882:	6271      	str	r1, [r6, #36]	@ 0x24
10007884:	e7c3      	b.n	1000780e <dcd_edpt_open+0x6e>
10007886:	01db      	lsls	r3, r3, #7
10007888:	e7c7      	b.n	1000781a <dcd_edpt_open+0x7a>
1000788a:	f7fc fe65 	bl	10004558 <hard_assertion_failure>
1000788e:	68f2      	ldr	r2, [r6, #12]
10007890:	e7cf      	b.n	10007832 <dcd_edpt_open+0x92>
10007892:	46c0      	nop			@ (mov r8, r8)
10007894:	20005160 	.word	0x20005160
10007898:	50100084 	.word	0x50100084
1000789c:	50100004 	.word	0x50100004
100078a0:	20005630 	.word	0x20005630
100078a4:	50100fff 	.word	0x50100fff
100078a8:	50100000 	.word	0x50100000
100078ac:	50100080 	.word	0x50100080
100078b0:	50100100 	.word	0x50100100

100078b4 <dcd_edpt_iso_alloc>:
100078b4:	207f      	movs	r0, #127	@ 0x7f
100078b6:	b5f0      	push	{r4, r5, r6, r7, lr}
100078b8:	000e      	movs	r6, r1
100078ba:	46c6      	mov	lr, r8
100078bc:	4008      	ands	r0, r1
100078be:	09cd      	lsrs	r5, r1, #7
100078c0:	0041      	lsls	r1, r0, #1
100078c2:	4c24      	ldr	r4, [pc, #144]	@ (10007954 <dcd_edpt_iso_alloc+0xa0>)
100078c4:	194b      	adds	r3, r1, r5
100078c6:	015b      	lsls	r3, r3, #5
100078c8:	18e3      	adds	r3, r4, r3
100078ca:	b500      	push	{lr}
100078cc:	709e      	strb	r6, [r3, #2]
100078ce:	2601      	movs	r6, #1
100078d0:	406e      	eors	r6, r5
100078d2:	705e      	strb	r6, [r3, #1]
100078d4:	2600      	movs	r6, #0
100078d6:	70de      	strb	r6, [r3, #3]
100078d8:	46b4      	mov	ip, r6
100078da:	3601      	adds	r6, #1
100078dc:	831a      	strh	r2, [r3, #24]
100078de:	76de      	strb	r6, [r3, #27]
100078e0:	00c3      	lsls	r3, r0, #3
100078e2:	2d01      	cmp	r5, #1
100078e4:	d024      	beq.n	10007930 <dcd_edpt_iso_alloc+0x7c>
100078e6:	4667      	mov	r7, ip
100078e8:	4e1b      	ldr	r6, [pc, #108]	@ (10007958 <dcd_edpt_iso_alloc+0xa4>)
100078ea:	199b      	adds	r3, r3, r6
100078ec:	0186      	lsls	r6, r0, #6
100078ee:	19a6      	adds	r6, r4, r6
100078f0:	60b3      	str	r3, [r6, #8]
100078f2:	601f      	str	r7, [r3, #0]
100078f4:	2800      	cmp	r0, #0
100078f6:	d116      	bne.n	10007926 <dcd_edpt_iso_alloc+0x72>
100078f8:	016b      	lsls	r3, r5, #5
100078fa:	18e3      	adds	r3, r4, r3
100078fc:	6058      	str	r0, [r3, #4]
100078fe:	4817      	ldr	r0, [pc, #92]	@ (1000795c <dcd_edpt_iso_alloc+0xa8>)
10007900:	60d8      	str	r0, [r3, #12]
10007902:	4e17      	ldr	r6, [pc, #92]	@ (10007960 <dcd_edpt_iso_alloc+0xac>)
10007904:	194b      	adds	r3, r1, r5
10007906:	323f      	adds	r2, #63	@ 0x3f
10007908:	6830      	ldr	r0, [r6, #0]
1000790a:	015b      	lsls	r3, r3, #5
1000790c:	0992      	lsrs	r2, r2, #6
1000790e:	18e4      	adds	r4, r4, r3
10007910:	0192      	lsls	r2, r2, #6
10007912:	4b14      	ldr	r3, [pc, #80]	@ (10007964 <dcd_edpt_iso_alloc+0xb0>)
10007914:	60e0      	str	r0, [r4, #12]
10007916:	1880      	adds	r0, r0, r2
10007918:	6030      	str	r0, [r6, #0]
1000791a:	4298      	cmp	r0, r3
1000791c:	d816      	bhi.n	1000794c <dcd_edpt_iso_alloc+0x98>
1000791e:	2001      	movs	r0, #1
10007920:	bc80      	pop	{r7}
10007922:	46b8      	mov	r8, r7
10007924:	bdf0      	pop	{r4, r5, r6, r7, pc}
10007926:	4b10      	ldr	r3, [pc, #64]	@ (10007968 <dcd_edpt_iso_alloc+0xb4>)
10007928:	00c0      	lsls	r0, r0, #3
1000792a:	18c0      	adds	r0, r0, r3
1000792c:	6070      	str	r0, [r6, #4]
1000792e:	e7e8      	b.n	10007902 <dcd_edpt_iso_alloc+0x4e>
10007930:	4667      	mov	r7, ip
10007932:	4e0e      	ldr	r6, [pc, #56]	@ (1000796c <dcd_edpt_iso_alloc+0xb8>)
10007934:	199b      	adds	r3, r3, r6
10007936:	0186      	lsls	r6, r0, #6
10007938:	19a6      	adds	r6, r4, r6
1000793a:	62b3      	str	r3, [r6, #40]	@ 0x28
1000793c:	601f      	str	r7, [r3, #0]
1000793e:	2800      	cmp	r0, #0
10007940:	d0da      	beq.n	100078f8 <dcd_edpt_iso_alloc+0x44>
10007942:	4b0b      	ldr	r3, [pc, #44]	@ (10007970 <dcd_edpt_iso_alloc+0xbc>)
10007944:	00c0      	lsls	r0, r0, #3
10007946:	18c0      	adds	r0, r0, r3
10007948:	6270      	str	r0, [r6, #36]	@ 0x24
1000794a:	e7da      	b.n	10007902 <dcd_edpt_iso_alloc+0x4e>
1000794c:	f7fc fe04 	bl	10004558 <hard_assertion_failure>
10007950:	e7e5      	b.n	1000791e <dcd_edpt_iso_alloc+0x6a>
10007952:	46c0      	nop			@ (mov r8, r8)
10007954:	20005160 	.word	0x20005160
10007958:	50100084 	.word	0x50100084
1000795c:	50100100 	.word	0x50100100
10007960:	20005630 	.word	0x20005630
10007964:	50100fff 	.word	0x50100fff
10007968:	50100004 	.word	0x50100004
1000796c:	50100080 	.word	0x50100080
10007970:	50100000 	.word	0x50100000

10007974 <dcd_edpt_iso_activate>:
10007974:	237f      	movs	r3, #127	@ 0x7f
10007976:	788a      	ldrb	r2, [r1, #2]
10007978:	480e      	ldr	r0, [pc, #56]	@ (100079b4 <dcd_edpt_iso_activate+0x40>)
1000797a:	4013      	ands	r3, r2
1000797c:	005b      	lsls	r3, r3, #1
1000797e:	09d2      	lsrs	r2, r2, #7
10007980:	189b      	adds	r3, r3, r2
10007982:	015b      	lsls	r3, r3, #5
10007984:	18c3      	adds	r3, r0, r3
10007986:	68d8      	ldr	r0, [r3, #12]
10007988:	2800      	cmp	r0, #0
1000798a:	d011      	beq.n	100079b0 <dcd_edpt_iso_activate+0x3c>
1000798c:	790a      	ldrb	r2, [r1, #4]
1000798e:	4694      	mov	ip, r2
10007990:	794a      	ldrb	r2, [r1, #5]
10007992:	4661      	mov	r1, ip
10007994:	0212      	lsls	r2, r2, #8
10007996:	430a      	orrs	r2, r1
10007998:	831a      	strh	r2, [r3, #24]
1000799a:	4907      	ldr	r1, [pc, #28]	@ (100079b8 <dcd_edpt_iso_activate+0x44>)
1000799c:	7eda      	ldrb	r2, [r3, #27]
1000799e:	4041      	eors	r1, r0
100079a0:	0692      	lsls	r2, r2, #26
100079a2:	430a      	orrs	r2, r1
100079a4:	2180      	movs	r1, #128	@ 0x80
100079a6:	2001      	movs	r0, #1
100079a8:	685b      	ldr	r3, [r3, #4]
100079aa:	0609      	lsls	r1, r1, #24
100079ac:	430a      	orrs	r2, r1
100079ae:	601a      	str	r2, [r3, #0]
100079b0:	4770      	bx	lr
100079b2:	46c0      	nop			@ (mov r8, r8)
100079b4:	20005160 	.word	0x20005160
100079b8:	50100000 	.word	0x50100000

100079bc <dcd_edpt_close_all>:
100079bc:	b510      	push	{r4, lr}
100079be:	f002 fd57 	bl	1000a470 <__reset_non_control_endpoints_veneer>
100079c2:	bd10      	pop	{r4, pc}

100079c4 <dcd_edpt_xfer>:
100079c4:	207f      	movs	r0, #127	@ 0x7f
100079c6:	b510      	push	{r4, lr}
100079c8:	4008      	ands	r0, r1
100079ca:	0040      	lsls	r0, r0, #1
100079cc:	09c9      	lsrs	r1, r1, #7
100079ce:	1840      	adds	r0, r0, r1
100079d0:	0011      	movs	r1, r2
100079d2:	4a04      	ldr	r2, [pc, #16]	@ (100079e4 <dcd_edpt_xfer+0x20>)
100079d4:	0140      	lsls	r0, r0, #5
100079d6:	1880      	adds	r0, r0, r2
100079d8:	001a      	movs	r2, r3
100079da:	f000 f85b 	bl	10007a94 <hw_endpoint_xfer_start>
100079de:	2001      	movs	r0, #1
100079e0:	bd10      	pop	{r4, pc}
100079e2:	46c0      	nop			@ (mov r8, r8)
100079e4:	20005160 	.word	0x20005160

100079e8 <dcd_edpt_stall>:
100079e8:	237f      	movs	r3, #127	@ 0x7f
100079ea:	0018      	movs	r0, r3
100079ec:	b500      	push	{lr}
100079ee:	4008      	ands	r0, r1
100079f0:	b083      	sub	sp, #12
100079f2:	420b      	tst	r3, r1
100079f4:	d104      	bne.n	10007a00 <dcd_edpt_stall+0x18>
100079f6:	424b      	negs	r3, r1
100079f8:	414b      	adcs	r3, r1
100079fa:	4a08      	ldr	r2, [pc, #32]	@ (10007a1c <dcd_edpt_stall+0x34>)
100079fc:	3301      	adds	r3, #1
100079fe:	6693      	str	r3, [r2, #104]	@ 0x68
10007a00:	2280      	movs	r2, #128	@ 0x80
10007a02:	09c9      	lsrs	r1, r1, #7
10007a04:	0040      	lsls	r0, r0, #1
10007a06:	4b06      	ldr	r3, [pc, #24]	@ (10007a20 <dcd_edpt_stall+0x38>)
10007a08:	1840      	adds	r0, r0, r1
10007a0a:	0140      	lsls	r0, r0, #5
10007a0c:	2100      	movs	r1, #0
10007a0e:	18c0      	adds	r0, r0, r3
10007a10:	0112      	lsls	r2, r2, #4
10007a12:	f002 fd7d 	bl	1000a510 <___hw_endpoint_buffer_control_update32_veneer>
10007a16:	b003      	add	sp, #12
10007a18:	bd00      	pop	{pc}
10007a1a:	46c0      	nop			@ (mov r8, r8)
10007a1c:	50112000 	.word	0x50112000
10007a20:	20005160 	.word	0x20005160

10007a24 <dcd_edpt_clear_stall>:
10007a24:	227f      	movs	r2, #127	@ 0x7f
10007a26:	0013      	movs	r3, r2
10007a28:	b510      	push	{r4, lr}
10007a2a:	400b      	ands	r3, r1
10007a2c:	420a      	tst	r2, r1
10007a2e:	d100      	bne.n	10007a32 <dcd_edpt_clear_stall+0xe>
10007a30:	bd10      	pop	{r4, pc}
10007a32:	09c9      	lsrs	r1, r1, #7
10007a34:	005b      	lsls	r3, r3, #1
10007a36:	185b      	adds	r3, r3, r1
10007a38:	4804      	ldr	r0, [pc, #16]	@ (10007a4c <dcd_edpt_clear_stall+0x28>)
10007a3a:	015b      	lsls	r3, r3, #5
10007a3c:	18c0      	adds	r0, r0, r3
10007a3e:	2300      	movs	r3, #0
10007a40:	2200      	movs	r2, #0
10007a42:	4903      	ldr	r1, [pc, #12]	@ (10007a50 <dcd_edpt_clear_stall+0x2c>)
10007a44:	70c3      	strb	r3, [r0, #3]
10007a46:	f002 fd63 	bl	1000a510 <___hw_endpoint_buffer_control_update32_veneer>
10007a4a:	e7f1      	b.n	10007a30 <dcd_edpt_clear_stall+0xc>
10007a4c:	20005160 	.word	0x20005160
10007a50:	fffff7ff 	.word	0xfffff7ff

10007a54 <rp2040_usb_init>:
10007a54:	2280      	movs	r2, #128	@ 0x80
10007a56:	4b0a      	ldr	r3, [pc, #40]	@ (10007a80 <rp2040_usb_init+0x2c>)
10007a58:	0452      	lsls	r2, r2, #17
10007a5a:	b510      	push	{r4, lr}
10007a5c:	601a      	str	r2, [r3, #0]
10007a5e:	4b09      	ldr	r3, [pc, #36]	@ (10007a84 <rp2040_usb_init+0x30>)
10007a60:	4909      	ldr	r1, [pc, #36]	@ (10007a88 <rp2040_usb_init+0x34>)
10007a62:	601a      	str	r2, [r3, #0]
10007a64:	0010      	movs	r0, r2
10007a66:	680b      	ldr	r3, [r1, #0]
10007a68:	4398      	bics	r0, r3
10007a6a:	d1fb      	bne.n	10007a64 <rp2040_usb_init+0x10>
10007a6c:	2280      	movs	r2, #128	@ 0x80
10007a6e:	2100      	movs	r1, #0
10007a70:	0152      	lsls	r2, r2, #5
10007a72:	4806      	ldr	r0, [pc, #24]	@ (10007a8c <rp2040_usb_init+0x38>)
10007a74:	f7fd fdba 	bl	100055ec <__wrap_memset>
10007a78:	2209      	movs	r2, #9
10007a7a:	4b05      	ldr	r3, [pc, #20]	@ (10007a90 <rp2040_usb_init+0x3c>)
10007a7c:	675a      	str	r2, [r3, #116]	@ 0x74
10007a7e:	bd10      	pop	{r4, pc}
10007a80:	4000e000 	.word	0x4000e000
10007a84:	4000f000 	.word	0x4000f000
10007a88:	4000c008 	.word	0x4000c008
10007a8c:	50100000 	.word	0x50100000
10007a90:	50110000 	.word	0x50110000

10007a94 <hw_endpoint_xfer_start>:
10007a94:	2300      	movs	r3, #0
10007a96:	b510      	push	{r4, lr}
10007a98:	82c3      	strh	r3, [r0, #22]
10007a9a:	3301      	adds	r3, #1
10007a9c:	8282      	strh	r2, [r0, #20]
10007a9e:	7683      	strb	r3, [r0, #26]
10007aa0:	6101      	str	r1, [r0, #16]
10007aa2:	0004      	movs	r4, r0
10007aa4:	f002 fd0c 	bl	1000a4c0 <__e15_is_bulkin_ep_veneer>
10007aa8:	2800      	cmp	r0, #0
10007aaa:	d004      	beq.n	10007ab6 <hw_endpoint_xfer_start+0x22>
10007aac:	2180      	movs	r1, #128	@ 0x80
10007aae:	2390      	movs	r3, #144	@ 0x90
10007ab0:	4a07      	ldr	r2, [pc, #28]	@ (10007ad0 <hw_endpoint_xfer_start+0x3c>)
10007ab2:	0289      	lsls	r1, r1, #10
10007ab4:	50d1      	str	r1, [r2, r3]
10007ab6:	0020      	movs	r0, r4
10007ab8:	f002 fce2 	bl	1000a480 <__e15_is_critical_frame_period_veneer>
10007abc:	2800      	cmp	r0, #0
10007abe:	d002      	beq.n	10007ac6 <hw_endpoint_xfer_start+0x32>
10007ac0:	2301      	movs	r3, #1
10007ac2:	7723      	strb	r3, [r4, #28]
10007ac4:	bd10      	pop	{r4, pc}
10007ac6:	0020      	movs	r0, r4
10007ac8:	f002 fd1a 	bl	1000a500 <__hw_endpoint_start_next_buffer_veneer>
10007acc:	e7fa      	b.n	10007ac4 <hw_endpoint_xfer_start+0x30>
10007ace:	46c0      	nop			@ (mov r8, r8)
10007ad0:	50112000 	.word	0x50112000

10007ad4 <tud_vendor_control_xfer_cb>:
10007ad4:	2000      	movs	r0, #0
10007ad6:	4770      	bx	lr

10007ad8 <tud_event_hook_cb>:
10007ad8:	4770      	bx	lr
10007ada:	46c0      	nop			@ (mov r8, r8)

10007adc <tud_sof_cb>:
10007adc:	4770      	bx	lr
10007ade:	46c0      	nop			@ (mov r8, r8)

10007ae0 <tud_descriptor_bos_cb>:
10007ae0:	2000      	movs	r0, #0
10007ae2:	4770      	bx	lr

10007ae4 <tud_descriptor_device_qualifier_cb>:
10007ae4:	2000      	movs	r0, #0
10007ae6:	4770      	bx	lr

10007ae8 <tud_descriptor_other_speed_configuration_cb>:
10007ae8:	2000      	movs	r0, #0
10007aea:	4770      	bx	lr

10007aec <tud_mount_cb>:
10007aec:	4770      	bx	lr
10007aee:	46c0      	nop			@ (mov r8, r8)

10007af0 <tud_umount_cb>:
10007af0:	4770      	bx	lr
10007af2:	46c0      	nop			@ (mov r8, r8)

10007af4 <tud_suspend_cb>:
10007af4:	4770      	bx	lr
10007af6:	46c0      	nop			@ (mov r8, r8)

10007af8 <tud_resume_cb>:
10007af8:	4770      	bx	lr
10007afa:	46c0      	nop			@ (mov r8, r8)

10007afc <tud_speed_get>:
10007afc:	4b01      	ldr	r3, [pc, #4]	@ (10007b04 <tud_speed_get+0x8>)
10007afe:	7898      	ldrb	r0, [r3, #2]
10007b00:	4770      	bx	lr
10007b02:	46c0      	nop			@ (mov r8, r8)
10007b04:	20003008 	.word	0x20003008

10007b08 <tud_mounted>:
10007b08:	4b02      	ldr	r3, [pc, #8]	@ (10007b14 <tud_mounted+0xc>)
10007b0a:	7858      	ldrb	r0, [r3, #1]
10007b0c:	1e43      	subs	r3, r0, #1
10007b0e:	4198      	sbcs	r0, r3
10007b10:	b2c0      	uxtb	r0, r0
10007b12:	4770      	bx	lr
10007b14:	20003008 	.word	0x20003008

10007b18 <tud_suspended>:
10007b18:	4b02      	ldr	r3, [pc, #8]	@ (10007b24 <tud_suspended+0xc>)
10007b1a:	7818      	ldrb	r0, [r3, #0]
10007b1c:	0740      	lsls	r0, r0, #29
10007b1e:	0fc0      	lsrs	r0, r0, #31
10007b20:	4770      	bx	lr
10007b22:	46c0      	nop			@ (mov r8, r8)
10007b24:	20003008 	.word	0x20003008

10007b28 <tud_rhport_init>:
10007b28:	b5f0      	push	{r4, r5, r6, r7, lr}
10007b2a:	46d6      	mov	lr, sl
10007b2c:	464f      	mov	r7, r9
10007b2e:	4646      	mov	r6, r8
10007b30:	b5c0      	push	{r6, r7, lr}
10007b32:	4b2e      	ldr	r3, [pc, #184]	@ (10007bec <tud_rhport_init+0xc4>)
10007b34:	4681      	mov	r9, r0
10007b36:	4698      	mov	r8, r3
10007b38:	781b      	ldrb	r3, [r3, #0]
10007b3a:	468a      	mov	sl, r1
10007b3c:	2bff      	cmp	r3, #255	@ 0xff
10007b3e:	d14e      	bne.n	10007bde <tud_rhport_init+0xb6>
10007b40:	2900      	cmp	r1, #0
10007b42:	d03e      	beq.n	10007bc2 <tud_rhport_init+0x9a>
10007b44:	2100      	movs	r1, #0
10007b46:	2254      	movs	r2, #84	@ 0x54
10007b48:	4829      	ldr	r0, [pc, #164]	@ (10007bf0 <tud_rhport_init+0xc8>)
10007b4a:	f7fd fd4f 	bl	100055ec <__wrap_memset>
10007b4e:	2200      	movs	r2, #0
10007b50:	4c28      	ldr	r4, [pc, #160]	@ (10007bf4 <tud_rhport_init+0xcc>)
10007b52:	4b29      	ldr	r3, [pc, #164]	@ (10007bf8 <tud_rhport_init+0xd0>)
10007b54:	0020      	movs	r0, r4
10007b56:	701a      	strb	r2, [r3, #0]
10007b58:	f7fb feb2 	bl	100038c0 <mutex_init>
10007b5c:	4b27      	ldr	r3, [pc, #156]	@ (10007bfc <tud_rhport_init+0xd4>)
10007b5e:	601c      	str	r4, [r3, #0]
10007b60:	4c27      	ldr	r4, [pc, #156]	@ (10007c00 <tud_rhport_init+0xd8>)
10007b62:	0020      	movs	r0, r4
10007b64:	3c14      	subs	r4, #20
10007b66:	f7fb feb9 	bl	100038dc <critical_section_init>
10007b6a:	0020      	movs	r0, r4
10007b6c:	f002 f9f2 	bl	10009f54 <tu_fifo_clear>
10007b70:	4b24      	ldr	r3, [pc, #144]	@ (10007c04 <tud_rhport_init+0xdc>)
10007b72:	4d25      	ldr	r5, [pc, #148]	@ (10007c08 <tud_rhport_init+0xe0>)
10007b74:	601c      	str	r4, [r3, #0]
10007b76:	4b25      	ldr	r3, [pc, #148]	@ (10007c0c <tud_rhport_init+0xe4>)
10007b78:	2b00      	cmp	r3, #0
10007b7a:	d004      	beq.n	10007b86 <tud_rhport_init+0x5e>
10007b7c:	0028      	movs	r0, r5
10007b7e:	f7ff fb55 	bl	1000722c <usbd_app_driver_get_cb>
10007b82:	4b23      	ldr	r3, [pc, #140]	@ (10007c10 <tud_rhport_init+0xe8>)
10007b84:	6018      	str	r0, [r3, #0]
10007b86:	2400      	movs	r4, #0
10007b88:	2300      	movs	r3, #0
10007b8a:	782a      	ldrb	r2, [r5, #0]
10007b8c:	4f21      	ldr	r7, [pc, #132]	@ (10007c14 <tud_rhport_init+0xec>)
10007b8e:	4e20      	ldr	r6, [pc, #128]	@ (10007c10 <tud_rhport_init+0xe8>)
10007b90:	e00f      	b.n	10007bb2 <tud_rhport_init+0x8a>
10007b92:	6833      	ldr	r3, [r6, #0]
10007b94:	0162      	lsls	r2, r4, #5
10007b96:	189b      	adds	r3, r3, r2
10007b98:	2b00      	cmp	r3, #0
10007b9a:	d012      	beq.n	10007bc2 <tud_rhport_init+0x9a>
10007b9c:	685b      	ldr	r3, [r3, #4]
10007b9e:	2b00      	cmp	r3, #0
10007ba0:	d00f      	beq.n	10007bc2 <tud_rhport_init+0x9a>
10007ba2:	4798      	blx	r3
10007ba4:	782a      	ldrb	r2, [r5, #0]
10007ba6:	3401      	adds	r4, #1
10007ba8:	b2e4      	uxtb	r4, r4
10007baa:	1c51      	adds	r1, r2, #1
10007bac:	0023      	movs	r3, r4
10007bae:	42a1      	cmp	r1, r4
10007bb0:	db09      	blt.n	10007bc6 <tud_rhport_init+0x9e>
10007bb2:	42a2      	cmp	r2, r4
10007bb4:	d8ed      	bhi.n	10007b92 <tud_rhport_init+0x6a>
10007bb6:	1a9b      	subs	r3, r3, r2
10007bb8:	015b      	lsls	r3, r3, #5
10007bba:	19db      	adds	r3, r3, r7
10007bbc:	685b      	ldr	r3, [r3, #4]
10007bbe:	2b00      	cmp	r3, #0
10007bc0:	d1ef      	bne.n	10007ba2 <tud_rhport_init+0x7a>
10007bc2:	2000      	movs	r0, #0
10007bc4:	e00c      	b.n	10007be0 <tud_rhport_init+0xb8>
10007bc6:	4642      	mov	r2, r8
10007bc8:	464b      	mov	r3, r9
10007bca:	4651      	mov	r1, sl
10007bcc:	4648      	mov	r0, r9
10007bce:	7013      	strb	r3, [r2, #0]
10007bd0:	f7ff fd72 	bl	100076b8 <dcd_init>
10007bd4:	2800      	cmp	r0, #0
10007bd6:	d0f4      	beq.n	10007bc2 <tud_rhport_init+0x9a>
10007bd8:	4648      	mov	r0, r9
10007bda:	f7ff fdb5 	bl	10007748 <dcd_int_enable>
10007bde:	2001      	movs	r0, #1
10007be0:	bce0      	pop	{r5, r6, r7}
10007be2:	46ba      	mov	sl, r7
10007be4:	46b1      	mov	r9, r6
10007be6:	46a8      	mov	r8, r5
10007be8:	bdf0      	pop	{r4, r5, r6, r7, pc}
10007bea:	46c0      	nop			@ (mov r8, r8)
10007bec:	20001064 	.word	0x20001064
10007bf0:	20003008 	.word	0x20003008
10007bf4:	20003000 	.word	0x20003000
10007bf8:	2000f06e 	.word	0x2000f06e
10007bfc:	2000305c 	.word	0x2000305c
10007c00:	2000105c 	.word	0x2000105c
10007c04:	20003060 	.word	0x20003060
10007c08:	2000f06c 	.word	0x2000f06c
10007c0c:	1000722d 	.word	0x1000722d
10007c10:	20002f20 	.word	0x20002f20
10007c14:	1000b7e8 	.word	0x1000b7e8

10007c18 <tud_task_ext>:
10007c18:	b5f0      	push	{r4, r5, r6, r7, lr}
10007c1a:	46de      	mov	lr, fp
10007c1c:	4657      	mov	r7, sl
10007c1e:	464e      	mov	r6, r9
10007c20:	4645      	mov	r5, r8
10007c22:	b5e0      	push	{r5, r6, r7, lr}
10007c24:	4bc6      	ldr	r3, [pc, #792]	@ (10007f40 <tud_task_ext+0x328>)
10007c26:	b091      	sub	sp, #68	@ 0x44
10007c28:	9302      	str	r3, [sp, #8]
10007c2a:	781b      	ldrb	r3, [r3, #0]
10007c2c:	2bff      	cmp	r3, #255	@ 0xff
10007c2e:	d100      	bne.n	10007c32 <tud_task_ext+0x1a>
10007c30:	e13b      	b.n	10007eaa <tud_task_ext+0x292>
10007c32:	4bc4      	ldr	r3, [pc, #784]	@ (10007f44 <tud_task_ext+0x32c>)
10007c34:	4ec4      	ldr	r6, [pc, #784]	@ (10007f48 <tud_task_ext+0x330>)
10007c36:	001f      	movs	r7, r3
10007c38:	4bc4      	ldr	r3, [pc, #784]	@ (10007f4c <tud_task_ext+0x334>)
10007c3a:	ac0d      	add	r4, sp, #52	@ 0x34
10007c3c:	9301      	str	r3, [sp, #4]
10007c3e:	4bc4      	ldr	r3, [pc, #784]	@ (10007f50 <tud_task_ext+0x338>)
10007c40:	9300      	str	r3, [sp, #0]
10007c42:	6835      	ldr	r5, [r6, #0]
10007c44:	696a      	ldr	r2, [r5, #20]
10007c46:	f3ef 8110 	mrs	r1, PRIMASK
10007c4a:	b672      	cpsid	i
10007c4c:	6813      	ldr	r3, [r2, #0]
10007c4e:	2b00      	cmp	r3, #0
10007c50:	d0fc      	beq.n	10007c4c <tud_task_ext+0x34>
10007c52:	f3bf 8f5f 	dmb	sy
10007c56:	61a9      	str	r1, [r5, #24]
10007c58:	0028      	movs	r0, r5
10007c5a:	0021      	movs	r1, r4
10007c5c:	f001 ffb0 	bl	10009bc0 <tu_fifo_read>
10007c60:	696a      	ldr	r2, [r5, #20]
10007c62:	69ab      	ldr	r3, [r5, #24]
10007c64:	f3bf 8f5f 	dmb	sy
10007c68:	2100      	movs	r1, #0
10007c6a:	6011      	str	r1, [r2, #0]
10007c6c:	f383 8810 	msr	PRIMASK, r3
10007c70:	2800      	cmp	r0, #0
10007c72:	d100      	bne.n	10007c76 <tud_task_ext+0x5e>
10007c74:	e119      	b.n	10007eaa <tud_task_ext+0x292>
10007c76:	7863      	ldrb	r3, [r4, #1]
10007c78:	2b08      	cmp	r3, #8
10007c7a:	d8e2      	bhi.n	10007c42 <tud_task_ext+0x2a>
10007c7c:	009b      	lsls	r3, r3, #2
10007c7e:	58fb      	ldr	r3, [r7, r3]
10007c80:	469f      	mov	pc, r3
10007c82:	6863      	ldr	r3, [r4, #4]
10007c84:	2b00      	cmp	r3, #0
10007c86:	d0dc      	beq.n	10007c42 <tud_task_ext+0x2a>
10007c88:	68a0      	ldr	r0, [r4, #8]
10007c8a:	4798      	blx	r3
10007c8c:	e7d9      	b.n	10007c42 <tud_task_ext+0x2a>
10007c8e:	227f      	movs	r2, #127	@ 0x7f
10007c90:	7921      	ldrb	r1, [r4, #4]
10007c92:	4dae      	ldr	r5, [pc, #696]	@ (10007f4c <tud_task_ext+0x334>)
10007c94:	400a      	ands	r2, r1
10007c96:	0053      	lsls	r3, r2, #1
10007c98:	18eb      	adds	r3, r5, r3
10007c9a:	4698      	mov	r8, r3
10007c9c:	09c8      	lsrs	r0, r1, #7
10007c9e:	4480      	add	r8, r0
10007ca0:	4640      	mov	r0, r8
10007ca2:	2301      	movs	r3, #1
10007ca4:	3030      	adds	r0, #48	@ 0x30
10007ca6:	7905      	ldrb	r5, [r0, #4]
10007ca8:	439d      	bics	r5, r3
10007caa:	7105      	strb	r5, [r0, #4]
10007cac:	7905      	ldrb	r5, [r0, #4]
10007cae:	3303      	adds	r3, #3
10007cb0:	439d      	bics	r5, r3
10007cb2:	7105      	strb	r5, [r0, #4]
10007cb4:	2a00      	cmp	r2, #0
10007cb6:	d100      	bne.n	10007cba <tud_task_ext+0xa2>
10007cb8:	e0fe      	b.n	10007eb8 <tud_task_ext+0x2a0>
10007cba:	4643      	mov	r3, r8
10007cbc:	4aa5      	ldr	r2, [pc, #660]	@ (10007f54 <tud_task_ext+0x33c>)
10007cbe:	7d1b      	ldrb	r3, [r3, #20]
10007cc0:	7812      	ldrb	r2, [r2, #0]
10007cc2:	4293      	cmp	r3, r2
10007cc4:	d300      	bcc.n	10007cc8 <tud_task_ext+0xb0>
10007cc6:	e0ed      	b.n	10007ea4 <tud_task_ext+0x28c>
10007cc8:	4aa3      	ldr	r2, [pc, #652]	@ (10007f58 <tud_task_ext+0x340>)
10007cca:	015b      	lsls	r3, r3, #5
10007ccc:	6815      	ldr	r5, [r2, #0]
10007cce:	18ed      	adds	r5, r5, r3
10007cd0:	2d00      	cmp	r5, #0
10007cd2:	d100      	bne.n	10007cd6 <tud_task_ext+0xbe>
10007cd4:	e0e9      	b.n	10007eaa <tud_task_ext+0x292>
10007cd6:	68a3      	ldr	r3, [r4, #8]
10007cd8:	7962      	ldrb	r2, [r4, #5]
10007cda:	7820      	ldrb	r0, [r4, #0]
10007cdc:	69ad      	ldr	r5, [r5, #24]
10007cde:	47a8      	blx	r5
10007ce0:	e7af      	b.n	10007c42 <tud_task_ext+0x2a>
10007ce2:	4b9e      	ldr	r3, [pc, #632]	@ (10007f5c <tud_task_ext+0x344>)
10007ce4:	781a      	ldrb	r2, [r3, #0]
10007ce6:	2a00      	cmp	r2, #0
10007ce8:	d100      	bne.n	10007cec <tud_task_ext+0xd4>
10007cea:	e0de      	b.n	10007eaa <tud_task_ext+0x292>
10007cec:	781a      	ldrb	r2, [r3, #0]
10007cee:	3a01      	subs	r2, #1
10007cf0:	701a      	strb	r2, [r3, #0]
10007cf2:	781b      	ldrb	r3, [r3, #0]
10007cf4:	2b00      	cmp	r3, #0
10007cf6:	d1a4      	bne.n	10007c42 <tud_task_ext+0x2a>
10007cf8:	2201      	movs	r2, #1
10007cfa:	4d94      	ldr	r5, [pc, #592]	@ (10007f4c <tud_task_ext+0x334>)
10007cfc:	2101      	movs	r1, #1
10007cfe:	782b      	ldrb	r3, [r5, #0]
10007d00:	2004      	movs	r0, #4
10007d02:	4313      	orrs	r3, r2
10007d04:	702b      	strb	r3, [r5, #0]
10007d06:	2334      	movs	r3, #52	@ 0x34
10007d08:	5cea      	ldrb	r2, [r5, r3]
10007d0a:	438a      	bics	r2, r1
10007d0c:	54ea      	strb	r2, [r5, r3]
10007d0e:	5cea      	ldrb	r2, [r5, r3]
10007d10:	4382      	bics	r2, r0
10007d12:	54ea      	strb	r2, [r5, r3]
10007d14:	3301      	adds	r3, #1
10007d16:	5cea      	ldrb	r2, [r5, r3]
10007d18:	438a      	bics	r2, r1
10007d1a:	54ea      	strb	r2, [r5, r3]
10007d1c:	5cea      	ldrb	r2, [r5, r3]
10007d1e:	4382      	bics	r2, r0
10007d20:	54ea      	strb	r2, [r5, r3]
10007d22:	7823      	ldrb	r3, [r4, #0]
10007d24:	2000      	movs	r0, #0
10007d26:	469b      	mov	fp, r3
10007d28:	f000 fd18 	bl	1000875c <usbd_control_set_complete_callback>
10007d2c:	2260      	movs	r2, #96	@ 0x60
10007d2e:	7923      	ldrb	r3, [r4, #4]
10007d30:	401a      	ands	r2, r3
10007d32:	2a60      	cmp	r2, #96	@ 0x60
10007d34:	d100      	bne.n	10007d38 <tud_task_ext+0x120>
10007d36:	e0ee      	b.n	10007f16 <tud_task_ext+0x2fe>
10007d38:	2a40      	cmp	r2, #64	@ 0x40
10007d3a:	d100      	bne.n	10007d3e <tud_task_ext+0x126>
10007d3c:	e0f4      	b.n	10007f28 <tud_task_ext+0x310>
10007d3e:	06db      	lsls	r3, r3, #27
10007d40:	0edb      	lsrs	r3, r3, #27
10007d42:	2b01      	cmp	r3, #1
10007d44:	d100      	bne.n	10007d48 <tud_task_ext+0x130>
10007d46:	e111      	b.n	10007f6c <tud_task_ext+0x354>
10007d48:	2b02      	cmp	r3, #2
10007d4a:	d100      	bne.n	10007d4e <tud_task_ext+0x136>
10007d4c:	e0c6      	b.n	10007edc <tud_task_ext+0x2c4>
10007d4e:	2b00      	cmp	r3, #0
10007d50:	d000      	beq.n	10007d54 <tud_task_ext+0x13c>
10007d52:	e0e0      	b.n	10007f16 <tud_task_ext+0x2fe>
10007d54:	2a20      	cmp	r2, #32
10007d56:	d100      	bne.n	10007d5a <tud_task_ext+0x142>
10007d58:	e21c      	b.n	10008194 <tud_task_ext+0x57c>
10007d5a:	2a00      	cmp	r2, #0
10007d5c:	d000      	beq.n	10007d60 <tud_task_ext+0x148>
10007d5e:	e0da      	b.n	10007f16 <tud_task_ext+0x2fe>
10007d60:	7963      	ldrb	r3, [r4, #5]
10007d62:	2b09      	cmp	r3, #9
10007d64:	d900      	bls.n	10007d68 <tud_task_ext+0x150>
10007d66:	e0d6      	b.n	10007f16 <tud_task_ext+0x2fe>
10007d68:	4a7d      	ldr	r2, [pc, #500]	@ (10007f60 <tud_task_ext+0x348>)
10007d6a:	009b      	lsls	r3, r3, #2
10007d6c:	58d3      	ldr	r3, [r2, r3]
10007d6e:	469f      	mov	pc, r3
10007d70:	4d76      	ldr	r5, [pc, #472]	@ (10007f4c <tud_task_ext+0x334>)
10007d72:	782b      	ldrb	r3, [r5, #0]
10007d74:	07db      	lsls	r3, r3, #31
10007d76:	d400      	bmi.n	10007d7a <tud_task_ext+0x162>
10007d78:	e763      	b.n	10007c42 <tud_task_ext+0x2a>
10007d7a:	f7ff febd 	bl	10007af8 <tud_resume_cb>
10007d7e:	e760      	b.n	10007c42 <tud_task_ext+0x2a>
10007d80:	9b01      	ldr	r3, [sp, #4]
10007d82:	78db      	ldrb	r3, [r3, #3]
10007d84:	07db      	lsls	r3, r3, #31
10007d86:	d400      	bmi.n	10007d8a <tud_task_ext+0x172>
10007d88:	e75b      	b.n	10007c42 <tud_task_ext+0x2a>
10007d8a:	6860      	ldr	r0, [r4, #4]
10007d8c:	f7ff fea6 	bl	10007adc <tud_sof_cb>
10007d90:	e757      	b.n	10007c42 <tud_task_ext+0x2a>
10007d92:	4d6e      	ldr	r5, [pc, #440]	@ (10007f4c <tud_task_ext+0x334>)
10007d94:	782b      	ldrb	r3, [r5, #0]
10007d96:	07db      	lsls	r3, r3, #31
10007d98:	d400      	bmi.n	10007d9c <tud_task_ext+0x184>
10007d9a:	e752      	b.n	10007c42 <tud_task_ext+0x2a>
10007d9c:	7828      	ldrb	r0, [r5, #0]
10007d9e:	0700      	lsls	r0, r0, #28
10007da0:	0fc0      	lsrs	r0, r0, #31
10007da2:	f7ff fea7 	bl	10007af4 <tud_suspend_cb>
10007da6:	e74c      	b.n	10007c42 <tud_task_ext+0x2a>
10007da8:	7823      	ldrb	r3, [r4, #0]
10007daa:	4969      	ldr	r1, [pc, #420]	@ (10007f50 <tud_task_ext+0x338>)
10007dac:	4699      	mov	r9, r3
10007dae:	468b      	mov	fp, r1
10007db0:	4b68      	ldr	r3, [pc, #416]	@ (10007f54 <tud_task_ext+0x33c>)
10007db2:	4969      	ldr	r1, [pc, #420]	@ (10007f58 <tud_task_ext+0x340>)
10007db4:	4698      	mov	r8, r3
10007db6:	468a      	mov	sl, r1
10007db8:	0039      	movs	r1, r7
10007dba:	781a      	ldrb	r2, [r3, #0]
10007dbc:	4647      	mov	r7, r8
10007dbe:	2300      	movs	r3, #0
10007dc0:	46b0      	mov	r8, r6
10007dc2:	2500      	movs	r5, #0
10007dc4:	464e      	mov	r6, r9
10007dc6:	4689      	mov	r9, r1
10007dc8:	e010      	b.n	10007dec <tud_task_ext+0x1d4>
10007dca:	4653      	mov	r3, sl
10007dcc:	681b      	ldr	r3, [r3, #0]
10007dce:	016a      	lsls	r2, r5, #5
10007dd0:	189b      	adds	r3, r3, r2
10007dd2:	2b00      	cmp	r3, #0
10007dd4:	d100      	bne.n	10007dd8 <tud_task_ext+0x1c0>
10007dd6:	e075      	b.n	10007ec4 <tud_task_ext+0x2ac>
10007dd8:	68db      	ldr	r3, [r3, #12]
10007dda:	0030      	movs	r0, r6
10007ddc:	4798      	blx	r3
10007dde:	783a      	ldrb	r2, [r7, #0]
10007de0:	3501      	adds	r5, #1
10007de2:	b2ed      	uxtb	r5, r5
10007de4:	1c51      	adds	r1, r2, #1
10007de6:	002b      	movs	r3, r5
10007de8:	428d      	cmp	r5, r1
10007dea:	dc43      	bgt.n	10007e74 <tud_task_ext+0x25c>
10007dec:	4295      	cmp	r5, r2
10007dee:	d3ec      	bcc.n	10007dca <tud_task_ext+0x1b2>
10007df0:	1a9b      	subs	r3, r3, r2
10007df2:	015b      	lsls	r3, r3, #5
10007df4:	445b      	add	r3, fp
10007df6:	e7ef      	b.n	10007dd8 <tud_task_ext+0x1c0>
10007df8:	7823      	ldrb	r3, [r4, #0]
10007dfa:	4957      	ldr	r1, [pc, #348]	@ (10007f58 <tud_task_ext+0x340>)
10007dfc:	4699      	mov	r9, r3
10007dfe:	4b55      	ldr	r3, [pc, #340]	@ (10007f54 <tud_task_ext+0x33c>)
10007e00:	468a      	mov	sl, r1
10007e02:	4698      	mov	r8, r3
10007e04:	0031      	movs	r1, r6
10007e06:	46bb      	mov	fp, r7
10007e08:	464e      	mov	r6, r9
10007e0a:	781a      	ldrb	r2, [r3, #0]
10007e0c:	2500      	movs	r5, #0
10007e0e:	2300      	movs	r3, #0
10007e10:	4647      	mov	r7, r8
10007e12:	4689      	mov	r9, r1
10007e14:	e00f      	b.n	10007e36 <tud_task_ext+0x21e>
10007e16:	4653      	mov	r3, sl
10007e18:	681b      	ldr	r3, [r3, #0]
10007e1a:	016a      	lsls	r2, r5, #5
10007e1c:	189b      	adds	r3, r3, r2
10007e1e:	2b00      	cmp	r3, #0
10007e20:	d054      	beq.n	10007ecc <tud_task_ext+0x2b4>
10007e22:	68db      	ldr	r3, [r3, #12]
10007e24:	0030      	movs	r0, r6
10007e26:	4798      	blx	r3
10007e28:	783a      	ldrb	r2, [r7, #0]
10007e2a:	3501      	adds	r5, #1
10007e2c:	b2ed      	uxtb	r5, r5
10007e2e:	1c51      	adds	r1, r2, #1
10007e30:	002b      	movs	r3, r5
10007e32:	428d      	cmp	r5, r1
10007e34:	dc06      	bgt.n	10007e44 <tud_task_ext+0x22c>
10007e36:	4295      	cmp	r5, r2
10007e38:	d3ed      	bcc.n	10007e16 <tud_task_ext+0x1fe>
10007e3a:	1a9b      	subs	r3, r3, r2
10007e3c:	9a00      	ldr	r2, [sp, #0]
10007e3e:	015b      	lsls	r3, r3, #5
10007e40:	18d3      	adds	r3, r2, r3
10007e42:	e7ee      	b.n	10007e22 <tud_task_ext+0x20a>
10007e44:	9d01      	ldr	r5, [sp, #4]
10007e46:	2254      	movs	r2, #84	@ 0x54
10007e48:	2100      	movs	r1, #0
10007e4a:	0028      	movs	r0, r5
10007e4c:	f7fd fbce 	bl	100055ec <__wrap_memset>
10007e50:	2210      	movs	r2, #16
10007e52:	21ff      	movs	r1, #255	@ 0xff
10007e54:	4843      	ldr	r0, [pc, #268]	@ (10007f64 <tud_task_ext+0x34c>)
10007e56:	f7fd fbc9 	bl	100055ec <__wrap_memset>
10007e5a:	0028      	movs	r0, r5
10007e5c:	2220      	movs	r2, #32
10007e5e:	21ff      	movs	r1, #255	@ 0xff
10007e60:	3014      	adds	r0, #20
10007e62:	464e      	mov	r6, r9
10007e64:	465f      	mov	r7, fp
10007e66:	f7fd fbc1 	bl	100055ec <__wrap_memset>
10007e6a:	f000 fc6d 	bl	10008748 <usbd_control_reset>
10007e6e:	f7ff fe3f 	bl	10007af0 <tud_umount_cb>
10007e72:	e6e6      	b.n	10007c42 <tud_task_ext+0x2a>
10007e74:	4d35      	ldr	r5, [pc, #212]	@ (10007f4c <tud_task_ext+0x334>)
10007e76:	2254      	movs	r2, #84	@ 0x54
10007e78:	2100      	movs	r1, #0
10007e7a:	0028      	movs	r0, r5
10007e7c:	f7fd fbb6 	bl	100055ec <__wrap_memset>
10007e80:	2210      	movs	r2, #16
10007e82:	21ff      	movs	r1, #255	@ 0xff
10007e84:	1d28      	adds	r0, r5, #4
10007e86:	f7fd fbb1 	bl	100055ec <__wrap_memset>
10007e8a:	0028      	movs	r0, r5
10007e8c:	2220      	movs	r2, #32
10007e8e:	21ff      	movs	r1, #255	@ 0xff
10007e90:	3014      	adds	r0, #20
10007e92:	4646      	mov	r6, r8
10007e94:	464f      	mov	r7, r9
10007e96:	f7fd fba9 	bl	100055ec <__wrap_memset>
10007e9a:	f000 fc55 	bl	10008748 <usbd_control_reset>
10007e9e:	7923      	ldrb	r3, [r4, #4]
10007ea0:	70ab      	strb	r3, [r5, #2]
10007ea2:	e6ce      	b.n	10007c42 <tud_task_ext+0x2a>
10007ea4:	1c50      	adds	r0, r2, #1
10007ea6:	4298      	cmp	r0, r3
10007ea8:	da13      	bge.n	10007ed2 <tud_task_ext+0x2ba>
10007eaa:	b011      	add	sp, #68	@ 0x44
10007eac:	bcf0      	pop	{r4, r5, r6, r7}
10007eae:	46bb      	mov	fp, r7
10007eb0:	46b2      	mov	sl, r6
10007eb2:	46a9      	mov	r9, r5
10007eb4:	46a0      	mov	r8, r4
10007eb6:	bdf0      	pop	{r4, r5, r6, r7, pc}
10007eb8:	68a3      	ldr	r3, [r4, #8]
10007eba:	7962      	ldrb	r2, [r4, #5]
10007ebc:	7820      	ldrb	r0, [r4, #0]
10007ebe:	f000 fc61 	bl	10008784 <usbd_control_xfer_cb>
10007ec2:	e6be      	b.n	10007c42 <tud_task_ext+0x2a>
10007ec4:	4646      	mov	r6, r8
10007ec6:	464f      	mov	r7, r9
10007ec8:	4d20      	ldr	r5, [pc, #128]	@ (10007f4c <tud_task_ext+0x334>)
10007eca:	e7e6      	b.n	10007e9a <tud_task_ext+0x282>
10007ecc:	464e      	mov	r6, r9
10007ece:	465f      	mov	r7, fp
10007ed0:	e7cb      	b.n	10007e6a <tud_task_ext+0x252>
10007ed2:	4d1f      	ldr	r5, [pc, #124]	@ (10007f50 <tud_task_ext+0x338>)
10007ed4:	1a9b      	subs	r3, r3, r2
10007ed6:	015b      	lsls	r3, r3, #5
10007ed8:	195d      	adds	r5, r3, r5
10007eda:	e6fc      	b.n	10007cd6 <tud_task_ext+0xbe>
10007edc:	2370      	movs	r3, #112	@ 0x70
10007ede:	7a21      	ldrb	r1, [r4, #8]
10007ee0:	420b      	tst	r3, r1
10007ee2:	d118      	bne.n	10007f16 <tud_task_ext+0x2fe>
10007ee4:	09c8      	lsrs	r0, r1, #7
10007ee6:	4682      	mov	sl, r0
10007ee8:	330f      	adds	r3, #15
10007eea:	400b      	ands	r3, r1
10007eec:	005b      	lsls	r3, r3, #1
10007eee:	4698      	mov	r8, r3
10007ef0:	4818      	ldr	r0, [pc, #96]	@ (10007f54 <tud_task_ext+0x33c>)
10007ef2:	18eb      	adds	r3, r5, r3
10007ef4:	4453      	add	r3, sl
10007ef6:	7d1b      	ldrb	r3, [r3, #20]
10007ef8:	7800      	ldrb	r0, [r0, #0]
10007efa:	4699      	mov	r9, r3
10007efc:	4283      	cmp	r3, r0
10007efe:	d268      	bcs.n	10007fd2 <tud_task_ext+0x3ba>
10007f00:	4815      	ldr	r0, [pc, #84]	@ (10007f58 <tud_task_ext+0x340>)
10007f02:	015b      	lsls	r3, r3, #5
10007f04:	6800      	ldr	r0, [r0, #0]
10007f06:	4681      	mov	r9, r0
10007f08:	4499      	add	r9, r3
10007f0a:	2a00      	cmp	r2, #0
10007f0c:	d100      	bne.n	10007f10 <tud_task_ext+0x2f8>
10007f0e:	e163      	b.n	100081d8 <tud_task_ext+0x5c0>
10007f10:	464b      	mov	r3, r9
10007f12:	2b00      	cmp	r3, #0
10007f14:	d16a      	bne.n	10007fec <tud_task_ext+0x3d4>
10007f16:	7820      	ldrb	r0, [r4, #0]
10007f18:	2100      	movs	r1, #0
10007f1a:	f7ff fd65 	bl	100079e8 <dcd_edpt_stall>
10007f1e:	2180      	movs	r1, #128	@ 0x80
10007f20:	7820      	ldrb	r0, [r4, #0]
10007f22:	f7ff fd61 	bl	100079e8 <dcd_edpt_stall>
10007f26:	e68c      	b.n	10007c42 <tud_task_ext+0x2a>
10007f28:	480f      	ldr	r0, [pc, #60]	@ (10007f68 <tud_task_ext+0x350>)
10007f2a:	f000 fc17 	bl	1000875c <usbd_control_set_complete_callback>
10007f2e:	2101      	movs	r1, #1
10007f30:	4658      	mov	r0, fp
10007f32:	aa0e      	add	r2, sp, #56	@ 0x38
10007f34:	f7ff fdce 	bl	10007ad4 <tud_vendor_control_xfer_cb>
10007f38:	2800      	cmp	r0, #0
10007f3a:	d000      	beq.n	10007f3e <tud_task_ext+0x326>
10007f3c:	e681      	b.n	10007c42 <tud_task_ext+0x2a>
10007f3e:	e7ea      	b.n	10007f16 <tud_task_ext+0x2fe>
10007f40:	20001064 	.word	0x20001064
10007f44:	1000b740 	.word	0x1000b740
10007f48:	20003060 	.word	0x20003060
10007f4c:	20003008 	.word	0x20003008
10007f50:	1000b7e8 	.word	0x1000b7e8
10007f54:	2000f06c 	.word	0x2000f06c
10007f58:	20002f20 	.word	0x20002f20
10007f5c:	2000f06e 	.word	0x2000f06e
10007f60:	1000b764 	.word	0x1000b764
10007f64:	2000300c 	.word	0x2000300c
10007f68:	10007ad5 	.word	0x10007ad5
10007f6c:	7a23      	ldrb	r3, [r4, #8]
10007f6e:	8922      	ldrh	r2, [r4, #8]
10007f70:	2b0f      	cmp	r3, #15
10007f72:	d8d0      	bhi.n	10007f16 <tud_task_ext+0x2fe>
10007f74:	23ff      	movs	r3, #255	@ 0xff
10007f76:	4013      	ands	r3, r2
10007f78:	4acf      	ldr	r2, [pc, #828]	@ (100082b8 <tud_task_ext+0x6a0>)
10007f7a:	18eb      	adds	r3, r5, r3
10007f7c:	791b      	ldrb	r3, [r3, #4]
10007f7e:	7815      	ldrb	r5, [r2, #0]
10007f80:	42ab      	cmp	r3, r5
10007f82:	d33e      	bcc.n	10008002 <tud_task_ext+0x3ea>
10007f84:	1c69      	adds	r1, r5, #1
10007f86:	4299      	cmp	r1, r3
10007f88:	dbc5      	blt.n	10007f16 <tud_task_ext+0x2fe>
10007f8a:	1b5d      	subs	r5, r3, r5
10007f8c:	4bcb      	ldr	r3, [pc, #812]	@ (100082bc <tud_task_ext+0x6a4>)
10007f8e:	016d      	lsls	r5, r5, #5
10007f90:	18ed      	adds	r5, r5, r3
10007f92:	6968      	ldr	r0, [r5, #20]
10007f94:	f000 fbe2 	bl	1000875c <usbd_control_set_complete_callback>
10007f98:	2101      	movs	r1, #1
10007f9a:	4658      	mov	r0, fp
10007f9c:	696b      	ldr	r3, [r5, #20]
10007f9e:	aa0e      	add	r2, sp, #56	@ 0x38
10007fa0:	4798      	blx	r3
10007fa2:	2800      	cmp	r0, #0
10007fa4:	d000      	beq.n	10007fa8 <tud_task_ext+0x390>
10007fa6:	e64c      	b.n	10007c42 <tud_task_ext+0x2a>
10007fa8:	2260      	movs	r2, #96	@ 0x60
10007faa:	0015      	movs	r5, r2
10007fac:	7923      	ldrb	r3, [r4, #4]
10007fae:	401d      	ands	r5, r3
10007fb0:	421a      	tst	r2, r3
10007fb2:	d1b0      	bne.n	10007f16 <tud_task_ext+0x2fe>
10007fb4:	7963      	ldrb	r3, [r4, #5]
10007fb6:	3b0a      	subs	r3, #10
10007fb8:	2b01      	cmp	r3, #1
10007fba:	d8ac      	bhi.n	10007f16 <tud_task_ext+0x2fe>
10007fbc:	f000 fbce 	bl	1000875c <usbd_control_set_complete_callback>
10007fc0:	7963      	ldrb	r3, [r4, #5]
10007fc2:	2b0a      	cmp	r3, #10
10007fc4:	d100      	bne.n	10007fc8 <tud_task_ext+0x3b0>
10007fc6:	e199      	b.n	100082fc <tud_task_ext+0x6e4>
10007fc8:	4658      	mov	r0, fp
10007fca:	a90e      	add	r1, sp, #56	@ 0x38
10007fcc:	f000 fb56 	bl	1000867c <tud_control_status>
10007fd0:	e637      	b.n	10007c42 <tud_task_ext+0x2a>
10007fd2:	1c43      	adds	r3, r0, #1
10007fd4:	454b      	cmp	r3, r9
10007fd6:	da00      	bge.n	10007fda <tud_task_ext+0x3c2>
10007fd8:	e0f9      	b.n	100081ce <tud_task_ext+0x5b6>
10007fda:	464b      	mov	r3, r9
10007fdc:	1a1b      	subs	r3, r3, r0
10007fde:	015b      	lsls	r3, r3, #5
10007fe0:	4699      	mov	r9, r3
10007fe2:	48b6      	ldr	r0, [pc, #728]	@ (100082bc <tud_task_ext+0x6a4>)
10007fe4:	4481      	add	r9, r0
10007fe6:	2a00      	cmp	r2, #0
10007fe8:	d100      	bne.n	10007fec <tud_task_ext+0x3d4>
10007fea:	e0f5      	b.n	100081d8 <tud_task_ext+0x5c0>
10007fec:	464b      	mov	r3, r9
10007fee:	6958      	ldr	r0, [r3, #20]
10007ff0:	f000 fbb4 	bl	1000875c <usbd_control_set_complete_callback>
10007ff4:	464b      	mov	r3, r9
10007ff6:	2101      	movs	r1, #1
10007ff8:	4658      	mov	r0, fp
10007ffa:	695b      	ldr	r3, [r3, #20]
10007ffc:	aa0e      	add	r2, sp, #56	@ 0x38
10007ffe:	4798      	blx	r3
10008000:	e79a      	b.n	10007f38 <tud_task_ext+0x320>
10008002:	4aaf      	ldr	r2, [pc, #700]	@ (100082c0 <tud_task_ext+0x6a8>)
10008004:	015b      	lsls	r3, r3, #5
10008006:	6815      	ldr	r5, [r2, #0]
10008008:	18ed      	adds	r5, r5, r3
1000800a:	2d00      	cmp	r5, #0
1000800c:	d1c1      	bne.n	10007f92 <tud_task_ext+0x37a>
1000800e:	e782      	b.n	10007f16 <tud_task_ext+0x2fe>
10008010:	79a3      	ldrb	r3, [r4, #6]
10008012:	4699      	mov	r9, r3
10008014:	786b      	ldrb	r3, [r5, #1]
10008016:	4599      	cmp	r9, r3
10008018:	d0d6      	beq.n	10007fc8 <tud_task_ext+0x3b0>
1000801a:	786b      	ldrb	r3, [r5, #1]
1000801c:	2b00      	cmp	r3, #0
1000801e:	d000      	beq.n	10008022 <tud_task_ext+0x40a>
10008020:	e135      	b.n	1000828e <tud_task_ext+0x676>
10008022:	464b      	mov	r3, r9
10008024:	706b      	strb	r3, [r5, #1]
10008026:	2b00      	cmp	r3, #0
10008028:	d100      	bne.n	1000802c <tud_task_ext+0x414>
1000802a:	e12d      	b.n	10008288 <tud_task_ext+0x670>
1000802c:	4648      	mov	r0, r9
1000802e:	3801      	subs	r0, #1
10008030:	b2c0      	uxtb	r0, r0
10008032:	f7fa fe5b 	bl	10002cec <tud_descriptor_configuration_cb>
10008036:	2800      	cmp	r0, #0
10008038:	d100      	bne.n	1000803c <tud_task_ext+0x424>
1000803a:	e17e      	b.n	1000833a <tud_task_ext+0x722>
1000803c:	7843      	ldrb	r3, [r0, #1]
1000803e:	9307      	str	r3, [sp, #28]
10008040:	2b02      	cmp	r3, #2
10008042:	d000      	beq.n	10008046 <tud_task_ext+0x42e>
10008044:	e179      	b.n	1000833a <tud_task_ext+0x722>
10008046:	2201      	movs	r2, #1
10008048:	79c1      	ldrb	r1, [r0, #7]
1000804a:	46b1      	mov	r9, r6
1000804c:	118b      	asrs	r3, r1, #6
1000804e:	1149      	asrs	r1, r1, #5
10008050:	4013      	ands	r3, r2
10008052:	400a      	ands	r2, r1
10008054:	2130      	movs	r1, #48	@ 0x30
10008056:	0112      	lsls	r2, r2, #4
10008058:	015b      	lsls	r3, r3, #5
1000805a:	4313      	orrs	r3, r2
1000805c:	782a      	ldrb	r2, [r5, #0]
1000805e:	46a8      	mov	r8, r5
10008060:	438a      	bics	r2, r1
10008062:	4313      	orrs	r3, r2
10008064:	702b      	strb	r3, [r5, #0]
10008066:	2309      	movs	r3, #9
10008068:	469a      	mov	sl, r3
1000806a:	4482      	add	sl, r0
1000806c:	4656      	mov	r6, sl
1000806e:	46ba      	mov	sl, r7
10008070:	78c3      	ldrb	r3, [r0, #3]
10008072:	7882      	ldrb	r2, [r0, #2]
10008074:	021b      	lsls	r3, r3, #8
10008076:	4313      	orrs	r3, r2
10008078:	18c3      	adds	r3, r0, r3
1000807a:	9305      	str	r3, [sp, #20]
1000807c:	4b8e      	ldr	r3, [pc, #568]	@ (100082b8 <tud_task_ext+0x6a0>)
1000807e:	9304      	str	r3, [sp, #16]
10008080:	4b8e      	ldr	r3, [pc, #568]	@ (100082bc <tud_task_ext+0x6a4>)
10008082:	9308      	str	r3, [sp, #32]
10008084:	4b8e      	ldr	r3, [pc, #568]	@ (100082c0 <tud_task_ext+0x6a8>)
10008086:	9309      	str	r3, [sp, #36]	@ 0x24
10008088:	4b8e      	ldr	r3, [pc, #568]	@ (100082c4 <tud_task_ext+0x6ac>)
1000808a:	930a      	str	r3, [sp, #40]	@ 0x28
1000808c:	9b05      	ldr	r3, [sp, #20]
1000808e:	42b3      	cmp	r3, r6
10008090:	d800      	bhi.n	10008094 <tud_task_ext+0x47c>
10008092:	e155      	b.n	10008340 <tud_task_ext+0x728>
10008094:	7873      	ldrb	r3, [r6, #1]
10008096:	2201      	movs	r2, #1
10008098:	2b0b      	cmp	r3, #11
1000809a:	d103      	bne.n	100080a4 <tud_task_ext+0x48c>
1000809c:	7833      	ldrb	r3, [r6, #0]
1000809e:	78f2      	ldrb	r2, [r6, #3]
100080a0:	18f6      	adds	r6, r6, r3
100080a2:	7873      	ldrb	r3, [r6, #1]
100080a4:	2b04      	cmp	r3, #4
100080a6:	d000      	beq.n	100080aa <tud_task_ext+0x492>
100080a8:	e144      	b.n	10008334 <tud_task_ext+0x71c>
100080aa:	9b05      	ldr	r3, [sp, #20]
100080ac:	2700      	movs	r7, #0
100080ae:	1b9b      	subs	r3, r3, r6
100080b0:	b29b      	uxth	r3, r3
100080b2:	9306      	str	r3, [sp, #24]
100080b4:	9b04      	ldr	r3, [sp, #16]
100080b6:	920b      	str	r2, [sp, #44]	@ 0x2c
100080b8:	781d      	ldrb	r5, [r3, #0]
100080ba:	2300      	movs	r3, #0
100080bc:	9303      	str	r3, [sp, #12]
100080be:	e01b      	b.n	100080f8 <tud_task_ext+0x4e0>
100080c0:	9a09      	ldr	r2, [sp, #36]	@ 0x24
100080c2:	017b      	lsls	r3, r7, #5
100080c4:	6815      	ldr	r5, [r2, #0]
100080c6:	18ed      	adds	r5, r5, r3
100080c8:	2d00      	cmp	r5, #0
100080ca:	d100      	bne.n	100080ce <tud_task_ext+0x4b6>
100080cc:	e132      	b.n	10008334 <tud_task_ext+0x71c>
100080ce:	0031      	movs	r1, r6
100080d0:	4658      	mov	r0, fp
100080d2:	692b      	ldr	r3, [r5, #16]
100080d4:	9a06      	ldr	r2, [sp, #24]
100080d6:	4798      	blx	r3
100080d8:	4684      	mov	ip, r0
100080da:	2808      	cmp	r0, #8
100080dc:	d903      	bls.n	100080e6 <tud_task_ext+0x4ce>
100080de:	9a06      	ldr	r2, [sp, #24]
100080e0:	4282      	cmp	r2, r0
100080e2:	d300      	bcc.n	100080e6 <tud_task_ext+0x4ce>
100080e4:	e113      	b.n	1000830e <tud_task_ext+0x6f6>
100080e6:	9b04      	ldr	r3, [sp, #16]
100080e8:	3701      	adds	r7, #1
100080ea:	781d      	ldrb	r5, [r3, #0]
100080ec:	b2ff      	uxtb	r7, r7
100080ee:	1c6b      	adds	r3, r5, #1
100080f0:	9703      	str	r7, [sp, #12]
100080f2:	429f      	cmp	r7, r3
100080f4:	dd00      	ble.n	100080f8 <tud_task_ext+0x4e0>
100080f6:	e11d      	b.n	10008334 <tud_task_ext+0x71c>
100080f8:	42bd      	cmp	r5, r7
100080fa:	d8e1      	bhi.n	100080c0 <tud_task_ext+0x4a8>
100080fc:	9b03      	ldr	r3, [sp, #12]
100080fe:	1b5d      	subs	r5, r3, r5
10008100:	9b08      	ldr	r3, [sp, #32]
10008102:	016d      	lsls	r5, r5, #5
10008104:	195d      	adds	r5, r3, r5
10008106:	e7e2      	b.n	100080ce <tud_task_ext+0x4b6>
10008108:	786b      	ldrb	r3, [r5, #1]
1000810a:	aa0c      	add	r2, sp, #48	@ 0x30
1000810c:	3202      	adds	r2, #2
1000810e:	7013      	strb	r3, [r2, #0]
10008110:	4658      	mov	r0, fp
10008112:	2301      	movs	r3, #1
10008114:	a90e      	add	r1, sp, #56	@ 0x38
10008116:	f000 fac7 	bl	100086a8 <tud_control_xfer>
1000811a:	e592      	b.n	10007c42 <tud_task_ext+0x2a>
1000811c:	88e0      	ldrh	r0, [r4, #6]
1000811e:	0a03      	lsrs	r3, r0, #8
10008120:	b2c0      	uxtb	r0, r0
10008122:	2b0f      	cmp	r3, #15
10008124:	d900      	bls.n	10008128 <tud_task_ext+0x510>
10008126:	e6f6      	b.n	10007f16 <tud_task_ext+0x2fe>
10008128:	4967      	ldr	r1, [pc, #412]	@ (100082c8 <tud_task_ext+0x6b0>)
1000812a:	009a      	lsls	r2, r3, #2
1000812c:	588a      	ldr	r2, [r1, r2]
1000812e:	4697      	mov	pc, r2
10008130:	a80e      	add	r0, sp, #56	@ 0x38
10008132:	f000 fb19 	bl	10008768 <usbd_control_set_request>
10008136:	4658      	mov	r0, fp
10008138:	79a1      	ldrb	r1, [r4, #6]
1000813a:	f7ff fb0b 	bl	10007754 <dcd_set_address>
1000813e:	2202      	movs	r2, #2
10008140:	782b      	ldrb	r3, [r5, #0]
10008142:	4313      	orrs	r3, r2
10008144:	702b      	strb	r3, [r5, #0]
10008146:	e57c      	b.n	10007c42 <tud_task_ext+0x2a>
10008148:	88e3      	ldrh	r3, [r4, #6]
1000814a:	2b01      	cmp	r3, #1
1000814c:	d000      	beq.n	10008150 <tud_task_ext+0x538>
1000814e:	e6e2      	b.n	10007f16 <tud_task_ext+0x2fe>
10008150:	2208      	movs	r2, #8
10008152:	782b      	ldrb	r3, [r5, #0]
10008154:	4658      	mov	r0, fp
10008156:	4393      	bics	r3, r2
10008158:	a90e      	add	r1, sp, #56	@ 0x38
1000815a:	702b      	strb	r3, [r5, #0]
1000815c:	f000 fa8e 	bl	1000867c <tud_control_status>
10008160:	e56f      	b.n	10007c42 <tud_task_ext+0x2a>
10008162:	2002      	movs	r0, #2
10008164:	7829      	ldrb	r1, [r5, #0]
10008166:	ab0c      	add	r3, sp, #48	@ 0x30
10008168:	1c9a      	adds	r2, r3, #2
1000816a:	068b      	lsls	r3, r1, #26
1000816c:	0889      	lsrs	r1, r1, #2
1000816e:	0fdb      	lsrs	r3, r3, #31
10008170:	4001      	ands	r1, r0
10008172:	430b      	orrs	r3, r1
10008174:	8013      	strh	r3, [r2, #0]
10008176:	4658      	mov	r0, fp
10008178:	2302      	movs	r3, #2
1000817a:	a90e      	add	r1, sp, #56	@ 0x38
1000817c:	f000 fa94 	bl	100086a8 <tud_control_xfer>
10008180:	e55f      	b.n	10007c42 <tud_task_ext+0x2a>
10008182:	88e3      	ldrh	r3, [r4, #6]
10008184:	2b01      	cmp	r3, #1
10008186:	d000      	beq.n	1000818a <tud_task_ext+0x572>
10008188:	e6c5      	b.n	10007f16 <tud_task_ext+0x2fe>
1000818a:	2208      	movs	r2, #8
1000818c:	782b      	ldrb	r3, [r5, #0]
1000818e:	4313      	orrs	r3, r2
10008190:	702b      	strb	r3, [r5, #0]
10008192:	e719      	b.n	10007fc8 <tud_task_ext+0x3b0>
10008194:	7a23      	ldrb	r3, [r4, #8]
10008196:	8922      	ldrh	r2, [r4, #8]
10008198:	2b0f      	cmp	r3, #15
1000819a:	d900      	bls.n	1000819e <tud_task_ext+0x586>
1000819c:	e6bb      	b.n	10007f16 <tud_task_ext+0x2fe>
1000819e:	23ff      	movs	r3, #255	@ 0xff
100081a0:	4013      	ands	r3, r2
100081a2:	18eb      	adds	r3, r5, r3
100081a4:	791d      	ldrb	r5, [r3, #4]
100081a6:	4b44      	ldr	r3, [pc, #272]	@ (100082b8 <tud_task_ext+0x6a0>)
100081a8:	781b      	ldrb	r3, [r3, #0]
100081aa:	429d      	cmp	r5, r3
100081ac:	d228      	bcs.n	10008200 <tud_task_ext+0x5e8>
100081ae:	4b44      	ldr	r3, [pc, #272]	@ (100082c0 <tud_task_ext+0x6a8>)
100081b0:	016d      	lsls	r5, r5, #5
100081b2:	681b      	ldr	r3, [r3, #0]
100081b4:	195d      	adds	r5, r3, r5
100081b6:	2d00      	cmp	r5, #0
100081b8:	d100      	bne.n	100081bc <tud_task_ext+0x5a4>
100081ba:	e6ac      	b.n	10007f16 <tud_task_ext+0x2fe>
100081bc:	6968      	ldr	r0, [r5, #20]
100081be:	f000 facd 	bl	1000875c <usbd_control_set_complete_callback>
100081c2:	2101      	movs	r1, #1
100081c4:	4658      	mov	r0, fp
100081c6:	696b      	ldr	r3, [r5, #20]
100081c8:	aa0e      	add	r2, sp, #56	@ 0x38
100081ca:	4798      	blx	r3
100081cc:	e6b4      	b.n	10007f38 <tud_task_ext+0x320>
100081ce:	2a00      	cmp	r2, #0
100081d0:	d000      	beq.n	100081d4 <tud_task_ext+0x5bc>
100081d2:	e6a0      	b.n	10007f16 <tud_task_ext+0x2fe>
100081d4:	2300      	movs	r3, #0
100081d6:	4699      	mov	r9, r3
100081d8:	7962      	ldrb	r2, [r4, #5]
100081da:	2002      	movs	r0, #2
100081dc:	0013      	movs	r3, r2
100081de:	9203      	str	r2, [sp, #12]
100081e0:	4383      	bics	r3, r0
100081e2:	2b01      	cmp	r3, #1
100081e4:	d015      	beq.n	10008212 <tud_task_ext+0x5fa>
100081e6:	2a00      	cmp	r2, #0
100081e8:	d000      	beq.n	100081ec <tud_task_ext+0x5d4>
100081ea:	e694      	b.n	10007f16 <tud_task_ext+0x2fe>
100081ec:	002b      	movs	r3, r5
100081ee:	4443      	add	r3, r8
100081f0:	4453      	add	r3, sl
100081f2:	3330      	adds	r3, #48	@ 0x30
100081f4:	791b      	ldrb	r3, [r3, #4]
100081f6:	aa0c      	add	r2, sp, #48	@ 0x30
100081f8:	079b      	lsls	r3, r3, #30
100081fa:	0fdb      	lsrs	r3, r3, #31
100081fc:	3202      	adds	r2, #2
100081fe:	e7b9      	b.n	10008174 <tud_task_ext+0x55c>
10008200:	1c5a      	adds	r2, r3, #1
10008202:	42aa      	cmp	r2, r5
10008204:	da00      	bge.n	10008208 <tud_task_ext+0x5f0>
10008206:	e686      	b.n	10007f16 <tud_task_ext+0x2fe>
10008208:	1aed      	subs	r5, r5, r3
1000820a:	4b2c      	ldr	r3, [pc, #176]	@ (100082bc <tud_task_ext+0x6a4>)
1000820c:	016d      	lsls	r5, r5, #5
1000820e:	18ed      	adds	r5, r5, r3
10008210:	e7d4      	b.n	100081bc <tud_task_ext+0x5a4>
10008212:	88e3      	ldrh	r3, [r4, #6]
10008214:	2b00      	cmp	r3, #0
10008216:	d112      	bne.n	1000823e <tud_task_ext+0x626>
10008218:	9b02      	ldr	r3, [sp, #8]
1000821a:	7818      	ldrb	r0, [r3, #0]
1000821c:	9b03      	ldr	r3, [sp, #12]
1000821e:	2b01      	cmp	r3, #1
10008220:	d023      	beq.n	1000826a <tud_task_ext+0x652>
10008222:	f7ff fbe1 	bl	100079e8 <dcd_edpt_stall>
10008226:	4643      	mov	r3, r8
10008228:	2102      	movs	r1, #2
1000822a:	18eb      	adds	r3, r5, r3
1000822c:	4453      	add	r3, sl
1000822e:	3330      	adds	r3, #48	@ 0x30
10008230:	791a      	ldrb	r2, [r3, #4]
10008232:	430a      	orrs	r2, r1
10008234:	2101      	movs	r1, #1
10008236:	711a      	strb	r2, [r3, #4]
10008238:	791a      	ldrb	r2, [r3, #4]
1000823a:	430a      	orrs	r2, r1
1000823c:	711a      	strb	r2, [r3, #4]
1000823e:	464b      	mov	r3, r9
10008240:	2b00      	cmp	r3, #0
10008242:	d100      	bne.n	10008246 <tud_task_ext+0x62e>
10008244:	e4fd      	b.n	10007c42 <tud_task_ext+0x2a>
10008246:	6958      	ldr	r0, [r3, #20]
10008248:	f000 fa88 	bl	1000875c <usbd_control_set_complete_callback>
1000824c:	464b      	mov	r3, r9
1000824e:	2101      	movs	r1, #1
10008250:	695b      	ldr	r3, [r3, #20]
10008252:	aa0e      	add	r2, sp, #56	@ 0x38
10008254:	4658      	mov	r0, fp
10008256:	4798      	blx	r3
10008258:	2000      	movs	r0, #0
1000825a:	f000 fa7f 	bl	1000875c <usbd_control_set_complete_callback>
1000825e:	2335      	movs	r3, #53	@ 0x35
10008260:	5ceb      	ldrb	r3, [r5, r3]
10008262:	07db      	lsls	r3, r3, #31
10008264:	d500      	bpl.n	10008268 <tud_task_ext+0x650>
10008266:	e4ec      	b.n	10007c42 <tud_task_ext+0x2a>
10008268:	e6ae      	b.n	10007fc8 <tud_task_ext+0x3b0>
1000826a:	f7ff fbdb 	bl	10007a24 <dcd_edpt_clear_stall>
1000826e:	4643      	mov	r3, r8
10008270:	2102      	movs	r1, #2
10008272:	18eb      	adds	r3, r5, r3
10008274:	4453      	add	r3, sl
10008276:	3330      	adds	r3, #48	@ 0x30
10008278:	791a      	ldrb	r2, [r3, #4]
1000827a:	438a      	bics	r2, r1
1000827c:	711a      	strb	r2, [r3, #4]
1000827e:	791a      	ldrb	r2, [r3, #4]
10008280:	9903      	ldr	r1, [sp, #12]
10008282:	438a      	bics	r2, r1
10008284:	711a      	strb	r2, [r3, #4]
10008286:	e7da      	b.n	1000823e <tud_task_ext+0x626>
10008288:	f7ff fc32 	bl	10007af0 <tud_umount_cb>
1000828c:	e69c      	b.n	10007fc8 <tud_task_ext+0x3b0>
1000828e:	2100      	movs	r1, #0
10008290:	4658      	mov	r0, fp
10008292:	f7ff fa69 	bl	10007768 <dcd_sof_enable>
10008296:	4658      	mov	r0, fp
10008298:	f7ff fb90 	bl	100079bc <dcd_edpt_close_all>
1000829c:	78ab      	ldrb	r3, [r5, #2]
1000829e:	4907      	ldr	r1, [pc, #28]	@ (100082bc <tud_task_ext+0x6a4>)
100082a0:	9303      	str	r3, [sp, #12]
100082a2:	4b05      	ldr	r3, [pc, #20]	@ (100082b8 <tud_task_ext+0x6a0>)
100082a4:	9104      	str	r1, [sp, #16]
100082a6:	4698      	mov	r8, r3
100082a8:	781a      	ldrb	r2, [r3, #0]
100082aa:	2300      	movs	r3, #0
100082ac:	4904      	ldr	r1, [pc, #16]	@ (100082c0 <tud_task_ext+0x6a8>)
100082ae:	46aa      	mov	sl, r5
100082b0:	9105      	str	r1, [sp, #20]
100082b2:	001d      	movs	r5, r3
100082b4:	e01b      	b.n	100082ee <tud_task_ext+0x6d6>
100082b6:	46c0      	nop			@ (mov r8, r8)
100082b8:	2000f06c 	.word	0x2000f06c
100082bc:	1000b7e8 	.word	0x1000b7e8
100082c0:	20002f20 	.word	0x20002f20
100082c4:	2000301c 	.word	0x2000301c
100082c8:	1000b78c 	.word	0x1000b78c
100082cc:	9b05      	ldr	r3, [sp, #20]
100082ce:	016a      	lsls	r2, r5, #5
100082d0:	681b      	ldr	r3, [r3, #0]
100082d2:	189b      	adds	r3, r3, r2
100082d4:	2b00      	cmp	r3, #0
100082d6:	d04c      	beq.n	10008372 <tud_task_ext+0x75a>
100082d8:	68db      	ldr	r3, [r3, #12]
100082da:	4658      	mov	r0, fp
100082dc:	4798      	blx	r3
100082de:	4643      	mov	r3, r8
100082e0:	781a      	ldrb	r2, [r3, #0]
100082e2:	3501      	adds	r5, #1
100082e4:	b2ed      	uxtb	r5, r5
100082e6:	1c51      	adds	r1, r2, #1
100082e8:	002b      	movs	r3, r5
100082ea:	428d      	cmp	r5, r1
100082ec:	dc2d      	bgt.n	1000834a <tud_task_ext+0x732>
100082ee:	4295      	cmp	r5, r2
100082f0:	d3ec      	bcc.n	100082cc <tud_task_ext+0x6b4>
100082f2:	1a9b      	subs	r3, r3, r2
100082f4:	9a04      	ldr	r2, [sp, #16]
100082f6:	015b      	lsls	r3, r3, #5
100082f8:	18d3      	adds	r3, r2, r3
100082fa:	e7ed      	b.n	100082d8 <tud_task_ext+0x6c0>
100082fc:	ab0c      	add	r3, sp, #48	@ 0x30
100082fe:	1c9a      	adds	r2, r3, #2
10008300:	4658      	mov	r0, fp
10008302:	2301      	movs	r3, #1
10008304:	a90e      	add	r1, sp, #56	@ 0x38
10008306:	7015      	strb	r5, [r2, #0]
10008308:	f000 f9ce 	bl	100086a8 <tud_control_xfer>
1000830c:	e499      	b.n	10007c42 <tud_task_ext+0x2a>
1000830e:	9a0b      	ldr	r2, [sp, #44]	@ 0x2c
10008310:	2a01      	cmp	r2, #1
10008312:	d04e      	beq.n	100083b2 <tud_task_ext+0x79a>
10008314:	2a00      	cmp	r2, #0
10008316:	d03c      	beq.n	10008392 <tud_task_ext+0x77a>
10008318:	2300      	movs	r3, #0
1000831a:	78b0      	ldrb	r0, [r6, #2]
1000831c:	e004      	b.n	10008328 <tud_task_ext+0x710>
1000831e:	3301      	adds	r3, #1
10008320:	b2db      	uxtb	r3, r3
10008322:	710f      	strb	r7, [r1, #4]
10008324:	4293      	cmp	r3, r2
10008326:	d234      	bcs.n	10008392 <tud_task_ext+0x77a>
10008328:	18c1      	adds	r1, r0, r3
1000832a:	b2c9      	uxtb	r1, r1
1000832c:	4441      	add	r1, r8
1000832e:	790d      	ldrb	r5, [r1, #4]
10008330:	2dff      	cmp	r5, #255	@ 0xff
10008332:	d0f4      	beq.n	1000831e <tud_task_ext+0x706>
10008334:	464e      	mov	r6, r9
10008336:	4645      	mov	r5, r8
10008338:	4657      	mov	r7, sl
1000833a:	2300      	movs	r3, #0
1000833c:	706b      	strb	r3, [r5, #1]
1000833e:	e5ea      	b.n	10007f16 <tud_task_ext+0x2fe>
10008340:	464e      	mov	r6, r9
10008342:	4657      	mov	r7, sl
10008344:	f7ff fbd2 	bl	10007aec <tud_mount_cb>
10008348:	e63e      	b.n	10007fc8 <tud_task_ext+0x3b0>
1000834a:	4655      	mov	r5, sl
1000834c:	2254      	movs	r2, #84	@ 0x54
1000834e:	2100      	movs	r1, #0
10008350:	0028      	movs	r0, r5
10008352:	f7fd f94b 	bl	100055ec <__wrap_memset>
10008356:	2210      	movs	r2, #16
10008358:	21ff      	movs	r1, #255	@ 0xff
1000835a:	1d28      	adds	r0, r5, #4
1000835c:	f7fd f946 	bl	100055ec <__wrap_memset>
10008360:	0028      	movs	r0, r5
10008362:	2220      	movs	r2, #32
10008364:	21ff      	movs	r1, #255	@ 0xff
10008366:	3014      	adds	r0, #20
10008368:	f7fd f940 	bl	100055ec <__wrap_memset>
1000836c:	9b03      	ldr	r3, [sp, #12]
1000836e:	70ab      	strb	r3, [r5, #2]
10008370:	e657      	b.n	10008022 <tud_task_ext+0x40a>
10008372:	4655      	mov	r5, sl
10008374:	e7fa      	b.n	1000836c <tud_task_ext+0x754>
10008376:	f7ff fbb3 	bl	10007ae0 <tud_descriptor_bos_cb>
1000837a:	1e02      	subs	r2, r0, #0
1000837c:	d100      	bne.n	10008380 <tud_task_ext+0x768>
1000837e:	e5ca      	b.n	10007f16 <tud_task_ext+0x2fe>
10008380:	78d3      	ldrb	r3, [r2, #3]
10008382:	7891      	ldrb	r1, [r2, #2]
10008384:	021b      	lsls	r3, r3, #8
10008386:	430b      	orrs	r3, r1
10008388:	4658      	mov	r0, fp
1000838a:	a90e      	add	r1, sp, #56	@ 0x38
1000838c:	f000 f98c 	bl	100086a8 <tud_control_xfer>
10008390:	e5d2      	b.n	10007f38 <tud_task_ext+0x320>
10008392:	4665      	mov	r5, ip
10008394:	003b      	movs	r3, r7
10008396:	002a      	movs	r2, r5
10008398:	0031      	movs	r1, r6
1000839a:	980a      	ldr	r0, [sp, #40]	@ 0x28
1000839c:	f001 fb8c 	bl	10009ab8 <tu_edpt_bind_driver>
100083a0:	9b04      	ldr	r3, [sp, #16]
100083a2:	9a03      	ldr	r2, [sp, #12]
100083a4:	781b      	ldrb	r3, [r3, #0]
100083a6:	1976      	adds	r6, r6, r5
100083a8:	3301      	adds	r3, #1
100083aa:	4293      	cmp	r3, r2
100083ac:	db00      	blt.n	100083b0 <tud_task_ext+0x798>
100083ae:	e66d      	b.n	1000808c <tud_task_ext+0x474>
100083b0:	e7c0      	b.n	10008334 <tud_task_ext+0x71c>
100083b2:	4b17      	ldr	r3, [pc, #92]	@ (10008410 <tud_task_ext+0x7f8>)
100083b4:	6929      	ldr	r1, [r5, #16]
100083b6:	4299      	cmp	r1, r3
100083b8:	d1ae      	bne.n	10008318 <tud_task_ext+0x700>
100083ba:	9a07      	ldr	r2, [sp, #28]
100083bc:	e7ac      	b.n	10008318 <tud_task_ext+0x700>
100083be:	f7ff fb91 	bl	10007ae4 <tud_descriptor_device_qualifier_cb>
100083c2:	1e02      	subs	r2, r0, #0
100083c4:	d100      	bne.n	100083c8 <tud_task_ext+0x7b0>
100083c6:	e5a6      	b.n	10007f16 <tud_task_ext+0x2fe>
100083c8:	4658      	mov	r0, fp
100083ca:	7813      	ldrb	r3, [r2, #0]
100083cc:	a90e      	add	r1, sp, #56	@ 0x38
100083ce:	f000 f96b 	bl	100086a8 <tud_control_xfer>
100083d2:	e5b1      	b.n	10007f38 <tud_task_ext+0x320>
100083d4:	8921      	ldrh	r1, [r4, #8]
100083d6:	f7fa fc8d 	bl	10002cf4 <tud_descriptor_string_cb>
100083da:	1e02      	subs	r2, r0, #0
100083dc:	d1f4      	bne.n	100083c8 <tud_task_ext+0x7b0>
100083de:	e59a      	b.n	10007f16 <tud_task_ext+0x2fe>
100083e0:	2b02      	cmp	r3, #2
100083e2:	d00f      	beq.n	10008404 <tud_task_ext+0x7ec>
100083e4:	f7ff fb80 	bl	10007ae8 <tud_descriptor_other_speed_configuration_cb>
100083e8:	1e02      	subs	r2, r0, #0
100083ea:	d1c9      	bne.n	10008380 <tud_task_ext+0x768>
100083ec:	e593      	b.n	10007f16 <tud_task_ext+0x2fe>
100083ee:	f7fa fc79 	bl	10002ce4 <tud_descriptor_device_cb>
100083f2:	1e02      	subs	r2, r0, #0
100083f4:	d100      	bne.n	100083f8 <tud_task_ext+0x7e0>
100083f6:	e58e      	b.n	10007f16 <tud_task_ext+0x2fe>
100083f8:	2312      	movs	r3, #18
100083fa:	4658      	mov	r0, fp
100083fc:	a90e      	add	r1, sp, #56	@ 0x38
100083fe:	f000 f953 	bl	100086a8 <tud_control_xfer>
10008402:	e599      	b.n	10007f38 <tud_task_ext+0x320>
10008404:	f7fa fc72 	bl	10002cec <tud_descriptor_configuration_cb>
10008408:	1e02      	subs	r2, r0, #0
1000840a:	d1b9      	bne.n	10008380 <tud_task_ext+0x768>
1000840c:	e583      	b.n	10007f16 <tud_task_ext+0x2fe>
1000840e:	46c0      	nop			@ (mov r8, r8)
10008410:	100096e1 	.word	0x100096e1

10008414 <usbd_open_edpt_pair>:
10008414:	b5f0      	push	{r4, r5, r6, r7, lr}
10008416:	464f      	mov	r7, r9
10008418:	4646      	mov	r6, r8
1000841a:	46d6      	mov	lr, sl
1000841c:	b5c0      	push	{r6, r7, lr}
1000841e:	000c      	movs	r4, r1
10008420:	0016      	movs	r6, r2
10008422:	001f      	movs	r7, r3
10008424:	b082      	sub	sp, #8
10008426:	2a00      	cmp	r2, #0
10008428:	d03a      	beq.n	100084a0 <usbd_open_edpt_pair+0x8c>
1000842a:	2370      	movs	r3, #112	@ 0x70
1000842c:	4698      	mov	r8, r3
1000842e:	4b1d      	ldr	r3, [pc, #116]	@ (100084a4 <usbd_open_edpt_pair+0x90>)
10008430:	2500      	movs	r5, #0
10008432:	4699      	mov	r9, r3
10008434:	4b1c      	ldr	r3, [pc, #112]	@ (100084a8 <usbd_open_edpt_pair+0x94>)
10008436:	469a      	mov	sl, r3
10008438:	e01a      	b.n	10008470 <usbd_open_edpt_pair+0x5c>
1000843a:	464b      	mov	r3, r9
1000843c:	781b      	ldrb	r3, [r3, #0]
1000843e:	0020      	movs	r0, r4
10008440:	9301      	str	r3, [sp, #4]
10008442:	4653      	mov	r3, sl
10008444:	7899      	ldrb	r1, [r3, #2]
10008446:	f001 fafd 	bl	10009a44 <tu_edpt_validate>
1000844a:	2800      	cmp	r0, #0
1000844c:	d01c      	beq.n	10008488 <usbd_open_edpt_pair+0x74>
1000844e:	0021      	movs	r1, r4
10008450:	9801      	ldr	r0, [sp, #4]
10008452:	f7ff f9a5 	bl	100077a0 <dcd_edpt_open>
10008456:	2800      	cmp	r0, #0
10008458:	d016      	beq.n	10008488 <usbd_open_edpt_pair+0x74>
1000845a:	78a3      	ldrb	r3, [r4, #2]
1000845c:	09da      	lsrs	r2, r3, #7
1000845e:	2a01      	cmp	r2, #1
10008460:	d019      	beq.n	10008496 <usbd_open_edpt_pair+0x82>
10008462:	9a0a      	ldr	r2, [sp, #40]	@ 0x28
10008464:	3501      	adds	r5, #1
10008466:	7013      	strb	r3, [r2, #0]
10008468:	42b5      	cmp	r5, r6
1000846a:	da19      	bge.n	100084a0 <usbd_open_edpt_pair+0x8c>
1000846c:	7823      	ldrb	r3, [r4, #0]
1000846e:	18e4      	adds	r4, r4, r3
10008470:	7863      	ldrb	r3, [r4, #1]
10008472:	2b05      	cmp	r3, #5
10008474:	d108      	bne.n	10008488 <usbd_open_edpt_pair+0x74>
10008476:	78e3      	ldrb	r3, [r4, #3]
10008478:	079b      	lsls	r3, r3, #30
1000847a:	0f9b      	lsrs	r3, r3, #30
1000847c:	42bb      	cmp	r3, r7
1000847e:	d103      	bne.n	10008488 <usbd_open_edpt_pair+0x74>
10008480:	4642      	mov	r2, r8
10008482:	78a3      	ldrb	r3, [r4, #2]
10008484:	421a      	tst	r2, r3
10008486:	d0d8      	beq.n	1000843a <usbd_open_edpt_pair+0x26>
10008488:	2000      	movs	r0, #0
1000848a:	b002      	add	sp, #8
1000848c:	bce0      	pop	{r5, r6, r7}
1000848e:	46ba      	mov	sl, r7
10008490:	46b1      	mov	r9, r6
10008492:	46a8      	mov	r8, r5
10008494:	bdf0      	pop	{r4, r5, r6, r7, pc}
10008496:	9a0b      	ldr	r2, [sp, #44]	@ 0x2c
10008498:	3501      	adds	r5, #1
1000849a:	7013      	strb	r3, [r2, #0]
1000849c:	42b5      	cmp	r5, r6
1000849e:	dbe5      	blt.n	1000846c <usbd_open_edpt_pair+0x58>
100084a0:	2001      	movs	r0, #1
100084a2:	e7f2      	b.n	1000848a <usbd_open_edpt_pair+0x76>
100084a4:	20001064 	.word	0x20001064
100084a8:	20003008 	.word	0x20003008

100084ac <usbd_edpt_open>:
100084ac:	2270      	movs	r2, #112	@ 0x70
100084ae:	b570      	push	{r4, r5, r6, lr}
100084b0:	788b      	ldrb	r3, [r1, #2]
100084b2:	000c      	movs	r4, r1
100084b4:	421a      	tst	r2, r3
100084b6:	d001      	beq.n	100084bc <usbd_edpt_open+0x10>
100084b8:	2000      	movs	r0, #0
100084ba:	bd70      	pop	{r4, r5, r6, pc}
100084bc:	4b06      	ldr	r3, [pc, #24]	@ (100084d8 <usbd_edpt_open+0x2c>)
100084be:	0020      	movs	r0, r4
100084c0:	781d      	ldrb	r5, [r3, #0]
100084c2:	4b06      	ldr	r3, [pc, #24]	@ (100084dc <usbd_edpt_open+0x30>)
100084c4:	7899      	ldrb	r1, [r3, #2]
100084c6:	f001 fabd 	bl	10009a44 <tu_edpt_validate>
100084ca:	2800      	cmp	r0, #0
100084cc:	d0f4      	beq.n	100084b8 <usbd_edpt_open+0xc>
100084ce:	0021      	movs	r1, r4
100084d0:	0028      	movs	r0, r5
100084d2:	f7ff f965 	bl	100077a0 <dcd_edpt_open>
100084d6:	e7f0      	b.n	100084ba <usbd_edpt_open+0xe>
100084d8:	20001064 	.word	0x20001064
100084dc:	20003008 	.word	0x20003008

100084e0 <usbd_edpt_claim>:
100084e0:	207f      	movs	r0, #127	@ 0x7f
100084e2:	4b07      	ldr	r3, [pc, #28]	@ (10008500 <usbd_edpt_claim+0x20>)
100084e4:	b510      	push	{r4, lr}
100084e6:	681a      	ldr	r2, [r3, #0]
100084e8:	4008      	ands	r0, r1
100084ea:	09cb      	lsrs	r3, r1, #7
100084ec:	3334      	adds	r3, #52	@ 0x34
100084ee:	0040      	lsls	r0, r0, #1
100084f0:	18c0      	adds	r0, r0, r3
100084f2:	4b04      	ldr	r3, [pc, #16]	@ (10008504 <usbd_edpt_claim+0x24>)
100084f4:	0011      	movs	r1, r2
100084f6:	18c0      	adds	r0, r0, r3
100084f8:	f001 fa60 	bl	100099bc <tu_edpt_claim>
100084fc:	bd10      	pop	{r4, pc}
100084fe:	46c0      	nop			@ (mov r8, r8)
10008500:	2000305c 	.word	0x2000305c
10008504:	20003008 	.word	0x20003008

10008508 <usbd_edpt_release>:
10008508:	207f      	movs	r0, #127	@ 0x7f
1000850a:	4b07      	ldr	r3, [pc, #28]	@ (10008528 <usbd_edpt_release+0x20>)
1000850c:	b510      	push	{r4, lr}
1000850e:	681a      	ldr	r2, [r3, #0]
10008510:	4008      	ands	r0, r1
10008512:	09cb      	lsrs	r3, r1, #7
10008514:	3334      	adds	r3, #52	@ 0x34
10008516:	0040      	lsls	r0, r0, #1
10008518:	18c0      	adds	r0, r0, r3
1000851a:	4b04      	ldr	r3, [pc, #16]	@ (1000852c <usbd_edpt_release+0x24>)
1000851c:	0011      	movs	r1, r2
1000851e:	18c0      	adds	r0, r0, r3
10008520:	f001 fa74 	bl	10009a0c <tu_edpt_release>
10008524:	bd10      	pop	{r4, pc}
10008526:	46c0      	nop			@ (mov r8, r8)
10008528:	2000305c 	.word	0x2000305c
1000852c:	20003008 	.word	0x20003008

10008530 <usbd_edpt_xfer>:
10008530:	b570      	push	{r4, r5, r6, lr}
10008532:	247f      	movs	r4, #127	@ 0x7f
10008534:	09c8      	lsrs	r0, r1, #7
10008536:	4684      	mov	ip, r0
10008538:	400c      	ands	r4, r1
1000853a:	480f      	ldr	r0, [pc, #60]	@ (10008578 <usbd_edpt_xfer+0x48>)
1000853c:	0064      	lsls	r4, r4, #1
1000853e:	1904      	adds	r4, r0, r4
10008540:	4464      	add	r4, ip
10008542:	3430      	adds	r4, #48	@ 0x30
10008544:	7920      	ldrb	r0, [r4, #4]
10008546:	07c0      	lsls	r0, r0, #31
10008548:	d501      	bpl.n	1000854e <usbd_edpt_xfer+0x1e>
1000854a:	2000      	movs	r0, #0
1000854c:	bd70      	pop	{r4, r5, r6, pc}
1000854e:	480b      	ldr	r0, [pc, #44]	@ (1000857c <usbd_edpt_xfer+0x4c>)
10008550:	2501      	movs	r5, #1
10008552:	7800      	ldrb	r0, [r0, #0]
10008554:	4684      	mov	ip, r0
10008556:	7920      	ldrb	r0, [r4, #4]
10008558:	4328      	orrs	r0, r5
1000855a:	7120      	strb	r0, [r4, #4]
1000855c:	4660      	mov	r0, ip
1000855e:	f7ff fa31 	bl	100079c4 <dcd_edpt_xfer>
10008562:	2800      	cmp	r0, #0
10008564:	d1f2      	bne.n	1000854c <usbd_edpt_xfer+0x1c>
10008566:	2201      	movs	r2, #1
10008568:	7923      	ldrb	r3, [r4, #4]
1000856a:	4393      	bics	r3, r2
1000856c:	7123      	strb	r3, [r4, #4]
1000856e:	7923      	ldrb	r3, [r4, #4]
10008570:	3203      	adds	r2, #3
10008572:	4393      	bics	r3, r2
10008574:	7123      	strb	r3, [r4, #4]
10008576:	e7e8      	b.n	1000854a <usbd_edpt_xfer+0x1a>
10008578:	20003008 	.word	0x20003008
1000857c:	20001064 	.word	0x20001064

10008580 <usbd_edpt_clear_stall>:
10008580:	b510      	push	{r4, lr}
10008582:	4b0b      	ldr	r3, [pc, #44]	@ (100085b0 <usbd_edpt_clear_stall+0x30>)
10008584:	000c      	movs	r4, r1
10008586:	7818      	ldrb	r0, [r3, #0]
10008588:	f7ff fa4c 	bl	10007a24 <dcd_edpt_clear_stall>
1000858c:	227f      	movs	r2, #127	@ 0x7f
1000858e:	4b09      	ldr	r3, [pc, #36]	@ (100085b4 <usbd_edpt_clear_stall+0x34>)
10008590:	4022      	ands	r2, r4
10008592:	0052      	lsls	r2, r2, #1
10008594:	1899      	adds	r1, r3, r2
10008596:	2202      	movs	r2, #2
10008598:	09e4      	lsrs	r4, r4, #7
1000859a:	1909      	adds	r1, r1, r4
1000859c:	3130      	adds	r1, #48	@ 0x30
1000859e:	790b      	ldrb	r3, [r1, #4]
100085a0:	4393      	bics	r3, r2
100085a2:	710b      	strb	r3, [r1, #4]
100085a4:	790b      	ldrb	r3, [r1, #4]
100085a6:	3a01      	subs	r2, #1
100085a8:	4393      	bics	r3, r2
100085aa:	710b      	strb	r3, [r1, #4]
100085ac:	bd10      	pop	{r4, pc}
100085ae:	46c0      	nop			@ (mov r8, r8)
100085b0:	20001064 	.word	0x20001064
100085b4:	20003008 	.word	0x20003008

100085b8 <usbd_sof_enable>:
100085b8:	2001      	movs	r0, #1
100085ba:	4694      	mov	ip, r2
100085bc:	4088      	lsls	r0, r1
100085be:	b2c1      	uxtb	r1, r0
100085c0:	4660      	mov	r0, ip
100085c2:	b510      	push	{r4, lr}
100085c4:	4b0e      	ldr	r3, [pc, #56]	@ (10008600 <usbd_sof_enable+0x48>)
100085c6:	4a0f      	ldr	r2, [pc, #60]	@ (10008604 <usbd_sof_enable+0x4c>)
100085c8:	781c      	ldrb	r4, [r3, #0]
100085ca:	78d3      	ldrb	r3, [r2, #3]
100085cc:	b2db      	uxtb	r3, r3
100085ce:	2800      	cmp	r0, #0
100085d0:	d011      	beq.n	100085f6 <usbd_sof_enable+0x3e>
100085d2:	78d0      	ldrb	r0, [r2, #3]
100085d4:	4301      	orrs	r1, r0
100085d6:	70d1      	strb	r1, [r2, #3]
100085d8:	78d1      	ldrb	r1, [r2, #3]
100085da:	4258      	negs	r0, r3
100085dc:	4143      	adcs	r3, r0
100085de:	4248      	negs	r0, r1
100085e0:	4141      	adcs	r1, r0
100085e2:	4299      	cmp	r1, r3
100085e4:	d006      	beq.n	100085f4 <usbd_sof_enable+0x3c>
100085e6:	78d1      	ldrb	r1, [r2, #3]
100085e8:	0020      	movs	r0, r4
100085ea:	1e4b      	subs	r3, r1, #1
100085ec:	4199      	sbcs	r1, r3
100085ee:	b2c9      	uxtb	r1, r1
100085f0:	f7ff f8ba 	bl	10007768 <dcd_sof_enable>
100085f4:	bd10      	pop	{r4, pc}
100085f6:	78d0      	ldrb	r0, [r2, #3]
100085f8:	4388      	bics	r0, r1
100085fa:	70d0      	strb	r0, [r2, #3]
100085fc:	e7ec      	b.n	100085d8 <usbd_sof_enable+0x20>
100085fe:	46c0      	nop			@ (mov r8, r8)
10008600:	20001064 	.word	0x20001064
10008604:	20003008 	.word	0x20003008

10008608 <usbd_edpt_iso_alloc>:
10008608:	2370      	movs	r3, #112	@ 0x70
1000860a:	2000      	movs	r0, #0
1000860c:	b510      	push	{r4, lr}
1000860e:	420b      	tst	r3, r1
10008610:	d103      	bne.n	1000861a <usbd_edpt_iso_alloc+0x12>
10008612:	4b02      	ldr	r3, [pc, #8]	@ (1000861c <usbd_edpt_iso_alloc+0x14>)
10008614:	7818      	ldrb	r0, [r3, #0]
10008616:	f7ff f94d 	bl	100078b4 <dcd_edpt_iso_alloc>
1000861a:	bd10      	pop	{r4, pc}
1000861c:	20001064 	.word	0x20001064

10008620 <usbd_edpt_iso_activate>:
10008620:	b5f8      	push	{r3, r4, r5, r6, r7, lr}
10008622:	2370      	movs	r3, #112	@ 0x70
10008624:	788c      	ldrb	r4, [r1, #2]
10008626:	000d      	movs	r5, r1
10008628:	4223      	tst	r3, r4
1000862a:	d001      	beq.n	10008630 <usbd_edpt_iso_activate+0x10>
1000862c:	2000      	movs	r0, #0
1000862e:	bdf8      	pop	{r3, r4, r5, r6, r7, pc}
10008630:	4e10      	ldr	r6, [pc, #64]	@ (10008674 <usbd_edpt_iso_activate+0x54>)
10008632:	4b11      	ldr	r3, [pc, #68]	@ (10008678 <usbd_edpt_iso_activate+0x58>)
10008634:	0028      	movs	r0, r5
10008636:	78b1      	ldrb	r1, [r6, #2]
10008638:	781f      	ldrb	r7, [r3, #0]
1000863a:	f001 fa03 	bl	10009a44 <tu_edpt_validate>
1000863e:	2800      	cmp	r0, #0
10008640:	d0f4      	beq.n	1000862c <usbd_edpt_iso_activate+0xc>
10008642:	237f      	movs	r3, #127	@ 0x7f
10008644:	2102      	movs	r1, #2
10008646:	4023      	ands	r3, r4
10008648:	005b      	lsls	r3, r3, #1
1000864a:	09e4      	lsrs	r4, r4, #7
1000864c:	18f3      	adds	r3, r6, r3
1000864e:	191b      	adds	r3, r3, r4
10008650:	3330      	adds	r3, #48	@ 0x30
10008652:	791a      	ldrb	r2, [r3, #4]
10008654:	0038      	movs	r0, r7
10008656:	438a      	bics	r2, r1
10008658:	711a      	strb	r2, [r3, #4]
1000865a:	791a      	ldrb	r2, [r3, #4]
1000865c:	3901      	subs	r1, #1
1000865e:	438a      	bics	r2, r1
10008660:	711a      	strb	r2, [r3, #4]
10008662:	791a      	ldrb	r2, [r3, #4]
10008664:	3103      	adds	r1, #3
10008666:	438a      	bics	r2, r1
10008668:	0029      	movs	r1, r5
1000866a:	711a      	strb	r2, [r3, #4]
1000866c:	f7ff f982 	bl	10007974 <dcd_edpt_iso_activate>
10008670:	e7dd      	b.n	1000862e <usbd_edpt_iso_activate+0xe>
10008672:	46c0      	nop			@ (mov r8, r8)
10008674:	20003008 	.word	0x20003008
10008678:	20001064 	.word	0x20001064

1000867c <tud_control_status>:
1000867c:	b570      	push	{r4, r5, r6, lr}
1000867e:	4c09      	ldr	r4, [pc, #36]	@ (100086a4 <tud_control_status+0x28>)
10008680:	0006      	movs	r6, r0
10008682:	2208      	movs	r2, #8
10008684:	0020      	movs	r0, r4
10008686:	000d      	movs	r5, r1
10008688:	f7fc ffb6 	bl	100055f8 <__wrap___aeabi_memcpy>
1000868c:	2300      	movs	r3, #0
1000868e:	2180      	movs	r1, #128	@ 0x80
10008690:	60e3      	str	r3, [r4, #12]
10008692:	60a3      	str	r3, [r4, #8]
10008694:	782b      	ldrb	r3, [r5, #0]
10008696:	0030      	movs	r0, r6
10008698:	4399      	bics	r1, r3
1000869a:	2200      	movs	r2, #0
1000869c:	2300      	movs	r3, #0
1000869e:	f7ff ff47 	bl	10008530 <usbd_edpt_xfer>
100086a2:	bd70      	pop	{r4, r5, r6, pc}
100086a4:	20002fe8 	.word	0x20002fe8

100086a8 <tud_control_xfer>:
100086a8:	b5f0      	push	{r4, r5, r6, r7, lr}
100086aa:	46c6      	mov	lr, r8
100086ac:	4c24      	ldr	r4, [pc, #144]	@ (10008740 <tud_control_xfer+0x98>)
100086ae:	0017      	movs	r7, r2
100086b0:	4680      	mov	r8, r0
100086b2:	2208      	movs	r2, #8
100086b4:	0020      	movs	r0, r4
100086b6:	b500      	push	{lr}
100086b8:	000d      	movs	r5, r1
100086ba:	001e      	movs	r6, r3
100086bc:	f7fc ff9c 	bl	100055f8 <__wrap___aeabi_memcpy>
100086c0:	2300      	movs	r3, #0
100086c2:	60a7      	str	r7, [r4, #8]
100086c4:	81e3      	strh	r3, [r4, #14]
100086c6:	79eb      	ldrb	r3, [r5, #7]
100086c8:	79aa      	ldrb	r2, [r5, #6]
100086ca:	021b      	lsls	r3, r3, #8
100086cc:	4313      	orrs	r3, r2
100086ce:	1c1a      	adds	r2, r3, #0
100086d0:	42b3      	cmp	r3, r6
100086d2:	d900      	bls.n	100086d6 <tud_control_xfer+0x2e>
100086d4:	1c32      	adds	r2, r6, #0
100086d6:	b296      	uxth	r6, r2
100086d8:	81a2      	strh	r2, [r4, #12]
100086da:	2b00      	cmp	r3, #0
100086dc:	d00c      	beq.n	100086f8 <tud_control_xfer+0x50>
100086de:	2e00      	cmp	r6, #0
100086e0:	d015      	beq.n	1000870e <tud_control_xfer+0x66>
100086e2:	2f00      	cmp	r7, #0
100086e4:	d02a      	beq.n	1000873c <tud_control_xfer+0x94>
100086e6:	2e40      	cmp	r6, #64	@ 0x40
100086e8:	d81a      	bhi.n	10008720 <tud_control_xfer+0x78>
100086ea:	7823      	ldrb	r3, [r4, #0]
100086ec:	b296      	uxth	r6, r2
100086ee:	2b7f      	cmp	r3, #127	@ 0x7f
100086f0:	d81b      	bhi.n	1000872a <tud_control_xfer+0x82>
100086f2:	2100      	movs	r1, #0
100086f4:	4a13      	ldr	r2, [pc, #76]	@ (10008744 <tud_control_xfer+0x9c>)
100086f6:	e00e      	b.n	10008716 <tud_control_xfer+0x6e>
100086f8:	2180      	movs	r1, #128	@ 0x80
100086fa:	782b      	ldrb	r3, [r5, #0]
100086fc:	2200      	movs	r2, #0
100086fe:	4399      	bics	r1, r3
10008700:	4640      	mov	r0, r8
10008702:	2300      	movs	r3, #0
10008704:	f7ff ff14 	bl	10008530 <usbd_edpt_xfer>
10008708:	bc80      	pop	{r7}
1000870a:	46b8      	mov	r8, r7
1000870c:	bdf0      	pop	{r4, r5, r6, r7, pc}
1000870e:	237f      	movs	r3, #127	@ 0x7f
10008710:	2200      	movs	r2, #0
10008712:	7821      	ldrb	r1, [r4, #0]
10008714:	4399      	bics	r1, r3
10008716:	0033      	movs	r3, r6
10008718:	4640      	mov	r0, r8
1000871a:	f7ff ff09 	bl	10008530 <usbd_edpt_xfer>
1000871e:	e7f3      	b.n	10008708 <tud_control_xfer+0x60>
10008720:	2240      	movs	r2, #64	@ 0x40
10008722:	7823      	ldrb	r3, [r4, #0]
10008724:	b296      	uxth	r6, r2
10008726:	2b7f      	cmp	r3, #127	@ 0x7f
10008728:	d9e3      	bls.n	100086f2 <tud_control_xfer+0x4a>
1000872a:	4c06      	ldr	r4, [pc, #24]	@ (10008744 <tud_control_xfer+0x9c>)
1000872c:	0032      	movs	r2, r6
1000872e:	0039      	movs	r1, r7
10008730:	0020      	movs	r0, r4
10008732:	f7fc ff61 	bl	100055f8 <__wrap___aeabi_memcpy>
10008736:	2180      	movs	r1, #128	@ 0x80
10008738:	0022      	movs	r2, r4
1000873a:	e7ec      	b.n	10008716 <tud_control_xfer+0x6e>
1000873c:	2000      	movs	r0, #0
1000873e:	e7e3      	b.n	10008708 <tud_control_xfer+0x60>
10008740:	20002fe8 	.word	0x20002fe8
10008744:	20002fa8 	.word	0x20002fa8

10008748 <usbd_control_reset>:
10008748:	b510      	push	{r4, lr}
1000874a:	2214      	movs	r2, #20
1000874c:	2100      	movs	r1, #0
1000874e:	4802      	ldr	r0, [pc, #8]	@ (10008758 <usbd_control_reset+0x10>)
10008750:	f7fc ff4c 	bl	100055ec <__wrap_memset>
10008754:	bd10      	pop	{r4, pc}
10008756:	46c0      	nop			@ (mov r8, r8)
10008758:	20002fe8 	.word	0x20002fe8

1000875c <usbd_control_set_complete_callback>:
1000875c:	4b01      	ldr	r3, [pc, #4]	@ (10008764 <usbd_control_set_complete_callback+0x8>)
1000875e:	6118      	str	r0, [r3, #16]
10008760:	4770      	bx	lr
10008762:	46c0      	nop			@ (mov r8, r8)
10008764:	20002fe8 	.word	0x20002fe8

10008768 <usbd_control_set_request>:
10008768:	b510      	push	{r4, lr}
1000876a:	4c05      	ldr	r4, [pc, #20]	@ (10008780 <usbd_control_set_request+0x18>)
1000876c:	0001      	movs	r1, r0
1000876e:	2208      	movs	r2, #8
10008770:	0020      	movs	r0, r4
10008772:	f7fc ff41 	bl	100055f8 <__wrap___aeabi_memcpy>
10008776:	2300      	movs	r3, #0
10008778:	60a3      	str	r3, [r4, #8]
1000877a:	60e3      	str	r3, [r4, #12]
1000877c:	bd10      	pop	{r4, pc}
1000877e:	46c0      	nop			@ (mov r8, r8)
10008780:	20002fe8 	.word	0x20002fe8

10008784 <usbd_control_xfer_cb>:
10008784:	b570      	push	{r4, r5, r6, lr}
10008786:	4c37      	ldr	r4, [pc, #220]	@ (10008864 <usbd_control_xfer_cb+0xe0>)
10008788:	001d      	movs	r5, r3
1000878a:	7823      	ldrb	r3, [r4, #0]
1000878c:	0006      	movs	r6, r0
1000878e:	09da      	lsrs	r2, r3, #7
10008790:	09c9      	lsrs	r1, r1, #7
10008792:	428a      	cmp	r2, r1
10008794:	d010      	beq.n	100087b8 <usbd_control_xfer_cb+0x34>
10008796:	2000      	movs	r0, #0
10008798:	2d00      	cmp	r5, #0
1000879a:	d000      	beq.n	1000879e <usbd_control_xfer_cb+0x1a>
1000879c:	bd70      	pop	{r4, r5, r6, pc}
1000879e:	0021      	movs	r1, r4
100087a0:	0030      	movs	r0, r6
100087a2:	f7fe ffef 	bl	10007784 <dcd_edpt0_status_complete>
100087a6:	6923      	ldr	r3, [r4, #16]
100087a8:	2b00      	cmp	r3, #0
100087aa:	d003      	beq.n	100087b4 <usbd_control_xfer_cb+0x30>
100087ac:	0022      	movs	r2, r4
100087ae:	2103      	movs	r1, #3
100087b0:	0030      	movs	r0, r6
100087b2:	4798      	blx	r3
100087b4:	2001      	movs	r0, #1
100087b6:	e7f1      	b.n	1000879c <usbd_control_xfer_cb+0x18>
100087b8:	2b7f      	cmp	r3, #127	@ 0x7f
100087ba:	d806      	bhi.n	100087ca <usbd_control_xfer_cb+0x46>
100087bc:	68a0      	ldr	r0, [r4, #8]
100087be:	2800      	cmp	r0, #0
100087c0:	d0ec      	beq.n	1000879c <usbd_control_xfer_cb+0x18>
100087c2:	002a      	movs	r2, r5
100087c4:	4928      	ldr	r1, [pc, #160]	@ (10008868 <usbd_control_xfer_cb+0xe4>)
100087c6:	f7fc ff17 	bl	100055f8 <__wrap___aeabi_memcpy>
100087ca:	89e2      	ldrh	r2, [r4, #14]
100087cc:	68a1      	ldr	r1, [r4, #8]
100087ce:	1952      	adds	r2, r2, r5
100087d0:	88e3      	ldrh	r3, [r4, #6]
100087d2:	b292      	uxth	r2, r2
100087d4:	1949      	adds	r1, r1, r5
100087d6:	81e2      	strh	r2, [r4, #14]
100087d8:	60a1      	str	r1, [r4, #8]
100087da:	4293      	cmp	r3, r2
100087dc:	d014      	beq.n	10008808 <usbd_control_xfer_cb+0x84>
100087de:	2d3f      	cmp	r5, #63	@ 0x3f
100087e0:	d912      	bls.n	10008808 <usbd_control_xfer_cb+0x84>
100087e2:	89a3      	ldrh	r3, [r4, #12]
100087e4:	1a98      	subs	r0, r3, r2
100087e6:	1c05      	adds	r5, r0, #0
100087e8:	b280      	uxth	r0, r0
100087ea:	2840      	cmp	r0, #64	@ 0x40
100087ec:	d828      	bhi.n	10008840 <usbd_control_xfer_cb+0xbc>
100087ee:	7820      	ldrb	r0, [r4, #0]
100087f0:	b2ad      	uxth	r5, r5
100087f2:	287f      	cmp	r0, #127	@ 0x7f
100087f4:	d826      	bhi.n	10008844 <usbd_control_xfer_cb+0xc0>
100087f6:	2100      	movs	r1, #0
100087f8:	429a      	cmp	r2, r3
100087fa:	d030      	beq.n	1000885e <usbd_control_xfer_cb+0xda>
100087fc:	4a1a      	ldr	r2, [pc, #104]	@ (10008868 <usbd_control_xfer_cb+0xe4>)
100087fe:	002b      	movs	r3, r5
10008800:	0030      	movs	r0, r6
10008802:	f7ff fe95 	bl	10008530 <usbd_edpt_xfer>
10008806:	e7c9      	b.n	1000879c <usbd_control_xfer_cb+0x18>
10008808:	6923      	ldr	r3, [r4, #16]
1000880a:	2b00      	cmp	r3, #0
1000880c:	d005      	beq.n	1000881a <usbd_control_xfer_cb+0x96>
1000880e:	0022      	movs	r2, r4
10008810:	2102      	movs	r1, #2
10008812:	0030      	movs	r0, r6
10008814:	4798      	blx	r3
10008816:	2800      	cmp	r0, #0
10008818:	d008      	beq.n	1000882c <usbd_control_xfer_cb+0xa8>
1000881a:	2180      	movs	r1, #128	@ 0x80
1000881c:	7823      	ldrb	r3, [r4, #0]
1000881e:	2200      	movs	r2, #0
10008820:	4399      	bics	r1, r3
10008822:	0030      	movs	r0, r6
10008824:	2300      	movs	r3, #0
10008826:	f7ff fe83 	bl	10008530 <usbd_edpt_xfer>
1000882a:	e7b7      	b.n	1000879c <usbd_control_xfer_cb+0x18>
1000882c:	2100      	movs	r1, #0
1000882e:	0030      	movs	r0, r6
10008830:	f7ff f8da 	bl	100079e8 <dcd_edpt_stall>
10008834:	0030      	movs	r0, r6
10008836:	2180      	movs	r1, #128	@ 0x80
10008838:	f7ff f8d6 	bl	100079e8 <dcd_edpt_stall>
1000883c:	2001      	movs	r0, #1
1000883e:	e7ad      	b.n	1000879c <usbd_control_xfer_cb+0x18>
10008840:	2540      	movs	r5, #64	@ 0x40
10008842:	e7d4      	b.n	100087ee <usbd_control_xfer_cb+0x6a>
10008844:	429a      	cmp	r2, r3
10008846:	d007      	beq.n	10008858 <usbd_control_xfer_cb+0xd4>
10008848:	4c07      	ldr	r4, [pc, #28]	@ (10008868 <usbd_control_xfer_cb+0xe4>)
1000884a:	002a      	movs	r2, r5
1000884c:	0020      	movs	r0, r4
1000884e:	f7fc fed3 	bl	100055f8 <__wrap___aeabi_memcpy>
10008852:	2180      	movs	r1, #128	@ 0x80
10008854:	0022      	movs	r2, r4
10008856:	e7d2      	b.n	100087fe <usbd_control_xfer_cb+0x7a>
10008858:	2180      	movs	r1, #128	@ 0x80
1000885a:	2200      	movs	r2, #0
1000885c:	e7cf      	b.n	100087fe <usbd_control_xfer_cb+0x7a>
1000885e:	2200      	movs	r2, #0
10008860:	e7cd      	b.n	100087fe <usbd_control_xfer_cb+0x7a>
10008862:	46c0      	nop			@ (mov r8, r8)
10008864:	20002fe8 	.word	0x20002fe8
10008868:	20002fa8 	.word	0x20002fa8

1000886c <tud_audio_rx_done_pre_read_cb>:
1000886c:	2001      	movs	r0, #1
1000886e:	4770      	bx	lr

10008870 <tud_audio_rx_done_post_read_cb>:
10008870:	2001      	movs	r0, #1
10008872:	4770      	bx	lr

10008874 <tud_audio_fb_done_cb>:
10008874:	4770      	bx	lr
10008876:	46c0      	nop			@ (mov r8, r8)

10008878 <tud_audio_feedback_format_correction_cb>:
10008878:	2001      	movs	r0, #1
1000887a:	4770      	bx	lr

1000887c <tud_audio_set_req_ep_cb>:
1000887c:	2000      	movs	r0, #0
1000887e:	4770      	bx	lr

10008880 <tud_audio_set_req_itf_cb>:
10008880:	2000      	movs	r0, #0
10008882:	4770      	bx	lr

10008884 <tud_audio_get_req_ep_cb>:
10008884:	2000      	movs	r0, #0
10008886:	4770      	bx	lr

10008888 <tud_audio_get_req_itf_cb>:
10008888:	2000      	movs	r0, #0
1000888a:	4770      	bx	lr

1000888c <tud_audio_n_available>:
1000888c:	b510      	push	{r4, lr}
1000888e:	2800      	cmp	r0, #0
10008890:	d107      	bne.n	100088a2 <tud_audio_n_available+0x16>
10008892:	4805      	ldr	r0, [pc, #20]	@ (100088a8 <tud_audio_n_available+0x1c>)
10008894:	6843      	ldr	r3, [r0, #4]
10008896:	2b00      	cmp	r3, #0
10008898:	d003      	beq.n	100088a2 <tud_audio_n_available+0x16>
1000889a:	3040      	adds	r0, #64	@ 0x40
1000889c:	f001 f95c 	bl	10009b58 <tu_fifo_count>
100088a0:	e000      	b.n	100088a4 <tud_audio_n_available+0x18>
100088a2:	2000      	movs	r0, #0
100088a4:	bd10      	pop	{r4, pc}
100088a6:	46c0      	nop			@ (mov r8, r8)
100088a8:	20001078 	.word	0x20001078

100088ac <tud_audio_n_read>:
100088ac:	b510      	push	{r4, lr}
100088ae:	2800      	cmp	r0, #0
100088b0:	d107      	bne.n	100088c2 <tud_audio_n_read+0x16>
100088b2:	4805      	ldr	r0, [pc, #20]	@ (100088c8 <tud_audio_n_read+0x1c>)
100088b4:	6843      	ldr	r3, [r0, #4]
100088b6:	2b00      	cmp	r3, #0
100088b8:	d003      	beq.n	100088c2 <tud_audio_n_read+0x16>
100088ba:	3040      	adds	r0, #64	@ 0x40
100088bc:	f001 f9ce 	bl	10009c5c <tu_fifo_read_n>
100088c0:	e000      	b.n	100088c4 <tud_audio_n_read+0x18>
100088c2:	2000      	movs	r0, #0
100088c4:	bd10      	pop	{r4, pc}
100088c6:	46c0      	nop			@ (mov r8, r8)
100088c8:	20001078 	.word	0x20001078

100088cc <audiod_init>:
100088cc:	b530      	push	{r4, r5, lr}
100088ce:	4c12      	ldr	r4, [pc, #72]	@ (10008918 <audiod_init+0x4c>)
100088d0:	b083      	sub	sp, #12
100088d2:	225c      	movs	r2, #92	@ 0x5c
100088d4:	2100      	movs	r1, #0
100088d6:	0020      	movs	r0, r4
100088d8:	f7fc fe88 	bl	100055ec <__wrap_memset>
100088dc:	4b0f      	ldr	r3, [pc, #60]	@ (1000891c <audiod_init+0x50>)
100088de:	2240      	movs	r2, #64	@ 0x40
100088e0:	6363      	str	r3, [r4, #52]	@ 0x34
100088e2:	2338      	movs	r3, #56	@ 0x38
100088e4:	54e2      	strb	r2, [r4, r3]
100088e6:	4b0e      	ldr	r3, [pc, #56]	@ (10008920 <audiod_init+0x54>)
100088e8:	0020      	movs	r0, r4
100088ea:	63e3      	str	r3, [r4, #60]	@ 0x3c
100088ec:	2301      	movs	r3, #1
100088ee:	3284      	adds	r2, #132	@ 0x84
100088f0:	9300      	str	r3, [sp, #0]
100088f2:	490c      	ldr	r1, [pc, #48]	@ (10008924 <audiod_init+0x58>)
100088f4:	00d2      	lsls	r2, r2, #3
100088f6:	3040      	adds	r0, #64	@ 0x40
100088f8:	f001 f8f8 	bl	10009aec <tu_fifo_config>
100088fc:	4d0a      	ldr	r5, [pc, #40]	@ (10008928 <audiod_init+0x5c>)
100088fe:	0028      	movs	r0, r5
10008900:	f7fa ffde 	bl	100038c0 <mutex_init>
10008904:	2300      	movs	r3, #0
10008906:	64e3      	str	r3, [r4, #76]	@ 0x4c
10008908:	4b08      	ldr	r3, [pc, #32]	@ (1000892c <audiod_init+0x60>)
1000890a:	6525      	str	r5, [r4, #80]	@ 0x50
1000890c:	6563      	str	r3, [r4, #84]	@ 0x54
1000890e:	4b08      	ldr	r3, [pc, #32]	@ (10008930 <audiod_init+0x64>)
10008910:	65a3      	str	r3, [r4, #88]	@ 0x58
10008912:	b003      	add	sp, #12
10008914:	bd30      	pop	{r4, r5, pc}
10008916:	46c0      	nop			@ (mov r8, r8)
10008918:	20001078 	.word	0x20001078
1000891c:	20004a98 	.word	0x20004a98
10008920:	2000312c 	.word	0x2000312c
10008924:	20004b34 	.word	0x20004b34
10008928:	20004b2c 	.word	0x20004b2c
1000892c:	20005564 	.word	0x20005564
10008930:	20005154 	.word	0x20005154

10008934 <audiod_deinit>:
10008934:	2000      	movs	r0, #0
10008936:	4770      	bx	lr

10008938 <audiod_reset>:
10008938:	b510      	push	{r4, lr}
1000893a:	4c05      	ldr	r4, [pc, #20]	@ (10008950 <audiod_reset+0x18>)
1000893c:	2234      	movs	r2, #52	@ 0x34
1000893e:	2100      	movs	r1, #0
10008940:	0020      	movs	r0, r4
10008942:	f7fc fe53 	bl	100055ec <__wrap_memset>
10008946:	0020      	movs	r0, r4
10008948:	3040      	adds	r0, #64	@ 0x40
1000894a:	f001 fb03 	bl	10009f54 <tu_fifo_clear>
1000894e:	bd10      	pop	{r4, pc}
10008950:	20001078 	.word	0x20001078

10008954 <audiod_open>:
10008954:	b5f8      	push	{r3, r4, r5, r6, r7, lr}
10008956:	46ce      	mov	lr, r9
10008958:	4647      	mov	r7, r8
1000895a:	b580      	push	{r7, lr}
1000895c:	794b      	ldrb	r3, [r1, #5]
1000895e:	0005      	movs	r5, r0
10008960:	2000      	movs	r0, #0
10008962:	2b01      	cmp	r3, #1
10008964:	d102      	bne.n	1000896c <audiod_open+0x18>
10008966:	798b      	ldrb	r3, [r1, #6]
10008968:	2b01      	cmp	r3, #1
1000896a:	d003      	beq.n	10008974 <audiod_open+0x20>
1000896c:	bcc0      	pop	{r6, r7}
1000896e:	46b9      	mov	r9, r7
10008970:	46b0      	mov	r8, r6
10008972:	bdf8      	pop	{r3, r4, r5, r6, r7, pc}
10008974:	79cb      	ldrb	r3, [r1, #7]
10008976:	2b20      	cmp	r3, #32
10008978:	d1f8      	bne.n	1000896c <audiod_open+0x18>
1000897a:	790b      	ldrb	r3, [r1, #4]
1000897c:	2b00      	cmp	r3, #0
1000897e:	d1f5      	bne.n	1000896c <audiod_open+0x18>
10008980:	78cb      	ldrb	r3, [r1, #3]
10008982:	1e1e      	subs	r6, r3, #0
10008984:	d1f2      	bne.n	1000896c <audiod_open+0x18>
10008986:	4b28      	ldr	r3, [pc, #160]	@ (10008a28 <audiod_open+0xd4>)
10008988:	001f      	movs	r7, r3
1000898a:	685b      	ldr	r3, [r3, #4]
1000898c:	2b00      	cmp	r3, #0
1000898e:	d1ed      	bne.n	1000896c <audiod_open+0x18>
10008990:	238f      	movs	r3, #143	@ 0x8f
10008992:	823b      	strh	r3, [r7, #16]
10008994:	2300      	movs	r3, #0
10008996:	0008      	movs	r0, r1
10008998:	001c      	movs	r4, r3
1000899a:	4698      	mov	r8, r3
1000899c:	3303      	adds	r3, #3
1000899e:	469c      	mov	ip, r3
100089a0:	6079      	str	r1, [r7, #4]
100089a2:	703d      	strb	r5, [r7, #0]
100089a4:	3087      	adds	r0, #135	@ 0x87
100089a6:	e004      	b.n	100089b2 <audiod_open+0x5e>
100089a8:	780b      	ldrb	r3, [r1, #0]
100089aa:	18c9      	adds	r1, r1, r3
100089ac:	1a43      	subs	r3, r0, r1
100089ae:	2b00      	cmp	r3, #0
100089b0:	dd20      	ble.n	100089f4 <audiod_open+0xa0>
100089b2:	784b      	ldrb	r3, [r1, #1]
100089b4:	2b05      	cmp	r3, #5
100089b6:	d1f7      	bne.n	100089a8 <audiod_open+0x54>
100089b8:	4662      	mov	r2, ip
100089ba:	78cb      	ldrb	r3, [r1, #3]
100089bc:	401a      	ands	r2, r3
100089be:	2a01      	cmp	r2, #1
100089c0:	d1f2      	bne.n	100089a8 <audiod_open+0x54>
100089c2:	322f      	adds	r2, #47	@ 0x2f
100089c4:	4013      	ands	r3, r2
100089c6:	2b10      	cmp	r3, #16
100089c8:	d02a      	beq.n	10008a20 <audiod_open+0xcc>
100089ca:	2b00      	cmp	r3, #0
100089cc:	d1ec      	bne.n	100089a8 <audiod_open+0x54>
100089ce:	788a      	ldrb	r2, [r1, #2]
100089d0:	09d3      	lsrs	r3, r2, #7
100089d2:	2b01      	cmp	r3, #1
100089d4:	d0e8      	beq.n	100089a8 <audiod_open+0x54>
100089d6:	794b      	ldrb	r3, [r1, #5]
100089d8:	790c      	ldrb	r4, [r1, #4]
100089da:	021b      	lsls	r3, r3, #8
100089dc:	4323      	orrs	r3, r4
100089de:	055b      	lsls	r3, r3, #21
100089e0:	0d5b      	lsrs	r3, r3, #21
100089e2:	4699      	mov	r9, r3
100089e4:	4543      	cmp	r3, r8
100089e6:	d200      	bcs.n	100089ea <audiod_open+0x96>
100089e8:	46c1      	mov	r9, r8
100089ea:	464b      	mov	r3, r9
100089ec:	b29b      	uxth	r3, r3
100089ee:	4698      	mov	r8, r3
100089f0:	0014      	movs	r4, r2
100089f2:	e7d9      	b.n	100089a8 <audiod_open+0x54>
100089f4:	2c00      	cmp	r4, #0
100089f6:	d107      	bne.n	10008a08 <audiod_open+0xb4>
100089f8:	2e00      	cmp	r6, #0
100089fa:	d10b      	bne.n	10008a14 <audiod_open+0xc0>
100089fc:	2301      	movs	r3, #1
100089fe:	8a38      	ldrh	r0, [r7, #16]
10008a00:	73bb      	strb	r3, [r7, #14]
10008a02:	3808      	subs	r0, #8
10008a04:	b280      	uxth	r0, r0
10008a06:	e7b1      	b.n	1000896c <audiod_open+0x18>
10008a08:	4642      	mov	r2, r8
10008a0a:	0021      	movs	r1, r4
10008a0c:	0028      	movs	r0, r5
10008a0e:	f7ff fdfb 	bl	10008608 <usbd_edpt_iso_alloc>
10008a12:	e7f1      	b.n	100089f8 <audiod_open+0xa4>
10008a14:	2204      	movs	r2, #4
10008a16:	0031      	movs	r1, r6
10008a18:	0028      	movs	r0, r5
10008a1a:	f7ff fdf5 	bl	10008608 <usbd_edpt_iso_alloc>
10008a1e:	e7ed      	b.n	100089fc <audiod_open+0xa8>
10008a20:	788b      	ldrb	r3, [r1, #2]
10008a22:	001e      	movs	r6, r3
10008a24:	e7c0      	b.n	100089a8 <audiod_open+0x54>
10008a26:	46c0      	nop			@ (mov r8, r8)
10008a28:	20001078 	.word	0x20001078

10008a2c <audiod_control_xfer_cb>:
10008a2c:	b5f0      	push	{r4, r5, r6, r7, lr}
10008a2e:	4657      	mov	r7, sl
10008a30:	464e      	mov	r6, r9
10008a32:	46de      	mov	lr, fp
10008a34:	4645      	mov	r5, r8
10008a36:	b5e0      	push	{r5, r6, r7, lr}
10008a38:	4681      	mov	r9, r0
10008a3a:	0017      	movs	r7, r2
10008a3c:	b089      	sub	sp, #36	@ 0x24
10008a3e:	2901      	cmp	r1, #1
10008a40:	d03c      	beq.n	10008abc <audiod_control_xfer_cb+0x90>
10008a42:	2902      	cmp	r1, #2
10008a44:	d007      	beq.n	10008a56 <audiod_control_xfer_cb+0x2a>
10008a46:	2001      	movs	r0, #1
10008a48:	b009      	add	sp, #36	@ 0x24
10008a4a:	bcf0      	pop	{r4, r5, r6, r7}
10008a4c:	46bb      	mov	fp, r7
10008a4e:	46b2      	mov	sl, r6
10008a50:	46a9      	mov	r9, r5
10008a52:	46a0      	mov	r8, r4
10008a54:	bdf0      	pop	{r4, r5, r6, r7, pc}
10008a56:	7813      	ldrb	r3, [r2, #0]
10008a58:	221f      	movs	r2, #31
10008a5a:	0019      	movs	r1, r3
10008a5c:	4391      	bics	r1, r2
10008a5e:	2920      	cmp	r1, #32
10008a60:	d1f1      	bne.n	10008a46 <audiod_control_xfer_cb+0x1a>
10008a62:	06db      	lsls	r3, r3, #27
10008a64:	0edb      	lsrs	r3, r3, #27
10008a66:	2b01      	cmp	r3, #1
10008a68:	d100      	bne.n	10008a6c <audiod_control_xfer_cb+0x40>
10008a6a:	e15b      	b.n	10008d24 <audiod_control_xfer_cb+0x2f8>
10008a6c:	2b02      	cmp	r3, #2
10008a6e:	d133      	bne.n	10008ad8 <audiod_control_xfer_cb+0xac>
10008a70:	4bc0      	ldr	r3, [pc, #768]	@ (10008d74 <audiod_control_xfer_cb+0x348>)
10008a72:	469a      	mov	sl, r3
10008a74:	685b      	ldr	r3, [r3, #4]
10008a76:	2b00      	cmp	r3, #0
10008a78:	d02e      	beq.n	10008ad8 <audiod_control_xfer_cb+0xac>
10008a7a:	4652      	mov	r2, sl
10008a7c:	8a10      	ldrh	r0, [r2, #16]
10008a7e:	781a      	ldrb	r2, [r3, #0]
10008a80:	1818      	adds	r0, r3, r0
10008a82:	189b      	adds	r3, r3, r2
10008a84:	79da      	ldrb	r2, [r3, #7]
10008a86:	7999      	ldrb	r1, [r3, #6]
10008a88:	0212      	lsls	r2, r2, #8
10008a8a:	430a      	orrs	r2, r1
10008a8c:	189b      	adds	r3, r3, r2
10008a8e:	1ac2      	subs	r2, r0, r3
10008a90:	2a00      	cmp	r2, #0
10008a92:	dd21      	ble.n	10008ad8 <audiod_control_xfer_cb+0xac>
10008a94:	7939      	ldrb	r1, [r7, #4]
10008a96:	e004      	b.n	10008aa2 <audiod_control_xfer_cb+0x76>
10008a98:	781a      	ldrb	r2, [r3, #0]
10008a9a:	189b      	adds	r3, r3, r2
10008a9c:	1ac2      	subs	r2, r0, r3
10008a9e:	2a00      	cmp	r2, #0
10008aa0:	dd1a      	ble.n	10008ad8 <audiod_control_xfer_cb+0xac>
10008aa2:	785a      	ldrb	r2, [r3, #1]
10008aa4:	2a05      	cmp	r2, #5
10008aa6:	d1f7      	bne.n	10008a98 <audiod_control_xfer_cb+0x6c>
10008aa8:	789a      	ldrb	r2, [r3, #2]
10008aaa:	428a      	cmp	r2, r1
10008aac:	d1f4      	bne.n	10008a98 <audiod_control_xfer_cb+0x6c>
10008aae:	4653      	mov	r3, sl
10008ab0:	0039      	movs	r1, r7
10008ab2:	4648      	mov	r0, r9
10008ab4:	6b5a      	ldr	r2, [r3, #52]	@ 0x34
10008ab6:	f7ff fee1 	bl	1000887c <tud_audio_set_req_ep_cb>
10008aba:	e7c5      	b.n	10008a48 <audiod_control_xfer_cb+0x1c>
10008abc:	2360      	movs	r3, #96	@ 0x60
10008abe:	7811      	ldrb	r1, [r2, #0]
10008ac0:	001a      	movs	r2, r3
10008ac2:	400a      	ands	r2, r1
10008ac4:	0016      	movs	r6, r2
10008ac6:	420b      	tst	r3, r1
10008ac8:	d108      	bne.n	10008adc <audiod_control_xfer_cb+0xb0>
10008aca:	787b      	ldrb	r3, [r7, #1]
10008acc:	2b0a      	cmp	r3, #10
10008ace:	d044      	beq.n	10008b5a <audiod_control_xfer_cb+0x12e>
10008ad0:	2b0b      	cmp	r3, #11
10008ad2:	d06a      	beq.n	10008baa <audiod_control_xfer_cb+0x17e>
10008ad4:	2b01      	cmp	r3, #1
10008ad6:	d0b6      	beq.n	10008a46 <audiod_control_xfer_cb+0x1a>
10008ad8:	2000      	movs	r0, #0
10008ada:	e7b5      	b.n	10008a48 <audiod_control_xfer_cb+0x1c>
10008adc:	2a20      	cmp	r2, #32
10008ade:	d1fb      	bne.n	10008ad8 <audiod_control_xfer_cb+0xac>
10008ae0:	797b      	ldrb	r3, [r7, #5]
10008ae2:	7938      	ldrb	r0, [r7, #4]
10008ae4:	021b      	lsls	r3, r3, #8
10008ae6:	06ca      	lsls	r2, r1, #27
10008ae8:	4303      	orrs	r3, r0
10008aea:	0ed2      	lsrs	r2, r2, #27
10008aec:	2a01      	cmp	r2, #1
10008aee:	d100      	bne.n	10008af2 <audiod_control_xfer_cb+0xc6>
10008af0:	e142      	b.n	10008d78 <audiod_control_xfer_cb+0x34c>
10008af2:	2a02      	cmp	r2, #2
10008af4:	d1f0      	bne.n	10008ad8 <audiod_control_xfer_cb+0xac>
10008af6:	4b9f      	ldr	r3, [pc, #636]	@ (10008d74 <audiod_control_xfer_cb+0x348>)
10008af8:	469a      	mov	sl, r3
10008afa:	685b      	ldr	r3, [r3, #4]
10008afc:	2b00      	cmp	r3, #0
10008afe:	d0eb      	beq.n	10008ad8 <audiod_control_xfer_cb+0xac>
10008b00:	4652      	mov	r2, sl
10008b02:	8a12      	ldrh	r2, [r2, #16]
10008b04:	4694      	mov	ip, r2
10008b06:	781a      	ldrb	r2, [r3, #0]
10008b08:	449c      	add	ip, r3
10008b0a:	189b      	adds	r3, r3, r2
10008b0c:	79da      	ldrb	r2, [r3, #7]
10008b0e:	799c      	ldrb	r4, [r3, #6]
10008b10:	0212      	lsls	r2, r2, #8
10008b12:	4322      	orrs	r2, r4
10008b14:	189b      	adds	r3, r3, r2
10008b16:	4662      	mov	r2, ip
10008b18:	1ad2      	subs	r2, r2, r3
10008b1a:	2a00      	cmp	r2, #0
10008b1c:	dddc      	ble.n	10008ad8 <audiod_control_xfer_cb+0xac>
10008b1e:	0002      	movs	r2, r0
10008b20:	4660      	mov	r0, ip
10008b22:	468c      	mov	ip, r1
10008b24:	0011      	movs	r1, r2
10008b26:	e004      	b.n	10008b32 <audiod_control_xfer_cb+0x106>
10008b28:	781a      	ldrb	r2, [r3, #0]
10008b2a:	189b      	adds	r3, r3, r2
10008b2c:	1ac2      	subs	r2, r0, r3
10008b2e:	2a00      	cmp	r2, #0
10008b30:	ddd2      	ble.n	10008ad8 <audiod_control_xfer_cb+0xac>
10008b32:	785a      	ldrb	r2, [r3, #1]
10008b34:	2a05      	cmp	r2, #5
10008b36:	d1f7      	bne.n	10008b28 <audiod_control_xfer_cb+0xfc>
10008b38:	789a      	ldrb	r2, [r3, #2]
10008b3a:	428a      	cmp	r2, r1
10008b3c:	d1f4      	bne.n	10008b28 <audiod_control_xfer_cb+0xfc>
10008b3e:	4661      	mov	r1, ip
10008b40:	b249      	sxtb	r1, r1
10008b42:	2900      	cmp	r1, #0
10008b44:	da00      	bge.n	10008b48 <audiod_control_xfer_cb+0x11c>
10008b46:	e241      	b.n	10008fcc <audiod_control_xfer_cb+0x5a0>
10008b48:	4652      	mov	r2, sl
10008b4a:	2338      	movs	r3, #56	@ 0x38
10008b4c:	0039      	movs	r1, r7
10008b4e:	5cd3      	ldrb	r3, [r2, r3]
10008b50:	4648      	mov	r0, r9
10008b52:	6b52      	ldr	r2, [r2, #52]	@ 0x34
10008b54:	f7ff fda8 	bl	100086a8 <tud_control_xfer>
10008b58:	e776      	b.n	10008a48 <audiod_control_xfer_cb+0x1c>
10008b5a:	4a86      	ldr	r2, [pc, #536]	@ (10008d74 <audiod_control_xfer_cb+0x348>)
10008b5c:	6853      	ldr	r3, [r2, #4]
10008b5e:	4692      	mov	sl, r2
10008b60:	2b00      	cmp	r3, #0
10008b62:	d0b9      	beq.n	10008ad8 <audiod_control_xfer_cb+0xac>
10008b64:	8a11      	ldrh	r1, [r2, #16]
10008b66:	781a      	ldrb	r2, [r3, #0]
10008b68:	3908      	subs	r1, #8
10008b6a:	1859      	adds	r1, r3, r1
10008b6c:	189b      	adds	r3, r3, r2
10008b6e:	79da      	ldrb	r2, [r3, #7]
10008b70:	7998      	ldrb	r0, [r3, #6]
10008b72:	0212      	lsls	r2, r2, #8
10008b74:	4302      	orrs	r2, r0
10008b76:	189b      	adds	r3, r3, r2
10008b78:	1aca      	subs	r2, r1, r3
10008b7a:	2a00      	cmp	r2, #0
10008b7c:	ddac      	ble.n	10008ad8 <audiod_control_xfer_cb+0xac>
10008b7e:	7938      	ldrb	r0, [r7, #4]
10008b80:	4684      	mov	ip, r0
10008b82:	0030      	movs	r0, r6
10008b84:	e004      	b.n	10008b90 <audiod_control_xfer_cb+0x164>
10008b86:	781a      	ldrb	r2, [r3, #0]
10008b88:	189b      	adds	r3, r3, r2
10008b8a:	1aca      	subs	r2, r1, r3
10008b8c:	2a00      	cmp	r2, #0
10008b8e:	dda3      	ble.n	10008ad8 <audiod_control_xfer_cb+0xac>
10008b90:	785a      	ldrb	r2, [r3, #1]
10008b92:	2a04      	cmp	r2, #4
10008b94:	d1f7      	bne.n	10008b86 <audiod_control_xfer_cb+0x15a>
10008b96:	78da      	ldrb	r2, [r3, #3]
10008b98:	2a00      	cmp	r2, #0
10008b9a:	d1f4      	bne.n	10008b86 <audiod_control_xfer_cb+0x15a>
10008b9c:	789a      	ldrb	r2, [r3, #2]
10008b9e:	4562      	cmp	r2, ip
10008ba0:	d100      	bne.n	10008ba4 <audiod_control_xfer_cb+0x178>
10008ba2:	e0b6      	b.n	10008d12 <audiod_control_xfer_cb+0x2e6>
10008ba4:	3001      	adds	r0, #1
10008ba6:	b2c0      	uxtb	r0, r0
10008ba8:	e7ed      	b.n	10008b86 <audiod_control_xfer_cb+0x15a>
10008baa:	4a72      	ldr	r2, [pc, #456]	@ (10008d74 <audiod_control_xfer_cb+0x348>)
10008bac:	6853      	ldr	r3, [r2, #4]
10008bae:	4692      	mov	sl, r2
10008bb0:	2b00      	cmp	r3, #0
10008bb2:	d091      	beq.n	10008ad8 <audiod_control_xfer_cb+0xac>
10008bb4:	8a12      	ldrh	r2, [r2, #16]
10008bb6:	7819      	ldrb	r1, [r3, #0]
10008bb8:	3a08      	subs	r2, #8
10008bba:	189a      	adds	r2, r3, r2
10008bbc:	185b      	adds	r3, r3, r1
10008bbe:	79d9      	ldrb	r1, [r3, #7]
10008bc0:	7998      	ldrb	r0, [r3, #6]
10008bc2:	0209      	lsls	r1, r1, #8
10008bc4:	4301      	orrs	r1, r0
10008bc6:	1859      	adds	r1, r3, r1
10008bc8:	1a53      	subs	r3, r2, r1
10008bca:	2b00      	cmp	r3, #0
10008bcc:	dd84      	ble.n	10008ad8 <audiod_control_xfer_cb+0xac>
10008bce:	793b      	ldrb	r3, [r7, #4]
10008bd0:	0030      	movs	r0, r6
10008bd2:	469b      	mov	fp, r3
10008bd4:	000b      	movs	r3, r1
10008bd6:	e005      	b.n	10008be4 <audiod_control_xfer_cb+0x1b8>
10008bd8:	7819      	ldrb	r1, [r3, #0]
10008bda:	185b      	adds	r3, r3, r1
10008bdc:	1ad1      	subs	r1, r2, r3
10008bde:	2900      	cmp	r1, #0
10008be0:	dc00      	bgt.n	10008be4 <audiod_control_xfer_cb+0x1b8>
10008be2:	e779      	b.n	10008ad8 <audiod_control_xfer_cb+0xac>
10008be4:	7859      	ldrb	r1, [r3, #1]
10008be6:	2904      	cmp	r1, #4
10008be8:	d1f6      	bne.n	10008bd8 <audiod_control_xfer_cb+0x1ac>
10008bea:	78d9      	ldrb	r1, [r3, #3]
10008bec:	2900      	cmp	r1, #0
10008bee:	d1f3      	bne.n	10008bd8 <audiod_control_xfer_cb+0x1ac>
10008bf0:	789c      	ldrb	r4, [r3, #2]
10008bf2:	455c      	cmp	r4, fp
10008bf4:	d002      	beq.n	10008bfc <audiod_control_xfer_cb+0x1d0>
10008bf6:	3001      	adds	r0, #1
10008bf8:	b2c0      	uxtb	r0, r0
10008bfa:	e7ed      	b.n	10008bd8 <audiod_control_xfer_cb+0x1ac>
10008bfc:	9102      	str	r1, [sp, #8]
10008bfe:	4698      	mov	r8, r3
10008c00:	78fb      	ldrb	r3, [r7, #3]
10008c02:	78ba      	ldrb	r2, [r7, #2]
10008c04:	021b      	lsls	r3, r3, #8
10008c06:	4313      	orrs	r3, r2
10008c08:	9300      	str	r3, [sp, #0]
10008c0a:	4653      	mov	r3, sl
10008c0c:	7b1b      	ldrb	r3, [r3, #12]
10008c0e:	0006      	movs	r6, r0
10008c10:	455b      	cmp	r3, fp
10008c12:	d100      	bne.n	10008c16 <audiod_control_xfer_cb+0x1ea>
10008c14:	e132      	b.n	10008e7c <audiod_control_xfer_cb+0x450>
10008c16:	4652      	mov	r2, sl
10008c18:	466b      	mov	r3, sp
10008c1a:	7819      	ldrb	r1, [r3, #0]
10008c1c:	6bd3      	ldr	r3, [r2, #60]	@ 0x3c
10008c1e:	9100      	str	r1, [sp, #0]
10008c20:	5599      	strb	r1, [r3, r6]
10008c22:	8a13      	ldrh	r3, [r2, #16]
10008c24:	6851      	ldr	r1, [r2, #4]
10008c26:	4642      	mov	r2, r8
10008c28:	3b08      	subs	r3, #8
10008c2a:	18c9      	adds	r1, r1, r3
10008c2c:	1a8b      	subs	r3, r1, r2
10008c2e:	2b00      	cmp	r3, #0
10008c30:	dd58      	ble.n	10008ce4 <audiod_control_xfer_cb+0x2b8>
10008c32:	46dc      	mov	ip, fp
10008c34:	e004      	b.n	10008c40 <audiod_control_xfer_cb+0x214>
10008c36:	7813      	ldrb	r3, [r2, #0]
10008c38:	18d2      	adds	r2, r2, r3
10008c3a:	1a8b      	subs	r3, r1, r2
10008c3c:	2b00      	cmp	r3, #0
10008c3e:	dd51      	ble.n	10008ce4 <audiod_control_xfer_cb+0x2b8>
10008c40:	7850      	ldrb	r0, [r2, #1]
10008c42:	2804      	cmp	r0, #4
10008c44:	d1f7      	bne.n	10008c36 <audiod_control_xfer_cb+0x20a>
10008c46:	7890      	ldrb	r0, [r2, #2]
10008c48:	4560      	cmp	r0, ip
10008c4a:	d1f4      	bne.n	10008c36 <audiod_control_xfer_cb+0x20a>
10008c4c:	78d0      	ldrb	r0, [r2, #3]
10008c4e:	9c00      	ldr	r4, [sp, #0]
10008c50:	42a0      	cmp	r0, r4
10008c52:	d1f0      	bne.n	10008c36 <audiod_control_xfer_cb+0x20a>
10008c54:	4690      	mov	r8, r2
10008c56:	7912      	ldrb	r2, [r2, #4]
10008c58:	2600      	movs	r6, #0
10008c5a:	9201      	str	r2, [sp, #4]
10008c5c:	2a00      	cmp	r2, #0
10008c5e:	d100      	bne.n	10008c62 <audiod_control_xfer_cb+0x236>
10008c60:	e13c      	b.n	10008edc <audiod_control_xfer_cb+0x4b0>
10008c62:	9103      	str	r1, [sp, #12]
10008c64:	e00b      	b.n	10008c7e <audiod_control_xfer_cb+0x252>
10008c66:	4642      	mov	r2, r8
10008c68:	46c4      	mov	ip, r8
10008c6a:	7813      	ldrb	r3, [r2, #0]
10008c6c:	9a01      	ldr	r2, [sp, #4]
10008c6e:	449c      	add	ip, r3
10008c70:	4663      	mov	r3, ip
10008c72:	46e0      	mov	r8, ip
10008c74:	42b2      	cmp	r2, r6
10008c76:	d800      	bhi.n	10008c7a <audiod_control_xfer_cb+0x24e>
10008c78:	e12c      	b.n	10008ed4 <audiod_control_xfer_cb+0x4a8>
10008c7a:	9a03      	ldr	r2, [sp, #12]
10008c7c:	1ad3      	subs	r3, r2, r3
10008c7e:	2b00      	cmp	r3, #0
10008c80:	dc00      	bgt.n	10008c84 <audiod_control_xfer_cb+0x258>
10008c82:	e127      	b.n	10008ed4 <audiod_control_xfer_cb+0x4a8>
10008c84:	4643      	mov	r3, r8
10008c86:	785b      	ldrb	r3, [r3, #1]
10008c88:	2b05      	cmp	r3, #5
10008c8a:	d1ec      	bne.n	10008c66 <audiod_control_xfer_cb+0x23a>
10008c8c:	4641      	mov	r1, r8
10008c8e:	4648      	mov	r0, r9
10008c90:	f7ff fcc6 	bl	10008620 <usbd_edpt_iso_activate>
10008c94:	2800      	cmp	r0, #0
10008c96:	d100      	bne.n	10008c9a <audiod_control_xfer_cb+0x26e>
10008c98:	e71e      	b.n	10008ad8 <audiod_control_xfer_cb+0xac>
10008c9a:	4643      	mov	r3, r8
10008c9c:	789b      	ldrb	r3, [r3, #2]
10008c9e:	4648      	mov	r0, r9
10008ca0:	001c      	movs	r4, r3
10008ca2:	0019      	movs	r1, r3
10008ca4:	f7ff fc6c 	bl	10008580 <usbd_edpt_clear_stall>
10008ca8:	09e3      	lsrs	r3, r4, #7
10008caa:	d100      	bne.n	10008cae <audiod_control_xfer_cb+0x282>
10008cac:	e0fc      	b.n	10008ea8 <audiod_control_xfer_cb+0x47c>
10008cae:	4643      	mov	r3, r8
10008cb0:	2230      	movs	r2, #48	@ 0x30
10008cb2:	78db      	ldrb	r3, [r3, #3]
10008cb4:	4013      	ands	r3, r2
10008cb6:	2b10      	cmp	r3, #16
10008cb8:	d106      	bne.n	10008cc8 <audiod_control_xfer_cb+0x29c>
10008cba:	4651      	mov	r1, sl
10008cbc:	4643      	mov	r3, r8
10008cbe:	734c      	strb	r4, [r1, #13]
10008cc0:	799b      	ldrb	r3, [r3, #6]
10008cc2:	3a10      	subs	r2, #16
10008cc4:	3b01      	subs	r3, #1
10008cc6:	548b      	strb	r3, [r1, r2]
10008cc8:	1c73      	adds	r3, r6, #1
10008cca:	b2de      	uxtb	r6, r3
10008ccc:	e7cb      	b.n	10008c66 <audiod_control_xfer_cb+0x23a>
10008cce:	2321      	movs	r3, #33	@ 0x21
10008cd0:	4652      	mov	r2, sl
10008cd2:	5cd3      	ldrb	r3, [r2, r3]
10008cd4:	2b02      	cmp	r3, #2
10008cd6:	d100      	bne.n	10008cda <audiod_control_xfer_cb+0x2ae>
10008cd8:	e1b4      	b.n	10009044 <audiod_control_xfer_cb+0x618>
10008cda:	4653      	mov	r3, sl
10008cdc:	465a      	mov	r2, fp
10008cde:	625a      	str	r2, [r3, #36]	@ 0x24
10008ce0:	4642      	mov	r2, r8
10008ce2:	629a      	str	r2, [r3, #40]	@ 0x28
10008ce4:	4652      	mov	r2, sl
10008ce6:	7b53      	ldrb	r3, [r2, #13]
10008ce8:	2b00      	cmp	r3, #0
10008cea:	d010      	beq.n	10008d0e <audiod_control_xfer_cb+0x2e2>
10008cec:	2321      	movs	r3, #33	@ 0x21
10008cee:	2102      	movs	r1, #2
10008cf0:	5cd3      	ldrb	r3, [r2, r3]
10008cf2:	2200      	movs	r2, #0
10008cf4:	3b01      	subs	r3, #1
10008cf6:	b2db      	uxtb	r3, r3
10008cf8:	4299      	cmp	r1, r3
10008cfa:	4152      	adcs	r2, r2
10008cfc:	4648      	mov	r0, r9
10008cfe:	2101      	movs	r1, #1
10008d00:	f7ff fc5a 	bl	100085b8 <usbd_sof_enable>
10008d04:	0039      	movs	r1, r7
10008d06:	4648      	mov	r0, r9
10008d08:	f7ff fcb8 	bl	1000867c <tud_control_status>
10008d0c:	e69b      	b.n	10008a46 <audiod_control_xfer_cb+0x1a>
10008d0e:	2200      	movs	r2, #0
10008d10:	e7f4      	b.n	10008cfc <audiod_control_xfer_cb+0x2d0>
10008d12:	4653      	mov	r3, sl
10008d14:	6bda      	ldr	r2, [r3, #60]	@ 0x3c
10008d16:	0039      	movs	r1, r7
10008d18:	1812      	adds	r2, r2, r0
10008d1a:	2301      	movs	r3, #1
10008d1c:	4648      	mov	r0, r9
10008d1e:	f7ff fcc3 	bl	100086a8 <tud_control_xfer>
10008d22:	e691      	b.n	10008a48 <audiod_control_xfer_cb+0x1c>
10008d24:	793a      	ldrb	r2, [r7, #4]
10008d26:	797b      	ldrb	r3, [r7, #5]
10008d28:	4694      	mov	ip, r2
10008d2a:	4a12      	ldr	r2, [pc, #72]	@ (10008d74 <audiod_control_xfer_cb+0x348>)
10008d2c:	021b      	lsls	r3, r3, #8
10008d2e:	4692      	mov	sl, r2
10008d30:	6850      	ldr	r0, [r2, #4]
10008d32:	0a19      	lsrs	r1, r3, #8
10008d34:	2b00      	cmp	r3, #0
10008d36:	d14d      	bne.n	10008dd4 <audiod_control_xfer_cb+0x3a8>
10008d38:	2800      	cmp	r0, #0
10008d3a:	d100      	bne.n	10008d3e <audiod_control_xfer_cb+0x312>
10008d3c:	e6cc      	b.n	10008ad8 <audiod_control_xfer_cb+0xac>
10008d3e:	8a12      	ldrh	r2, [r2, #16]
10008d40:	0003      	movs	r3, r0
10008d42:	3a08      	subs	r2, #8
10008d44:	1881      	adds	r1, r0, r2
10008d46:	2a00      	cmp	r2, #0
10008d48:	dc06      	bgt.n	10008d58 <audiod_control_xfer_cb+0x32c>
10008d4a:	e6c5      	b.n	10008ad8 <audiod_control_xfer_cb+0xac>
10008d4c:	781a      	ldrb	r2, [r3, #0]
10008d4e:	189b      	adds	r3, r3, r2
10008d50:	1aca      	subs	r2, r1, r3
10008d52:	2a00      	cmp	r2, #0
10008d54:	dc00      	bgt.n	10008d58 <audiod_control_xfer_cb+0x32c>
10008d56:	e6bf      	b.n	10008ad8 <audiod_control_xfer_cb+0xac>
10008d58:	785a      	ldrb	r2, [r3, #1]
10008d5a:	2a04      	cmp	r2, #4
10008d5c:	d1f6      	bne.n	10008d4c <audiod_control_xfer_cb+0x320>
10008d5e:	7882      	ldrb	r2, [r0, #2]
10008d60:	4562      	cmp	r2, ip
10008d62:	d1f3      	bne.n	10008d4c <audiod_control_xfer_cb+0x320>
10008d64:	4653      	mov	r3, sl
10008d66:	0039      	movs	r1, r7
10008d68:	4648      	mov	r0, r9
10008d6a:	6b5a      	ldr	r2, [r3, #52]	@ 0x34
10008d6c:	f7ff fd88 	bl	10008880 <tud_audio_set_req_itf_cb>
10008d70:	e66a      	b.n	10008a48 <audiod_control_xfer_cb+0x1c>
10008d72:	46c0      	nop			@ (mov r8, r8)
10008d74:	20001078 	.word	0x20001078
10008d78:	4abf      	ldr	r2, [pc, #764]	@ (10009078 <audiod_control_xfer_cb+0x64c>)
10008d7a:	0a1b      	lsrs	r3, r3, #8
10008d7c:	4692      	mov	sl, r2
10008d7e:	6852      	ldr	r2, [r2, #4]
10008d80:	0015      	movs	r5, r2
10008d82:	2b00      	cmp	r3, #0
10008d84:	d14c      	bne.n	10008e20 <audiod_control_xfer_cb+0x3f4>
10008d86:	2a00      	cmp	r2, #0
10008d88:	d100      	bne.n	10008d8c <audiod_control_xfer_cb+0x360>
10008d8a:	e6a5      	b.n	10008ad8 <audiod_control_xfer_cb+0xac>
10008d8c:	4653      	mov	r3, sl
10008d8e:	46ac      	mov	ip, r5
10008d90:	8a1a      	ldrh	r2, [r3, #16]
10008d92:	002b      	movs	r3, r5
10008d94:	3a08      	subs	r2, #8
10008d96:	4494      	add	ip, r2
10008d98:	2a00      	cmp	r2, #0
10008d9a:	dc00      	bgt.n	10008d9e <audiod_control_xfer_cb+0x372>
10008d9c:	e69c      	b.n	10008ad8 <audiod_control_xfer_cb+0xac>
10008d9e:	0002      	movs	r2, r0
10008da0:	000c      	movs	r4, r1
10008da2:	4660      	mov	r0, ip
10008da4:	0029      	movs	r1, r5
10008da6:	4694      	mov	ip, r2
10008da8:	e005      	b.n	10008db6 <audiod_control_xfer_cb+0x38a>
10008daa:	781a      	ldrb	r2, [r3, #0]
10008dac:	189b      	adds	r3, r3, r2
10008dae:	1ac2      	subs	r2, r0, r3
10008db0:	2a00      	cmp	r2, #0
10008db2:	dc00      	bgt.n	10008db6 <audiod_control_xfer_cb+0x38a>
10008db4:	e690      	b.n	10008ad8 <audiod_control_xfer_cb+0xac>
10008db6:	785a      	ldrb	r2, [r3, #1]
10008db8:	2a04      	cmp	r2, #4
10008dba:	d1f6      	bne.n	10008daa <audiod_control_xfer_cb+0x37e>
10008dbc:	788a      	ldrb	r2, [r1, #2]
10008dbe:	4562      	cmp	r2, ip
10008dc0:	d1f3      	bne.n	10008daa <audiod_control_xfer_cb+0x37e>
10008dc2:	b261      	sxtb	r1, r4
10008dc4:	2900      	cmp	r1, #0
10008dc6:	db00      	blt.n	10008dca <audiod_control_xfer_cb+0x39e>
10008dc8:	e6be      	b.n	10008b48 <audiod_control_xfer_cb+0x11c>
10008dca:	0039      	movs	r1, r7
10008dcc:	4648      	mov	r0, r9
10008dce:	f7ff fd5b 	bl	10008888 <tud_audio_get_req_itf_cb>
10008dd2:	e639      	b.n	10008a48 <audiod_control_xfer_cb+0x1c>
10008dd4:	2800      	cmp	r0, #0
10008dd6:	d100      	bne.n	10008dda <audiod_control_xfer_cb+0x3ae>
10008dd8:	e67e      	b.n	10008ad8 <audiod_control_xfer_cb+0xac>
10008dda:	7883      	ldrb	r3, [r0, #2]
10008ddc:	b2c9      	uxtb	r1, r1
10008dde:	4563      	cmp	r3, ip
10008de0:	d000      	beq.n	10008de4 <audiod_control_xfer_cb+0x3b8>
10008de2:	e679      	b.n	10008ad8 <audiod_control_xfer_cb+0xac>
10008de4:	7803      	ldrb	r3, [r0, #0]
10008de6:	18c3      	adds	r3, r0, r3
10008de8:	79d8      	ldrb	r0, [r3, #7]
10008dea:	799a      	ldrb	r2, [r3, #6]
10008dec:	0200      	lsls	r0, r0, #8
10008dee:	4310      	orrs	r0, r2
10008df0:	781a      	ldrb	r2, [r3, #0]
10008df2:	1a84      	subs	r4, r0, r2
10008df4:	2c00      	cmp	r4, #0
10008df6:	dc00      	bgt.n	10008dfa <audiod_control_xfer_cb+0x3ce>
10008df8:	e66e      	b.n	10008ad8 <audiod_control_xfer_cb+0xac>
10008dfa:	1818      	adds	r0, r3, r0
10008dfc:	189b      	adds	r3, r3, r2
10008dfe:	e005      	b.n	10008e0c <audiod_control_xfer_cb+0x3e0>
10008e00:	781a      	ldrb	r2, [r3, #0]
10008e02:	189b      	adds	r3, r3, r2
10008e04:	1ac2      	subs	r2, r0, r3
10008e06:	2a00      	cmp	r2, #0
10008e08:	dc00      	bgt.n	10008e0c <audiod_control_xfer_cb+0x3e0>
10008e0a:	e665      	b.n	10008ad8 <audiod_control_xfer_cb+0xac>
10008e0c:	78da      	ldrb	r2, [r3, #3]
10008e0e:	428a      	cmp	r2, r1
10008e10:	d1f6      	bne.n	10008e00 <audiod_control_xfer_cb+0x3d4>
10008e12:	4653      	mov	r3, sl
10008e14:	0039      	movs	r1, r7
10008e16:	4648      	mov	r0, r9
10008e18:	6b5a      	ldr	r2, [r3, #52]	@ 0x34
10008e1a:	f7f9 fd85 	bl	10002928 <tud_audio_set_req_entity_cb>
10008e1e:	e613      	b.n	10008a48 <audiod_control_xfer_cb+0x1c>
10008e20:	2a00      	cmp	r2, #0
10008e22:	d100      	bne.n	10008e26 <audiod_control_xfer_cb+0x3fa>
10008e24:	e658      	b.n	10008ad8 <audiod_control_xfer_cb+0xac>
10008e26:	7892      	ldrb	r2, [r2, #2]
10008e28:	b2db      	uxtb	r3, r3
10008e2a:	4282      	cmp	r2, r0
10008e2c:	d000      	beq.n	10008e30 <audiod_control_xfer_cb+0x404>
10008e2e:	e653      	b.n	10008ad8 <audiod_control_xfer_cb+0xac>
10008e30:	782a      	ldrb	r2, [r5, #0]
10008e32:	18aa      	adds	r2, r5, r2
10008e34:	7990      	ldrb	r0, [r2, #6]
10008e36:	0004      	movs	r4, r0
10008e38:	79d0      	ldrb	r0, [r2, #7]
10008e3a:	0200      	lsls	r0, r0, #8
10008e3c:	4320      	orrs	r0, r4
10008e3e:	7814      	ldrb	r4, [r2, #0]
10008e40:	1b05      	subs	r5, r0, r4
10008e42:	2d00      	cmp	r5, #0
10008e44:	dc00      	bgt.n	10008e48 <audiod_control_xfer_cb+0x41c>
10008e46:	e647      	b.n	10008ad8 <audiod_control_xfer_cb+0xac>
10008e48:	4684      	mov	ip, r0
10008e4a:	4494      	add	ip, r2
10008e4c:	4660      	mov	r0, ip
10008e4e:	1912      	adds	r2, r2, r4
10008e50:	468c      	mov	ip, r1
10008e52:	0001      	movs	r1, r0
10008e54:	e005      	b.n	10008e62 <audiod_control_xfer_cb+0x436>
10008e56:	7810      	ldrb	r0, [r2, #0]
10008e58:	1812      	adds	r2, r2, r0
10008e5a:	1a88      	subs	r0, r1, r2
10008e5c:	2800      	cmp	r0, #0
10008e5e:	dc00      	bgt.n	10008e62 <audiod_control_xfer_cb+0x436>
10008e60:	e63a      	b.n	10008ad8 <audiod_control_xfer_cb+0xac>
10008e62:	78d0      	ldrb	r0, [r2, #3]
10008e64:	4298      	cmp	r0, r3
10008e66:	d1f6      	bne.n	10008e56 <audiod_control_xfer_cb+0x42a>
10008e68:	4661      	mov	r1, ip
10008e6a:	b249      	sxtb	r1, r1
10008e6c:	2900      	cmp	r1, #0
10008e6e:	db00      	blt.n	10008e72 <audiod_control_xfer_cb+0x446>
10008e70:	e66a      	b.n	10008b48 <audiod_control_xfer_cb+0x11c>
10008e72:	0039      	movs	r1, r7
10008e74:	4648      	mov	r0, r9
10008e76:	f7f9 fced 	bl	10002854 <tud_audio_get_req_entity_cb>
10008e7a:	e5e5      	b.n	10008a48 <audiod_control_xfer_cb+0x1c>
10008e7c:	4654      	mov	r4, sl
10008e7e:	0020      	movs	r0, r4
10008e80:	3040      	adds	r0, #64	@ 0x40
10008e82:	000d      	movs	r5, r1
10008e84:	7321      	strb	r1, [r4, #12]
10008e86:	f001 f865 	bl	10009f54 <tu_fifo_clear>
10008e8a:	0039      	movs	r1, r7
10008e8c:	4648      	mov	r0, r9
10008e8e:	f7f9 fdeb 	bl	10002a68 <tud_audio_set_itf_close_EP_cb>
10008e92:	2800      	cmp	r0, #0
10008e94:	d100      	bne.n	10008e98 <audiod_control_xfer_cb+0x46c>
10008e96:	e61f      	b.n	10008ad8 <audiod_control_xfer_cb+0xac>
10008e98:	2220      	movs	r2, #32
10008e9a:	2100      	movs	r1, #0
10008e9c:	4877      	ldr	r0, [pc, #476]	@ (1000907c <audiod_control_xfer_cb+0x650>)
10008e9e:	7225      	strb	r5, [r4, #8]
10008ea0:	7365      	strb	r5, [r4, #13]
10008ea2:	f7fc fba3 	bl	100055ec <__wrap_memset>
10008ea6:	e6b6      	b.n	10008c16 <audiod_control_xfer_cb+0x1ea>
10008ea8:	4650      	mov	r0, sl
10008eaa:	465b      	mov	r3, fp
10008eac:	7303      	strb	r3, [r0, #12]
10008eae:	4643      	mov	r3, r8
10008eb0:	7204      	strb	r4, [r0, #8]
10008eb2:	791a      	ldrb	r2, [r3, #4]
10008eb4:	795b      	ldrb	r3, [r3, #5]
10008eb6:	0021      	movs	r1, r4
10008eb8:	021b      	lsls	r3, r3, #8
10008eba:	4313      	orrs	r3, r2
10008ebc:	055b      	lsls	r3, r3, #21
10008ebe:	0d5b      	lsrs	r3, r3, #21
10008ec0:	6d42      	ldr	r2, [r0, #84]	@ 0x54
10008ec2:	8143      	strh	r3, [r0, #10]
10008ec4:	4648      	mov	r0, r9
10008ec6:	f7ff fb33 	bl	10008530 <usbd_edpt_xfer>
10008eca:	2800      	cmp	r0, #0
10008ecc:	d000      	beq.n	10008ed0 <audiod_control_xfer_cb+0x4a4>
10008ece:	e6fb      	b.n	10008cc8 <audiod_control_xfer_cb+0x29c>
10008ed0:	2000      	movs	r0, #0
10008ed2:	e5b9      	b.n	10008a48 <audiod_control_xfer_cb+0x1c>
10008ed4:	9a01      	ldr	r2, [sp, #4]
10008ed6:	4296      	cmp	r6, r2
10008ed8:	d000      	beq.n	10008edc <audiod_control_xfer_cb+0x4b0>
10008eda:	e5fd      	b.n	10008ad8 <audiod_control_xfer_cb+0xac>
10008edc:	0039      	movs	r1, r7
10008ede:	4648      	mov	r0, r9
10008ee0:	f7f9 fd4e 	bl	10002980 <tud_audio_set_itf_cb>
10008ee4:	2800      	cmp	r0, #0
10008ee6:	d100      	bne.n	10008eea <audiod_control_xfer_cb+0x4be>
10008ee8:	e5f6      	b.n	10008ad8 <audiod_control_xfer_cb+0xac>
10008eea:	4653      	mov	r3, sl
10008eec:	7b5b      	ldrb	r3, [r3, #13]
10008eee:	2b00      	cmp	r3, #0
10008ef0:	d100      	bne.n	10008ef4 <audiod_control_xfer_cb+0x4c8>
10008ef2:	e70c      	b.n	10008d0e <audiod_control_xfer_cb+0x2e2>
10008ef4:	9900      	ldr	r1, [sp, #0]
10008ef6:	aa05      	add	r2, sp, #20
10008ef8:	2000      	movs	r0, #0
10008efa:	f7f9 fde1 	bl	10002ac0 <tud_audio_feedback_params_cb>
10008efe:	ab04      	add	r3, sp, #16
10008f00:	791a      	ldrb	r2, [r3, #4]
10008f02:	4651      	mov	r1, sl
10008f04:	2321      	movs	r3, #33	@ 0x21
10008f06:	54ca      	strb	r2, [r1, r3]
10008f08:	f7fe fdf8 	bl	10007afc <tud_speed_get>
10008f0c:	2800      	cmp	r0, #0
10008f0e:	d100      	bne.n	10008f12 <audiod_control_xfer_cb+0x4e6>
10008f10:	e092      	b.n	10009038 <audiod_control_xfer_cb+0x60c>
10008f12:	f7fe fdf3 	bl	10007afc <tud_speed_get>
10008f16:	0003      	movs	r3, r0
10008f18:	1e5a      	subs	r2, r3, #1
10008f1a:	4193      	sbcs	r3, r2
10008f1c:	4a58      	ldr	r2, [pc, #352]	@ (10009080 <audiod_control_xfer_cb+0x654>)
10008f1e:	425b      	negs	r3, r3
10008f20:	4013      	ands	r3, r2
10008f22:	22fa      	movs	r2, #250	@ 0xfa
10008f24:	9c06      	ldr	r4, [sp, #24]
10008f26:	0092      	lsls	r2, r2, #2
10008f28:	189e      	adds	r6, r3, r2
10008f2a:	0031      	movs	r1, r6
10008f2c:	1e60      	subs	r0, r4, #1
10008f2e:	f7fb fc7b 	bl	10004828 <__wrap___aeabi_uidiv>
10008f32:	4655      	mov	r5, sl
10008f34:	0402      	lsls	r2, r0, #16
10008f36:	0031      	movs	r1, r6
10008f38:	0020      	movs	r0, r4
10008f3a:	61aa      	str	r2, [r5, #24]
10008f3c:	9200      	str	r2, [sp, #0]
10008f3e:	f7fb fc73 	bl	10004828 <__wrap___aeabi_uidiv>
10008f42:	3001      	adds	r0, #1
10008f44:	0403      	lsls	r3, r0, #16
10008f46:	9301      	str	r3, [sp, #4]
10008f48:	61eb      	str	r3, [r5, #28]
10008f4a:	ab04      	add	r3, sp, #16
10008f4c:	791b      	ldrb	r3, [r3, #4]
10008f4e:	46b0      	mov	r8, r6
10008f50:	46a3      	mov	fp, r4
10008f52:	2b03      	cmp	r3, #3
10008f54:	d83f      	bhi.n	10008fd6 <audiod_control_xfer_cb+0x5aa>
10008f56:	2b00      	cmp	r3, #0
10008f58:	d100      	bne.n	10008f5c <audiod_control_xfer_cb+0x530>
10008f5a:	e6c3      	b.n	10008ce4 <audiod_control_xfer_cb+0x2b8>
10008f5c:	9b07      	ldr	r3, [sp, #28]
10008f5e:	4698      	mov	r8, r3
10008f60:	f7fe fdcc 	bl	10007afc <tud_speed_get>
10008f64:	230d      	movs	r3, #13
10008f66:	2800      	cmp	r0, #0
10008f68:	d100      	bne.n	10008f6c <audiod_control_xfer_cb+0x540>
10008f6a:	3b03      	subs	r3, #3
10008f6c:	2220      	movs	r2, #32
10008f6e:	4655      	mov	r5, sl
10008f70:	5ca9      	ldrb	r1, [r5, r2]
10008f72:	4658      	mov	r0, fp
10008f74:	3a1f      	subs	r2, #31
10008f76:	408a      	lsls	r2, r1
10008f78:	9100      	str	r1, [sp, #0]
10008f7a:	4098      	lsls	r0, r3
10008f7c:	4641      	mov	r1, r8
10008f7e:	0016      	movs	r6, r2
10008f80:	f7fb fc52 	bl	10004828 <__wrap___aeabi_uidiv>
10008f84:	3001      	adds	r0, #1
10008f86:	4286      	cmp	r6, r0
10008f88:	d200      	bcs.n	10008f8c <audiod_control_xfer_cb+0x560>
10008f8a:	e6ab      	b.n	10008ce4 <audiod_control_xfer_cb+0x2b8>
10008f8c:	4659      	mov	r1, fp
10008f8e:	4640      	mov	r0, r8
10008f90:	f7fb fc4a 	bl	10004828 <__wrap___aeabi_uidiv>
10008f94:	2900      	cmp	r1, #0
10008f96:	d000      	beq.n	10008f9a <audiod_control_xfer_cb+0x56e>
10008f98:	e699      	b.n	10008cce <audiod_control_xfer_cb+0x2a2>
10008f9a:	45c3      	cmp	fp, r8
10008f9c:	d900      	bls.n	10008fa0 <audiod_control_xfer_cb+0x574>
10008f9e:	e696      	b.n	10008cce <audiod_control_xfer_cb+0x2a2>
10008fa0:	1e43      	subs	r3, r0, #1
10008fa2:	4218      	tst	r0, r3
10008fa4:	d000      	beq.n	10008fa8 <audiod_control_xfer_cb+0x57c>
10008fa6:	e692      	b.n	10008cce <audiod_control_xfer_cb+0x2a2>
10008fa8:	2321      	movs	r3, #33	@ 0x21
10008faa:	2203      	movs	r2, #3
10008fac:	54ea      	strb	r2, [r5, r3]
10008fae:	e002      	b.n	10008fb6 <audiod_control_xfer_cb+0x58a>
10008fb0:	9b02      	ldr	r3, [sp, #8]
10008fb2:	3301      	adds	r3, #1
10008fb4:	9302      	str	r3, [sp, #8]
10008fb6:	0840      	lsrs	r0, r0, #1
10008fb8:	d1fa      	bne.n	10008fb0 <audiod_control_xfer_cb+0x584>
10008fba:	2311      	movs	r3, #17
10008fbc:	9a00      	ldr	r2, [sp, #0]
10008fbe:	4651      	mov	r1, sl
10008fc0:	1a9b      	subs	r3, r3, r2
10008fc2:	9a02      	ldr	r2, [sp, #8]
10008fc4:	1a9b      	subs	r3, r3, r2
10008fc6:	2224      	movs	r2, #36	@ 0x24
10008fc8:	548b      	strb	r3, [r1, r2]
10008fca:	e68b      	b.n	10008ce4 <audiod_control_xfer_cb+0x2b8>
10008fcc:	0039      	movs	r1, r7
10008fce:	4648      	mov	r0, r9
10008fd0:	f7ff fc58 	bl	10008884 <tud_audio_get_req_ep_cb>
10008fd4:	e538      	b.n	10008a48 <audiod_control_xfer_cb+0x1c>
10008fd6:	2b04      	cmp	r3, #4
10008fd8:	d000      	beq.n	10008fdc <audiod_control_xfer_cb+0x5b0>
10008fda:	e683      	b.n	10008ce4 <audiod_control_xfer_cb+0x2b8>
10008fdc:	2344      	movs	r3, #68	@ 0x44
10008fde:	4654      	mov	r4, sl
10008fe0:	5aeb      	ldrh	r3, [r5, r3]
10008fe2:	2164      	movs	r1, #100	@ 0x64
10008fe4:	085d      	lsrs	r5, r3, #1
10008fe6:	042b      	lsls	r3, r5, #16
10008fe8:	62a3      	str	r3, [r4, #40]	@ 0x28
10008fea:	4658      	mov	r0, fp
10008fec:	85a5      	strh	r5, [r4, #44]	@ 0x2c
10008fee:	f7fb fc1b 	bl	10004828 <__wrap___aeabi_uidiv>
10008ff2:	2164      	movs	r1, #100	@ 0x64
10008ff4:	0406      	lsls	r6, r0, #16
10008ff6:	4640      	mov	r0, r8
10008ff8:	f7fb fc16 	bl	10004828 <__wrap___aeabi_uidiv>
10008ffc:	0001      	movs	r1, r0
10008ffe:	0030      	movs	r0, r6
10009000:	f7fb fc12 	bl	10004828 <__wrap___aeabi_uidiv>
10009004:	9b01      	ldr	r3, [sp, #4]
10009006:	0006      	movs	r6, r0
10009008:	0029      	movs	r1, r5
1000900a:	6260      	str	r0, [r4, #36]	@ 0x24
1000900c:	1a18      	subs	r0, r3, r0
1000900e:	f7fb fc0b 	bl	10004828 <__wrap___aeabi_uidiv>
10009012:	9b00      	ldr	r3, [sp, #0]
10009014:	85e0      	strh	r0, [r4, #46]	@ 0x2e
10009016:	0029      	movs	r1, r5
10009018:	1af0      	subs	r0, r6, r3
1000901a:	f7fb fc05 	bl	10004828 <__wrap___aeabi_uidiv>
1000901e:	8620      	strh	r0, [r4, #48]	@ 0x30
10009020:	f7fe fd6c 	bl	10007afc <tud_speed_get>
10009024:	2802      	cmp	r0, #2
10009026:	d000      	beq.n	1000902a <audiod_control_xfer_cb+0x5fe>
10009028:	e65c      	b.n	10008ce4 <audiod_control_xfer_cb+0x2b8>
1000902a:	8de3      	ldrh	r3, [r4, #46]	@ 0x2e
1000902c:	08db      	lsrs	r3, r3, #3
1000902e:	85e3      	strh	r3, [r4, #46]	@ 0x2e
10009030:	8e23      	ldrh	r3, [r4, #48]	@ 0x30
10009032:	08db      	lsrs	r3, r3, #3
10009034:	8623      	strh	r3, [r4, #48]	@ 0x30
10009036:	e655      	b.n	10008ce4 <audiod_control_xfer_cb+0x2b8>
10009038:	f7ff fc1e 	bl	10008878 <tud_audio_feedback_format_correction_cb>
1000903c:	2322      	movs	r3, #34	@ 0x22
1000903e:	4652      	mov	r2, sl
10009040:	54d0      	strb	r0, [r2, r3]
10009042:	e766      	b.n	10008f12 <audiod_control_xfer_cb+0x4e6>
10009044:	4658      	mov	r0, fp
10009046:	f7fc fa51 	bl	100054ec <__wrap___aeabi_ui2f>
1000904a:	1c04      	adds	r4, r0, #0
1000904c:	4640      	mov	r0, r8
1000904e:	f7fc fa4d 	bl	100054ec <__wrap___aeabi_ui2f>
10009052:	1c01      	adds	r1, r0, #0
10009054:	1c20      	adds	r0, r4, #0
10009056:	f7fc fa2e 	bl	100054b6 <__wrap___aeabi_fdiv>
1000905a:	2311      	movs	r3, #17
1000905c:	1c04      	adds	r4, r0, #0
1000905e:	2001      	movs	r0, #1
10009060:	9a00      	ldr	r2, [sp, #0]
10009062:	1a9b      	subs	r3, r3, r2
10009064:	4098      	lsls	r0, r3
10009066:	f7fc fa41 	bl	100054ec <__wrap___aeabi_ui2f>
1000906a:	1c01      	adds	r1, r0, #0
1000906c:	1c20      	adds	r0, r4, #0
1000906e:	f7fc fa36 	bl	100054de <__wrap___aeabi_fmul>
10009072:	4653      	mov	r3, sl
10009074:	6258      	str	r0, [r3, #36]	@ 0x24
10009076:	e635      	b.n	10008ce4 <audiod_control_xfer_cb+0x2b8>
10009078:	20001078 	.word	0x20001078
1000907c:	2000108c 	.word	0x2000108c
10009080:	00001b58 	.word	0x00001b58

10009084 <audiod_xfer_cb>:
10009084:	b5f0      	push	{r4, r5, r6, r7, lr}
10009086:	46c6      	mov	lr, r8
10009088:	b500      	push	{lr}
1000908a:	4c6a      	ldr	r4, [pc, #424]	@ (10009234 <audiod_xfer_cb+0x1b0>)
1000908c:	469c      	mov	ip, r3
1000908e:	7a23      	ldrb	r3, [r4, #8]
10009090:	0005      	movs	r5, r0
10009092:	b082      	sub	sp, #8
10009094:	428b      	cmp	r3, r1
10009096:	d028      	beq.n	100090ea <audiod_xfer_cb+0x66>
10009098:	7b63      	ldrb	r3, [r4, #13]
1000909a:	428b      	cmp	r3, r1
1000909c:	d108      	bne.n	100090b0 <audiod_xfer_cb+0x2c>
1000909e:	2000      	movs	r0, #0
100090a0:	f7ff fbe8 	bl	10008874 <tud_audio_fb_done_cb>
100090a4:	0028      	movs	r0, r5
100090a6:	7b61      	ldrb	r1, [r4, #13]
100090a8:	f7ff fa1a 	bl	100084e0 <usbd_edpt_claim>
100090ac:	2800      	cmp	r0, #0
100090ae:	d104      	bne.n	100090ba <audiod_xfer_cb+0x36>
100090b0:	2000      	movs	r0, #0
100090b2:	b002      	add	sp, #8
100090b4:	bc80      	pop	{r7}
100090b6:	46b8      	mov	r8, r7
100090b8:	bdf0      	pop	{r4, r5, r6, r7, pc}
100090ba:	f7fe fd1f 	bl	10007afc <tud_speed_get>
100090be:	6da2      	ldr	r2, [r4, #88]	@ 0x58
100090c0:	6963      	ldr	r3, [r4, #20]
100090c2:	2800      	cmp	r0, #0
100090c4:	d135      	bne.n	10009132 <audiod_xfer_cb+0xae>
100090c6:	2122      	movs	r1, #34	@ 0x22
100090c8:	5c61      	ldrb	r1, [r4, r1]
100090ca:	2900      	cmp	r1, #0
100090cc:	d031      	beq.n	10009132 <audiod_xfer_cb+0xae>
100090ce:	089b      	lsrs	r3, r3, #2
100090d0:	7013      	strb	r3, [r2, #0]
100090d2:	6963      	ldr	r3, [r4, #20]
100090d4:	0a9b      	lsrs	r3, r3, #10
100090d6:	7053      	strb	r3, [r2, #1]
100090d8:	6963      	ldr	r3, [r4, #20]
100090da:	70d0      	strb	r0, [r2, #3]
100090dc:	0c9b      	lsrs	r3, r3, #18
100090de:	7093      	strb	r3, [r2, #2]
100090e0:	7820      	ldrb	r0, [r4, #0]
100090e2:	2303      	movs	r3, #3
100090e4:	7b61      	ldrb	r1, [r4, #13]
100090e6:	6da2      	ldr	r2, [r4, #88]	@ 0x58
100090e8:	e027      	b.n	1000913a <audiod_xfer_cb+0xb6>
100090ea:	6862      	ldr	r2, [r4, #4]
100090ec:	2a00      	cmp	r2, #0
100090ee:	d0df      	beq.n	100090b0 <audiod_xfer_cb+0x2c>
100090f0:	8a23      	ldrh	r3, [r4, #16]
100090f2:	7810      	ldrb	r0, [r2, #0]
100090f4:	3b08      	subs	r3, #8
100090f6:	18d3      	adds	r3, r2, r3
100090f8:	1812      	adds	r2, r2, r0
100090fa:	79d0      	ldrb	r0, [r2, #7]
100090fc:	7996      	ldrb	r6, [r2, #6]
100090fe:	0200      	lsls	r0, r0, #8
10009100:	4330      	orrs	r0, r6
10009102:	1812      	adds	r2, r2, r0
10009104:	1a98      	subs	r0, r3, r2
10009106:	2800      	cmp	r0, #0
10009108:	ddd2      	ble.n	100090b0 <audiod_xfer_cb+0x2c>
1000910a:	2700      	movs	r7, #0
1000910c:	7b26      	ldrb	r6, [r4, #12]
1000910e:	e004      	b.n	1000911a <audiod_xfer_cb+0x96>
10009110:	7810      	ldrb	r0, [r2, #0]
10009112:	1812      	adds	r2, r2, r0
10009114:	1a98      	subs	r0, r3, r2
10009116:	2800      	cmp	r0, #0
10009118:	ddca      	ble.n	100090b0 <audiod_xfer_cb+0x2c>
1000911a:	7850      	ldrb	r0, [r2, #1]
1000911c:	2804      	cmp	r0, #4
1000911e:	d1f7      	bne.n	10009110 <audiod_xfer_cb+0x8c>
10009120:	78d0      	ldrb	r0, [r2, #3]
10009122:	2800      	cmp	r0, #0
10009124:	d1f4      	bne.n	10009110 <audiod_xfer_cb+0x8c>
10009126:	7890      	ldrb	r0, [r2, #2]
10009128:	42b0      	cmp	r0, r6
1000912a:	d009      	beq.n	10009140 <audiod_xfer_cb+0xbc>
1000912c:	1c78      	adds	r0, r7, #1
1000912e:	b2c7      	uxtb	r7, r0
10009130:	e7ee      	b.n	10009110 <audiod_xfer_cb+0x8c>
10009132:	6013      	str	r3, [r2, #0]
10009134:	2304      	movs	r3, #4
10009136:	7820      	ldrb	r0, [r4, #0]
10009138:	7b61      	ldrb	r1, [r4, #13]
1000913a:	f7ff f9f9 	bl	10008530 <usbd_edpt_xfer>
1000913e:	e7b8      	b.n	100090b2 <audiod_xfer_cb+0x2e>
10009140:	4663      	mov	r3, ip
10009142:	b298      	uxth	r0, r3
10009144:	6be3      	ldr	r3, [r4, #60]	@ 0x3c
10009146:	4680      	mov	r8, r0
10009148:	5ddb      	ldrb	r3, [r3, r7]
1000914a:	2200      	movs	r2, #0
1000914c:	9300      	str	r3, [sp, #0]
1000914e:	000b      	movs	r3, r1
10009150:	0001      	movs	r1, r0
10009152:	0028      	movs	r0, r5
10009154:	f7ff fb8a 	bl	1000886c <tud_audio_rx_done_pre_read_cb>
10009158:	2800      	cmp	r0, #0
1000915a:	d0a9      	beq.n	100090b0 <audiod_xfer_cb+0x2c>
1000915c:	4642      	mov	r2, r8
1000915e:	6d61      	ldr	r1, [r4, #84]	@ 0x54
10009160:	4835      	ldr	r0, [pc, #212]	@ (10009238 <audiod_xfer_cb+0x1b4>)
10009162:	f000 fe43 	bl	10009dec <tu_fifo_write_n>
10009166:	2800      	cmp	r0, #0
10009168:	d0a2      	beq.n	100090b0 <audiod_xfer_cb+0x2c>
1000916a:	0028      	movs	r0, r5
1000916c:	8963      	ldrh	r3, [r4, #10]
1000916e:	6d62      	ldr	r2, [r4, #84]	@ 0x54
10009170:	7a21      	ldrb	r1, [r4, #8]
10009172:	f7ff f9dd 	bl	10008530 <usbd_edpt_xfer>
10009176:	2800      	cmp	r0, #0
10009178:	d09a      	beq.n	100090b0 <audiod_xfer_cb+0x2c>
1000917a:	2321      	movs	r3, #33	@ 0x21
1000917c:	5ce3      	ldrb	r3, [r4, r3]
1000917e:	2b04      	cmp	r3, #4
10009180:	d009      	beq.n	10009196 <audiod_xfer_cb+0x112>
10009182:	6be2      	ldr	r2, [r4, #60]	@ 0x3c
10009184:	7a23      	ldrb	r3, [r4, #8]
10009186:	5dd2      	ldrb	r2, [r2, r7]
10009188:	4641      	mov	r1, r8
1000918a:	9200      	str	r2, [sp, #0]
1000918c:	0028      	movs	r0, r5
1000918e:	2200      	movs	r2, #0
10009190:	f7ff fb6e 	bl	10008870 <tud_audio_rx_done_post_read_cb>
10009194:	e78d      	b.n	100090b2 <audiod_xfer_cb+0x2e>
10009196:	4828      	ldr	r0, [pc, #160]	@ (10009238 <audiod_xfer_cb+0x1b4>)
10009198:	f000 fcde 	bl	10009b58 <tu_fifo_count>
1000919c:	2100      	movs	r1, #0
1000919e:	0006      	movs	r6, r0
100091a0:	6aa0      	ldr	r0, [r4, #40]	@ 0x28
100091a2:	0e83      	lsrs	r3, r0, #26
100091a4:	0182      	lsls	r2, r0, #6
100091a6:	1a12      	subs	r2, r2, r0
100091a8:	418b      	sbcs	r3, r1
100091aa:	2100      	movs	r1, #0
100091ac:	0430      	lsls	r0, r6, #16
100091ae:	1812      	adds	r2, r2, r0
100091b0:	414b      	adcs	r3, r1
100091b2:	0011      	movs	r1, r2
100091b4:	069b      	lsls	r3, r3, #26
100091b6:	098a      	lsrs	r2, r1, #6
100091b8:	8da1      	ldrh	r1, [r4, #44]	@ 0x2c
100091ba:	189a      	adds	r2, r3, r2
100091bc:	62a2      	str	r2, [r4, #40]	@ 0x28
100091be:	6a63      	ldr	r3, [r4, #36]	@ 0x24
100091c0:	0c12      	lsrs	r2, r2, #16
100091c2:	428a      	cmp	r2, r1
100091c4:	d22c      	bcs.n	10009220 <audiod_xfer_cb+0x19c>
100091c6:	1a89      	subs	r1, r1, r2
100091c8:	8de2      	ldrh	r2, [r4, #46]	@ 0x2e
100091ca:	434a      	muls	r2, r1
100091cc:	18d2      	adds	r2, r2, r3
100091ce:	69e3      	ldr	r3, [r4, #28]
100091d0:	4293      	cmp	r3, r2
100091d2:	d900      	bls.n	100091d6 <audiod_xfer_cb+0x152>
100091d4:	0013      	movs	r3, r2
100091d6:	69a2      	ldr	r2, [r4, #24]
100091d8:	4293      	cmp	r3, r2
100091da:	d200      	bcs.n	100091de <audiod_xfer_cb+0x15a>
100091dc:	0013      	movs	r3, r2
100091de:	7b61      	ldrb	r1, [r4, #13]
100091e0:	7820      	ldrb	r0, [r4, #0]
100091e2:	6163      	str	r3, [r4, #20]
100091e4:	f7ff f97c 	bl	100084e0 <usbd_edpt_claim>
100091e8:	2800      	cmp	r0, #0
100091ea:	d0ca      	beq.n	10009182 <audiod_xfer_cb+0xfe>
100091ec:	f7fe fc86 	bl	10007afc <tud_speed_get>
100091f0:	6da2      	ldr	r2, [r4, #88]	@ 0x58
100091f2:	6963      	ldr	r3, [r4, #20]
100091f4:	2800      	cmp	r0, #0
100091f6:	d118      	bne.n	1000922a <audiod_xfer_cb+0x1a6>
100091f8:	2122      	movs	r1, #34	@ 0x22
100091fa:	5c61      	ldrb	r1, [r4, r1]
100091fc:	4281      	cmp	r1, r0
100091fe:	d014      	beq.n	1000922a <audiod_xfer_cb+0x1a6>
10009200:	089b      	lsrs	r3, r3, #2
10009202:	7013      	strb	r3, [r2, #0]
10009204:	6963      	ldr	r3, [r4, #20]
10009206:	0a9b      	lsrs	r3, r3, #10
10009208:	7053      	strb	r3, [r2, #1]
1000920a:	6963      	ldr	r3, [r4, #20]
1000920c:	70d0      	strb	r0, [r2, #3]
1000920e:	0c9b      	lsrs	r3, r3, #18
10009210:	7093      	strb	r3, [r2, #2]
10009212:	2303      	movs	r3, #3
10009214:	7820      	ldrb	r0, [r4, #0]
10009216:	7b61      	ldrb	r1, [r4, #13]
10009218:	6da2      	ldr	r2, [r4, #88]	@ 0x58
1000921a:	f7ff f989 	bl	10008530 <usbd_edpt_xfer>
1000921e:	e7b0      	b.n	10009182 <audiod_xfer_cb+0xfe>
10009220:	1a52      	subs	r2, r2, r1
10009222:	8e21      	ldrh	r1, [r4, #48]	@ 0x30
10009224:	434a      	muls	r2, r1
10009226:	1a9a      	subs	r2, r3, r2
10009228:	e7d1      	b.n	100091ce <audiod_xfer_cb+0x14a>
1000922a:	6013      	str	r3, [r2, #0]
1000922c:	7820      	ldrb	r0, [r4, #0]
1000922e:	2304      	movs	r3, #4
10009230:	7b61      	ldrb	r1, [r4, #13]
10009232:	e7f2      	b.n	1000921a <audiod_xfer_cb+0x196>
10009234:	20001078 	.word	0x20001078
10009238:	200010b8 	.word	0x200010b8

1000923c <tud_audio_n_fb_set>:
1000923c:	b510      	push	{r4, lr}
1000923e:	2800      	cmp	r0, #0
10009240:	d124      	bne.n	1000928c <tud_audio_n_fb_set+0x50>
10009242:	4c17      	ldr	r4, [pc, #92]	@ (100092a0 <tud_audio_n_fb_set+0x64>)
10009244:	6863      	ldr	r3, [r4, #4]
10009246:	2b00      	cmp	r3, #0
10009248:	d020      	beq.n	1000928c <tud_audio_n_fb_set+0x50>
1000924a:	6161      	str	r1, [r4, #20]
1000924c:	7820      	ldrb	r0, [r4, #0]
1000924e:	7b61      	ldrb	r1, [r4, #13]
10009250:	f7ff f946 	bl	100084e0 <usbd_edpt_claim>
10009254:	0003      	movs	r3, r0
10009256:	2001      	movs	r0, #1
10009258:	2b00      	cmp	r3, #0
1000925a:	d018      	beq.n	1000928e <tud_audio_n_fb_set+0x52>
1000925c:	f7fe fc4e 	bl	10007afc <tud_speed_get>
10009260:	6da2      	ldr	r2, [r4, #88]	@ 0x58
10009262:	6963      	ldr	r3, [r4, #20]
10009264:	2800      	cmp	r0, #0
10009266:	d113      	bne.n	10009290 <tud_audio_n_fb_set+0x54>
10009268:	2122      	movs	r1, #34	@ 0x22
1000926a:	5c61      	ldrb	r1, [r4, r1]
1000926c:	2900      	cmp	r1, #0
1000926e:	d00f      	beq.n	10009290 <tud_audio_n_fb_set+0x54>
10009270:	089b      	lsrs	r3, r3, #2
10009272:	7013      	strb	r3, [r2, #0]
10009274:	6963      	ldr	r3, [r4, #20]
10009276:	0a9b      	lsrs	r3, r3, #10
10009278:	7053      	strb	r3, [r2, #1]
1000927a:	6963      	ldr	r3, [r4, #20]
1000927c:	70d0      	strb	r0, [r2, #3]
1000927e:	0c9b      	lsrs	r3, r3, #18
10009280:	7093      	strb	r3, [r2, #2]
10009282:	7820      	ldrb	r0, [r4, #0]
10009284:	2303      	movs	r3, #3
10009286:	7b61      	ldrb	r1, [r4, #13]
10009288:	6da2      	ldr	r2, [r4, #88]	@ 0x58
1000928a:	e005      	b.n	10009298 <tud_audio_n_fb_set+0x5c>
1000928c:	2000      	movs	r0, #0
1000928e:	bd10      	pop	{r4, pc}
10009290:	6013      	str	r3, [r2, #0]
10009292:	2304      	movs	r3, #4
10009294:	7820      	ldrb	r0, [r4, #0]
10009296:	7b61      	ldrb	r1, [r4, #13]
10009298:	f7ff f94a 	bl	10008530 <usbd_edpt_xfer>
1000929c:	e7f7      	b.n	1000928e <tud_audio_n_fb_set+0x52>
1000929e:	46c0      	nop			@ (mov r8, r8)
100092a0:	20001078 	.word	0x20001078

100092a4 <tud_audio_buffer_and_schedule_control_xfer>:
100092a4:	b5f8      	push	{r3, r4, r5, r6, r7, lr}
100092a6:	46ce      	mov	lr, r9
100092a8:	4647      	mov	r7, r8
100092aa:	4691      	mov	r9, r2
100092ac:	780a      	ldrb	r2, [r1, #0]
100092ae:	4680      	mov	r8, r0
100092b0:	000c      	movs	r4, r1
100092b2:	469c      	mov	ip, r3
100092b4:	2000      	movs	r0, #0
100092b6:	b580      	push	{r7, lr}
100092b8:	2a7f      	cmp	r2, #127	@ 0x7f
100092ba:	d939      	bls.n	10009330 <tud_audio_buffer_and_schedule_control_xfer+0x8c>
100092bc:	790b      	ldrb	r3, [r1, #4]
100092be:	7949      	ldrb	r1, [r1, #5]
100092c0:	06d2      	lsls	r2, r2, #27
100092c2:	0209      	lsls	r1, r1, #8
100092c4:	4319      	orrs	r1, r3
100092c6:	0ed2      	lsrs	r2, r2, #27
100092c8:	2a01      	cmp	r2, #1
100092ca:	d035      	beq.n	10009338 <tud_audio_buffer_and_schedule_control_xfer+0x94>
100092cc:	2a02      	cmp	r2, #2
100092ce:	d12f      	bne.n	10009330 <tud_audio_buffer_and_schedule_control_xfer+0x8c>
100092d0:	4d37      	ldr	r5, [pc, #220]	@ (100093b0 <tud_audio_buffer_and_schedule_control_xfer+0x10c>)
100092d2:	686a      	ldr	r2, [r5, #4]
100092d4:	2a00      	cmp	r2, #0
100092d6:	d02b      	beq.n	10009330 <tud_audio_buffer_and_schedule_control_xfer+0x8c>
100092d8:	7816      	ldrb	r6, [r2, #0]
100092da:	8a29      	ldrh	r1, [r5, #16]
100092dc:	1851      	adds	r1, r2, r1
100092de:	1992      	adds	r2, r2, r6
100092e0:	79d6      	ldrb	r6, [r2, #7]
100092e2:	7997      	ldrb	r7, [r2, #6]
100092e4:	0236      	lsls	r6, r6, #8
100092e6:	433e      	orrs	r6, r7
100092e8:	1992      	adds	r2, r2, r6
100092ea:	1a8e      	subs	r6, r1, r2
100092ec:	2e00      	cmp	r6, #0
100092ee:	dc05      	bgt.n	100092fc <tud_audio_buffer_and_schedule_control_xfer+0x58>
100092f0:	e01e      	b.n	10009330 <tud_audio_buffer_and_schedule_control_xfer+0x8c>
100092f2:	7810      	ldrb	r0, [r2, #0]
100092f4:	1812      	adds	r2, r2, r0
100092f6:	1a88      	subs	r0, r1, r2
100092f8:	2800      	cmp	r0, #0
100092fa:	dd3a      	ble.n	10009372 <tud_audio_buffer_and_schedule_control_xfer+0xce>
100092fc:	7850      	ldrb	r0, [r2, #1]
100092fe:	2805      	cmp	r0, #5
10009300:	d1f7      	bne.n	100092f2 <tud_audio_buffer_and_schedule_control_xfer+0x4e>
10009302:	7890      	ldrb	r0, [r2, #2]
10009304:	4298      	cmp	r0, r3
10009306:	d1f4      	bne.n	100092f2 <tud_audio_buffer_and_schedule_control_xfer+0x4e>
10009308:	2338      	movs	r3, #56	@ 0x38
1000930a:	5ceb      	ldrb	r3, [r5, r3]
1000930c:	1c1e      	adds	r6, r3, #0
1000930e:	4563      	cmp	r3, ip
10009310:	d900      	bls.n	10009314 <tud_audio_buffer_and_schedule_control_xfer+0x70>
10009312:	4666      	mov	r6, ip
10009314:	b2b6      	uxth	r6, r6
10009316:	42b3      	cmp	r3, r6
10009318:	d32b      	bcc.n	10009372 <tud_audio_buffer_and_schedule_control_xfer+0xce>
1000931a:	0032      	movs	r2, r6
1000931c:	4649      	mov	r1, r9
1000931e:	6b68      	ldr	r0, [r5, #52]	@ 0x34
10009320:	f7fc f96a 	bl	100055f8 <__wrap___aeabi_memcpy>
10009324:	0033      	movs	r3, r6
10009326:	0021      	movs	r1, r4
10009328:	4640      	mov	r0, r8
1000932a:	6b6a      	ldr	r2, [r5, #52]	@ 0x34
1000932c:	f7ff f9bc 	bl	100086a8 <tud_control_xfer>
10009330:	bcc0      	pop	{r6, r7}
10009332:	46b9      	mov	r9, r7
10009334:	46b0      	mov	r8, r6
10009336:	bdf8      	pop	{r3, r4, r5, r6, r7, pc}
10009338:	4d1d      	ldr	r5, [pc, #116]	@ (100093b0 <tud_audio_buffer_and_schedule_control_xfer+0x10c>)
1000933a:	0a09      	lsrs	r1, r1, #8
1000933c:	686e      	ldr	r6, [r5, #4]
1000933e:	d11a      	bne.n	10009376 <tud_audio_buffer_and_schedule_control_xfer+0xd2>
10009340:	2e00      	cmp	r6, #0
10009342:	d0f5      	beq.n	10009330 <tud_audio_buffer_and_schedule_control_xfer+0x8c>
10009344:	8a2a      	ldrh	r2, [r5, #16]
10009346:	0031      	movs	r1, r6
10009348:	3a08      	subs	r2, #8
1000934a:	18b7      	adds	r7, r6, r2
1000934c:	2a00      	cmp	r2, #0
1000934e:	dc05      	bgt.n	1000935c <tud_audio_buffer_and_schedule_control_xfer+0xb8>
10009350:	e7ee      	b.n	10009330 <tud_audio_buffer_and_schedule_control_xfer+0x8c>
10009352:	780a      	ldrb	r2, [r1, #0]
10009354:	1889      	adds	r1, r1, r2
10009356:	1a7a      	subs	r2, r7, r1
10009358:	2a00      	cmp	r2, #0
1000935a:	dd0a      	ble.n	10009372 <tud_audio_buffer_and_schedule_control_xfer+0xce>
1000935c:	784a      	ldrb	r2, [r1, #1]
1000935e:	2a04      	cmp	r2, #4
10009360:	d1f7      	bne.n	10009352 <tud_audio_buffer_and_schedule_control_xfer+0xae>
10009362:	78b2      	ldrb	r2, [r6, #2]
10009364:	429a      	cmp	r2, r3
10009366:	d0cf      	beq.n	10009308 <tud_audio_buffer_and_schedule_control_xfer+0x64>
10009368:	780a      	ldrb	r2, [r1, #0]
1000936a:	1889      	adds	r1, r1, r2
1000936c:	1a7a      	subs	r2, r7, r1
1000936e:	2a00      	cmp	r2, #0
10009370:	dcf4      	bgt.n	1000935c <tud_audio_buffer_and_schedule_control_xfer+0xb8>
10009372:	2000      	movs	r0, #0
10009374:	e7dc      	b.n	10009330 <tud_audio_buffer_and_schedule_control_xfer+0x8c>
10009376:	2e00      	cmp	r6, #0
10009378:	d0da      	beq.n	10009330 <tud_audio_buffer_and_schedule_control_xfer+0x8c>
1000937a:	78b2      	ldrb	r2, [r6, #2]
1000937c:	b2c9      	uxtb	r1, r1
1000937e:	429a      	cmp	r2, r3
10009380:	d1d6      	bne.n	10009330 <tud_audio_buffer_and_schedule_control_xfer+0x8c>
10009382:	7833      	ldrb	r3, [r6, #0]
10009384:	18f3      	adds	r3, r6, r3
10009386:	79da      	ldrb	r2, [r3, #7]
10009388:	799e      	ldrb	r6, [r3, #6]
1000938a:	0212      	lsls	r2, r2, #8
1000938c:	4332      	orrs	r2, r6
1000938e:	781e      	ldrb	r6, [r3, #0]
10009390:	1b97      	subs	r7, r2, r6
10009392:	2f00      	cmp	r7, #0
10009394:	ddcc      	ble.n	10009330 <tud_audio_buffer_and_schedule_control_xfer+0x8c>
10009396:	1898      	adds	r0, r3, r2
10009398:	199b      	adds	r3, r3, r6
1000939a:	e004      	b.n	100093a6 <tud_audio_buffer_and_schedule_control_xfer+0x102>
1000939c:	781a      	ldrb	r2, [r3, #0]
1000939e:	189b      	adds	r3, r3, r2
100093a0:	1ac2      	subs	r2, r0, r3
100093a2:	2a00      	cmp	r2, #0
100093a4:	dde5      	ble.n	10009372 <tud_audio_buffer_and_schedule_control_xfer+0xce>
100093a6:	78da      	ldrb	r2, [r3, #3]
100093a8:	428a      	cmp	r2, r1
100093aa:	d1f7      	bne.n	1000939c <tud_audio_buffer_and_schedule_control_xfer+0xf8>
100093ac:	e7ac      	b.n	10009308 <tud_audio_buffer_and_schedule_control_xfer+0x64>
100093ae:	46c0      	nop			@ (mov r8, r8)
100093b0:	20001078 	.word	0x20001078

100093b4 <_prep_out_transaction.isra.0>:
100093b4:	b570      	push	{r4, r5, r6, lr}
100093b6:	0004      	movs	r4, r0
100093b8:	f7fe fba6 	bl	10007b08 <tud_mounted>
100093bc:	2800      	cmp	r0, #0
100093be:	d100      	bne.n	100093c2 <_prep_out_transaction.isra.0+0xe>
100093c0:	bd70      	pop	{r4, r5, r6, pc}
100093c2:	f7fe fba9 	bl	10007b18 <tud_suspended>
100093c6:	2800      	cmp	r0, #0
100093c8:	d1fa      	bne.n	100093c0 <_prep_out_transaction.isra.0+0xc>
100093ca:	00e3      	lsls	r3, r4, #3
100093cc:	191b      	adds	r3, r3, r4
100093ce:	00db      	lsls	r3, r3, #3
100093d0:	4a12      	ldr	r2, [pc, #72]	@ (1000941c <_prep_out_transaction.isra.0+0x68>)
100093d2:	191b      	adds	r3, r3, r4
100093d4:	00db      	lsls	r3, r3, #3
100093d6:	18d5      	adds	r5, r2, r3
100093d8:	78e9      	ldrb	r1, [r5, #3]
100093da:	2900      	cmp	r1, #0
100093dc:	d0f0      	beq.n	100093c0 <_prep_out_transaction.isra.0+0xc>
100093de:	3310      	adds	r3, #16
100093e0:	189e      	adds	r6, r3, r2
100093e2:	0030      	movs	r0, r6
100093e4:	f000 fbd6 	bl	10009b94 <tu_fifo_remaining>
100093e8:	283f      	cmp	r0, #63	@ 0x3f
100093ea:	d9e9      	bls.n	100093c0 <_prep_out_transaction.isra.0+0xc>
100093ec:	2000      	movs	r0, #0
100093ee:	78e9      	ldrb	r1, [r5, #3]
100093f0:	f7ff f876 	bl	100084e0 <usbd_edpt_claim>
100093f4:	2800      	cmp	r0, #0
100093f6:	d0e3      	beq.n	100093c0 <_prep_out_transaction.isra.0+0xc>
100093f8:	0030      	movs	r0, r6
100093fa:	f000 fbcb 	bl	10009b94 <tu_fifo_remaining>
100093fe:	78e9      	ldrb	r1, [r5, #3]
10009400:	283f      	cmp	r0, #63	@ 0x3f
10009402:	d907      	bls.n	10009414 <_prep_out_transaction.isra.0+0x60>
10009404:	4b06      	ldr	r3, [pc, #24]	@ (10009420 <_prep_out_transaction.isra.0+0x6c>)
10009406:	01e2      	lsls	r2, r4, #7
10009408:	18d2      	adds	r2, r2, r3
1000940a:	2000      	movs	r0, #0
1000940c:	2340      	movs	r3, #64	@ 0x40
1000940e:	f7ff f88f 	bl	10008530 <usbd_edpt_xfer>
10009412:	e7d5      	b.n	100093c0 <_prep_out_transaction.isra.0+0xc>
10009414:	2000      	movs	r0, #0
10009416:	f7ff f877 	bl	10008508 <usbd_edpt_release>
1000941a:	e7d1      	b.n	100093c0 <_prep_out_transaction.isra.0+0xc>
1000941c:	200010d8 	.word	0x200010d8
10009420:	20002f24 	.word	0x20002f24

10009424 <tud_cdc_n_connected>:
10009424:	b510      	push	{r4, lr}
10009426:	0004      	movs	r4, r0
10009428:	f7fe fb6e 	bl	10007b08 <tud_mounted>
1000942c:	2800      	cmp	r0, #0
1000942e:	d101      	bne.n	10009434 <tud_cdc_n_connected+0x10>
10009430:	2000      	movs	r0, #0
10009432:	bd10      	pop	{r4, pc}
10009434:	f7fe fb70 	bl	10007b18 <tud_suspended>
10009438:	2800      	cmp	r0, #0
1000943a:	d1f9      	bne.n	10009430 <tud_cdc_n_connected+0xc>
1000943c:	00e0      	lsls	r0, r4, #3
1000943e:	1900      	adds	r0, r0, r4
10009440:	00c0      	lsls	r0, r0, #3
10009442:	4b04      	ldr	r3, [pc, #16]	@ (10009454 <tud_cdc_n_connected+0x30>)
10009444:	1900      	adds	r0, r0, r4
10009446:	00c0      	lsls	r0, r0, #3
10009448:	181b      	adds	r3, r3, r0
1000944a:	2001      	movs	r0, #1
1000944c:	791b      	ldrb	r3, [r3, #4]
1000944e:	4018      	ands	r0, r3
10009450:	e7ef      	b.n	10009432 <tud_cdc_n_connected+0xe>
10009452:	46c0      	nop			@ (mov r8, r8)
10009454:	200010d8 	.word	0x200010d8

10009458 <tud_cdc_n_available>:
10009458:	00c3      	lsls	r3, r0, #3
1000945a:	b510      	push	{r4, lr}
1000945c:	181b      	adds	r3, r3, r0
1000945e:	00db      	lsls	r3, r3, #3
10009460:	1818      	adds	r0, r3, r0
10009462:	4b03      	ldr	r3, [pc, #12]	@ (10009470 <tud_cdc_n_available+0x18>)
10009464:	00c0      	lsls	r0, r0, #3
10009466:	18c0      	adds	r0, r0, r3
10009468:	f000 fb76 	bl	10009b58 <tu_fifo_count>
1000946c:	bd10      	pop	{r4, pc}
1000946e:	46c0      	nop			@ (mov r8, r8)
10009470:	200010e8 	.word	0x200010e8

10009474 <tud_cdc_n_read>:
10009474:	b5f0      	push	{r4, r5, r6, r7, lr}
10009476:	00c5      	lsls	r5, r0, #3
10009478:	182b      	adds	r3, r5, r0
1000947a:	00db      	lsls	r3, r3, #3
1000947c:	181b      	adds	r3, r3, r0
1000947e:	4e21      	ldr	r6, [pc, #132]	@ (10009504 <tud_cdc_n_read+0x90>)
10009480:	00db      	lsls	r3, r3, #3
10009482:	3310      	adds	r3, #16
10009484:	46c6      	mov	lr, r8
10009486:	18f7      	adds	r7, r6, r3
10009488:	2380      	movs	r3, #128	@ 0x80
1000948a:	0004      	movs	r4, r0
1000948c:	b500      	push	{lr}
1000948e:	025b      	lsls	r3, r3, #9
10009490:	429a      	cmp	r2, r3
10009492:	d300      	bcc.n	10009496 <tud_cdc_n_read+0x22>
10009494:	4a1c      	ldr	r2, [pc, #112]	@ (10009508 <tud_cdc_n_read+0x94>)
10009496:	0038      	movs	r0, r7
10009498:	b292      	uxth	r2, r2
1000949a:	f000 fbdf 	bl	10009c5c <tu_fifo_read_n>
1000949e:	4680      	mov	r8, r0
100094a0:	f7fe fb32 	bl	10007b08 <tud_mounted>
100094a4:	2800      	cmp	r0, #0
100094a6:	d103      	bne.n	100094b0 <tud_cdc_n_read+0x3c>
100094a8:	4640      	mov	r0, r8
100094aa:	bc80      	pop	{r7}
100094ac:	46b8      	mov	r8, r7
100094ae:	bdf0      	pop	{r4, r5, r6, r7, pc}
100094b0:	f7fe fb32 	bl	10007b18 <tud_suspended>
100094b4:	2800      	cmp	r0, #0
100094b6:	d1f7      	bne.n	100094a8 <tud_cdc_n_read+0x34>
100094b8:	192d      	adds	r5, r5, r4
100094ba:	00ed      	lsls	r5, r5, #3
100094bc:	192d      	adds	r5, r5, r4
100094be:	00ed      	lsls	r5, r5, #3
100094c0:	1975      	adds	r5, r6, r5
100094c2:	78eb      	ldrb	r3, [r5, #3]
100094c4:	2b00      	cmp	r3, #0
100094c6:	d0ef      	beq.n	100094a8 <tud_cdc_n_read+0x34>
100094c8:	0038      	movs	r0, r7
100094ca:	f000 fb63 	bl	10009b94 <tu_fifo_remaining>
100094ce:	283f      	cmp	r0, #63	@ 0x3f
100094d0:	d9ea      	bls.n	100094a8 <tud_cdc_n_read+0x34>
100094d2:	2000      	movs	r0, #0
100094d4:	78e9      	ldrb	r1, [r5, #3]
100094d6:	f7ff f803 	bl	100084e0 <usbd_edpt_claim>
100094da:	2800      	cmp	r0, #0
100094dc:	d0e4      	beq.n	100094a8 <tud_cdc_n_read+0x34>
100094de:	0038      	movs	r0, r7
100094e0:	f000 fb58 	bl	10009b94 <tu_fifo_remaining>
100094e4:	78e9      	ldrb	r1, [r5, #3]
100094e6:	283f      	cmp	r0, #63	@ 0x3f
100094e8:	d907      	bls.n	100094fa <tud_cdc_n_read+0x86>
100094ea:	4b08      	ldr	r3, [pc, #32]	@ (1000950c <tud_cdc_n_read+0x98>)
100094ec:	01e2      	lsls	r2, r4, #7
100094ee:	18d2      	adds	r2, r2, r3
100094f0:	2000      	movs	r0, #0
100094f2:	2340      	movs	r3, #64	@ 0x40
100094f4:	f7ff f81c 	bl	10008530 <usbd_edpt_xfer>
100094f8:	e7d6      	b.n	100094a8 <tud_cdc_n_read+0x34>
100094fa:	2000      	movs	r0, #0
100094fc:	f7ff f804 	bl	10008508 <usbd_edpt_release>
10009500:	e7d2      	b.n	100094a8 <tud_cdc_n_read+0x34>
10009502:	46c0      	nop			@ (mov r8, r8)
10009504:	200010d8 	.word	0x200010d8
10009508:	0000ffff 	.word	0x0000ffff
1000950c:	20002f24 	.word	0x20002f24

10009510 <tud_cdc_n_write_flush>:
10009510:	b5f8      	push	{r3, r4, r5, r6, r7, lr}
10009512:	0004      	movs	r4, r0
10009514:	f7fe faf8 	bl	10007b08 <tud_mounted>
10009518:	2800      	cmp	r0, #0
1000951a:	d101      	bne.n	10009520 <tud_cdc_n_write_flush+0x10>
1000951c:	2000      	movs	r0, #0
1000951e:	bdf8      	pop	{r3, r4, r5, r6, r7, pc}
10009520:	f7fe fafa 	bl	10007b18 <tud_suspended>
10009524:	2800      	cmp	r0, #0
10009526:	d1f9      	bne.n	1000951c <tud_cdc_n_write_flush+0xc>
10009528:	00e3      	lsls	r3, r4, #3
1000952a:	191b      	adds	r3, r3, r4
1000952c:	00db      	lsls	r3, r3, #3
1000952e:	191b      	adds	r3, r3, r4
10009530:	00dd      	lsls	r5, r3, #3
10009532:	002b      	movs	r3, r5
10009534:	4e13      	ldr	r6, [pc, #76]	@ (10009584 <tud_cdc_n_write_flush+0x74>)
10009536:	3324      	adds	r3, #36	@ 0x24
10009538:	18f7      	adds	r7, r6, r3
1000953a:	0038      	movs	r0, r7
1000953c:	f000 fb0c 	bl	10009b58 <tu_fifo_count>
10009540:	2800      	cmp	r0, #0
10009542:	d0eb      	beq.n	1000951c <tud_cdc_n_write_flush+0xc>
10009544:	1975      	adds	r5, r6, r5
10009546:	2000      	movs	r0, #0
10009548:	78a9      	ldrb	r1, [r5, #2]
1000954a:	f7fe ffc9 	bl	100084e0 <usbd_edpt_claim>
1000954e:	2800      	cmp	r0, #0
10009550:	d0e4      	beq.n	1000951c <tud_cdc_n_write_flush+0xc>
10009552:	4a0d      	ldr	r2, [pc, #52]	@ (10009588 <tud_cdc_n_write_flush+0x78>)
10009554:	01e3      	lsls	r3, r4, #7
10009556:	189c      	adds	r4, r3, r2
10009558:	0021      	movs	r1, r4
1000955a:	2240      	movs	r2, #64	@ 0x40
1000955c:	0038      	movs	r0, r7
1000955e:	f000 fb7d 	bl	10009c5c <tu_fifo_read_n>
10009562:	78a9      	ldrb	r1, [r5, #2]
10009564:	0003      	movs	r3, r0
10009566:	1e05      	subs	r5, r0, #0
10009568:	d007      	beq.n	1000957a <tud_cdc_n_write_flush+0x6a>
1000956a:	0022      	movs	r2, r4
1000956c:	2000      	movs	r0, #0
1000956e:	f7fe ffdf 	bl	10008530 <usbd_edpt_xfer>
10009572:	2800      	cmp	r0, #0
10009574:	d0d2      	beq.n	1000951c <tud_cdc_n_write_flush+0xc>
10009576:	0028      	movs	r0, r5
10009578:	e7d1      	b.n	1000951e <tud_cdc_n_write_flush+0xe>
1000957a:	2000      	movs	r0, #0
1000957c:	f7fe ffc4 	bl	10008508 <usbd_edpt_release>
10009580:	e7cc      	b.n	1000951c <tud_cdc_n_write_flush+0xc>
10009582:	46c0      	nop			@ (mov r8, r8)
10009584:	200010d8 	.word	0x200010d8
10009588:	20002f64 	.word	0x20002f64

1000958c <tud_cdc_n_write>:
1000958c:	b570      	push	{r4, r5, r6, lr}
1000958e:	00c4      	lsls	r4, r0, #3
10009590:	1824      	adds	r4, r4, r0
10009592:	00e4      	lsls	r4, r4, #3
10009594:	4b0c      	ldr	r3, [pc, #48]	@ (100095c8 <tud_cdc_n_write+0x3c>)
10009596:	1824      	adds	r4, r4, r0
10009598:	00e4      	lsls	r4, r4, #3
1000959a:	18e4      	adds	r4, r4, r3
1000959c:	2380      	movs	r3, #128	@ 0x80
1000959e:	0005      	movs	r5, r0
100095a0:	025b      	lsls	r3, r3, #9
100095a2:	429a      	cmp	r2, r3
100095a4:	d300      	bcc.n	100095a8 <tud_cdc_n_write+0x1c>
100095a6:	4a09      	ldr	r2, [pc, #36]	@ (100095cc <tud_cdc_n_write+0x40>)
100095a8:	0020      	movs	r0, r4
100095aa:	b292      	uxth	r2, r2
100095ac:	f000 fc1e 	bl	10009dec <tu_fifo_write_n>
100095b0:	0006      	movs	r6, r0
100095b2:	0020      	movs	r0, r4
100095b4:	f000 fad0 	bl	10009b58 <tu_fifo_count>
100095b8:	283f      	cmp	r0, #63	@ 0x3f
100095ba:	d801      	bhi.n	100095c0 <tud_cdc_n_write+0x34>
100095bc:	0030      	movs	r0, r6
100095be:	bd70      	pop	{r4, r5, r6, pc}
100095c0:	0028      	movs	r0, r5
100095c2:	f7ff ffa5 	bl	10009510 <tud_cdc_n_write_flush>
100095c6:	e7f9      	b.n	100095bc <tud_cdc_n_write+0x30>
100095c8:	200010fc 	.word	0x200010fc
100095cc:	0000ffff 	.word	0x0000ffff

100095d0 <tud_cdc_n_write_available>:
100095d0:	00c3      	lsls	r3, r0, #3
100095d2:	b510      	push	{r4, lr}
100095d4:	181b      	adds	r3, r3, r0
100095d6:	00db      	lsls	r3, r3, #3
100095d8:	1818      	adds	r0, r3, r0
100095da:	4b03      	ldr	r3, [pc, #12]	@ (100095e8 <tud_cdc_n_write_available+0x18>)
100095dc:	00c0      	lsls	r0, r0, #3
100095de:	18c0      	adds	r0, r0, r3
100095e0:	f000 fad8 	bl	10009b94 <tu_fifo_remaining>
100095e4:	bd10      	pop	{r4, pc}
100095e6:	46c0      	nop			@ (mov r8, r8)
100095e8:	200010fc 	.word	0x200010fc

100095ec <cdcd_init>:
100095ec:	2292      	movs	r2, #146	@ 0x92
100095ee:	b5f0      	push	{r4, r5, r6, r7, lr}
100095f0:	2500      	movs	r5, #0
100095f2:	4c1b      	ldr	r4, [pc, #108]	@ (10009660 <cdcd_init+0x74>)
100095f4:	b083      	sub	sp, #12
100095f6:	2100      	movs	r1, #0
100095f8:	0020      	movs	r0, r4
100095fa:	0092      	lsls	r2, r2, #2
100095fc:	f7fb fff6 	bl	100055ec <__wrap_memset>
10009600:	4b18      	ldr	r3, [pc, #96]	@ (10009664 <cdcd_init+0x78>)
10009602:	0021      	movs	r1, r4
10009604:	701d      	strb	r5, [r3, #0]
10009606:	23ff      	movs	r3, #255	@ 0xff
10009608:	7163      	strb	r3, [r4, #5]
1000960a:	23e1      	movs	r3, #225	@ 0xe1
1000960c:	025b      	lsls	r3, r3, #9
1000960e:	60a3      	str	r3, [r4, #8]
10009610:	0020      	movs	r0, r4
10009612:	2308      	movs	r3, #8
10009614:	2280      	movs	r2, #128	@ 0x80
10009616:	73a3      	strb	r3, [r4, #14]
10009618:	3138      	adds	r1, #56	@ 0x38
1000961a:	9500      	str	r5, [sp, #0]
1000961c:	3b07      	subs	r3, #7
1000961e:	0052      	lsls	r2, r2, #1
10009620:	3010      	adds	r0, #16
10009622:	f000 fa63 	bl	10009aec <tu_fifo_config>
10009626:	0021      	movs	r1, r4
10009628:	2301      	movs	r3, #1
1000962a:	0020      	movs	r0, r4
1000962c:	2280      	movs	r2, #128	@ 0x80
1000962e:	3139      	adds	r1, #57	@ 0x39
10009630:	31ff      	adds	r1, #255	@ 0xff
10009632:	0052      	lsls	r2, r2, #1
10009634:	9300      	str	r3, [sp, #0]
10009636:	3024      	adds	r0, #36	@ 0x24
10009638:	f000 fa58 	bl	10009aec <tu_fifo_config>
1000963c:	238e      	movs	r3, #142	@ 0x8e
1000963e:	009b      	lsls	r3, r3, #2
10009640:	18e7      	adds	r7, r4, r3
10009642:	0038      	movs	r0, r7
10009644:	f7fa f93c 	bl	100038c0 <mutex_init>
10009648:	2390      	movs	r3, #144	@ 0x90
1000964a:	009b      	lsls	r3, r3, #2
1000964c:	18e6      	adds	r6, r4, r3
1000964e:	0030      	movs	r0, r6
10009650:	f7fa f936 	bl	100038c0 <mutex_init>
10009654:	61e5      	str	r5, [r4, #28]
10009656:	6227      	str	r7, [r4, #32]
10009658:	6326      	str	r6, [r4, #48]	@ 0x30
1000965a:	6365      	str	r5, [r4, #52]	@ 0x34
1000965c:	b003      	add	sp, #12
1000965e:	bdf0      	pop	{r4, r5, r6, r7, pc}
10009660:	200010d8 	.word	0x200010d8
10009664:	20002fa4 	.word	0x20002fa4

10009668 <cdcd_deinit>:
10009668:	4b0a      	ldr	r3, [pc, #40]	@ (10009694 <cdcd_deinit+0x2c>)
1000966a:	6b19      	ldr	r1, [r3, #48]	@ 0x30
1000966c:	6a1a      	ldr	r2, [r3, #32]
1000966e:	2900      	cmp	r1, #0
10009670:	d00c      	beq.n	1000968c <cdcd_deinit+0x24>
10009672:	2a00      	cmp	r2, #0
10009674:	d007      	beq.n	10009686 <cdcd_deinit+0x1e>
10009676:	2200      	movs	r2, #0
10009678:	61da      	str	r2, [r3, #28]
1000967a:	635a      	str	r2, [r3, #52]	@ 0x34
1000967c:	631a      	str	r2, [r3, #48]	@ 0x30
1000967e:	2200      	movs	r2, #0
10009680:	621a      	str	r2, [r3, #32]
10009682:	2001      	movs	r0, #1
10009684:	4770      	bx	lr
10009686:	635a      	str	r2, [r3, #52]	@ 0x34
10009688:	631a      	str	r2, [r3, #48]	@ 0x30
1000968a:	e7fa      	b.n	10009682 <cdcd_deinit+0x1a>
1000968c:	2a00      	cmp	r2, #0
1000968e:	d0f8      	beq.n	10009682 <cdcd_deinit+0x1a>
10009690:	61d9      	str	r1, [r3, #28]
10009692:	e7f4      	b.n	1000967e <cdcd_deinit+0x16>
10009694:	200010d8 	.word	0x200010d8

10009698 <cdcd_reset>:
10009698:	b570      	push	{r4, r5, r6, lr}
1000969a:	2205      	movs	r2, #5
1000969c:	2100      	movs	r1, #0
1000969e:	480d      	ldr	r0, [pc, #52]	@ (100096d4 <cdcd_reset+0x3c>)
100096a0:	f7fb ffa4 	bl	100055ec <__wrap_memset>
100096a4:	4d0c      	ldr	r5, [pc, #48]	@ (100096d8 <cdcd_reset+0x40>)
100096a6:	782b      	ldrb	r3, [r5, #0]
100096a8:	07da      	lsls	r2, r3, #31
100096aa:	d507      	bpl.n	100096bc <cdcd_reset+0x24>
100096ac:	4c0b      	ldr	r4, [pc, #44]	@ (100096dc <cdcd_reset+0x44>)
100096ae:	079b      	lsls	r3, r3, #30
100096b0:	d50c      	bpl.n	100096cc <cdcd_reset+0x34>
100096b2:	2101      	movs	r1, #1
100096b4:	0020      	movs	r0, r4
100096b6:	f000 fc6d 	bl	10009f94 <tu_fifo_set_overwritable>
100096ba:	bd70      	pop	{r4, r5, r6, pc}
100096bc:	4805      	ldr	r0, [pc, #20]	@ (100096d4 <cdcd_reset+0x3c>)
100096be:	3010      	adds	r0, #16
100096c0:	f000 fc48 	bl	10009f54 <tu_fifo_clear>
100096c4:	782b      	ldrb	r3, [r5, #0]
100096c6:	4c05      	ldr	r4, [pc, #20]	@ (100096dc <cdcd_reset+0x44>)
100096c8:	079b      	lsls	r3, r3, #30
100096ca:	d4f2      	bmi.n	100096b2 <cdcd_reset+0x1a>
100096cc:	0020      	movs	r0, r4
100096ce:	f000 fc41 	bl	10009f54 <tu_fifo_clear>
100096d2:	e7ee      	b.n	100096b2 <cdcd_reset+0x1a>
100096d4:	200010d8 	.word	0x200010d8
100096d8:	20002fa4 	.word	0x20002fa4
100096dc:	200010fc 	.word	0x200010fc

100096e0 <cdcd_open>:
100096e0:	b5f0      	push	{r4, r5, r6, r7, lr}
100096e2:	794b      	ldrb	r3, [r1, #5]
100096e4:	0007      	movs	r7, r0
100096e6:	b083      	sub	sp, #12
100096e8:	2b02      	cmp	r3, #2
100096ea:	d102      	bne.n	100096f2 <cdcd_open+0x12>
100096ec:	798b      	ldrb	r3, [r1, #6]
100096ee:	2b02      	cmp	r3, #2
100096f0:	d003      	beq.n	100096fa <cdcd_open+0x1a>
100096f2:	2400      	movs	r4, #0
100096f4:	0020      	movs	r0, r4
100096f6:	b003      	add	sp, #12
100096f8:	bdf0      	pop	{r4, r5, r6, r7, pc}
100096fa:	4b21      	ldr	r3, [pc, #132]	@ (10009780 <cdcd_open+0xa0>)
100096fc:	001e      	movs	r6, r3
100096fe:	789b      	ldrb	r3, [r3, #2]
10009700:	2b00      	cmp	r3, #0
10009702:	d1f6      	bne.n	100096f2 <cdcd_open+0x12>
10009704:	788b      	ldrb	r3, [r1, #2]
10009706:	2409      	movs	r4, #9
10009708:	7033      	strb	r3, [r6, #0]
1000970a:	780d      	ldrb	r5, [r1, #0]
1000970c:	194d      	adds	r5, r1, r5
1000970e:	786b      	ldrb	r3, [r5, #1]
10009710:	2b24      	cmp	r3, #36	@ 0x24
10009712:	d007      	beq.n	10009724 <cdcd_open+0x44>
10009714:	e00c      	b.n	10009730 <cdcd_open+0x50>
10009716:	782b      	ldrb	r3, [r5, #0]
10009718:	18ed      	adds	r5, r5, r3
1000971a:	191c      	adds	r4, r3, r4
1000971c:	786b      	ldrb	r3, [r5, #1]
1000971e:	b2a4      	uxth	r4, r4
10009720:	2b24      	cmp	r3, #36	@ 0x24
10009722:	d105      	bne.n	10009730 <cdcd_open+0x50>
10009724:	42a2      	cmp	r2, r4
10009726:	d2f6      	bcs.n	10009716 <cdcd_open+0x36>
10009728:	2000      	movs	r0, #0
1000972a:	f7ff fe43 	bl	100093b4 <_prep_out_transaction.isra.0>
1000972e:	e7e1      	b.n	100096f4 <cdcd_open+0x14>
10009730:	001a      	movs	r2, r3
10009732:	2b05      	cmp	r3, #5
10009734:	d015      	beq.n	10009762 <cdcd_open+0x82>
10009736:	2a04      	cmp	r2, #4
10009738:	d1f6      	bne.n	10009728 <cdcd_open+0x48>
1000973a:	796b      	ldrb	r3, [r5, #5]
1000973c:	2b0a      	cmp	r3, #10
1000973e:	d1f3      	bne.n	10009728 <cdcd_open+0x48>
10009740:	4b10      	ldr	r3, [pc, #64]	@ (10009784 <cdcd_open+0xa4>)
10009742:	782e      	ldrb	r6, [r5, #0]
10009744:	9301      	str	r3, [sp, #4]
10009746:	3301      	adds	r3, #1
10009748:	9300      	str	r3, [sp, #0]
1000974a:	0038      	movs	r0, r7
1000974c:	2302      	movs	r3, #2
1000974e:	19a9      	adds	r1, r5, r6
10009750:	3a02      	subs	r2, #2
10009752:	f7fe fe5f 	bl	10008414 <usbd_open_edpt_pair>
10009756:	2800      	cmp	r0, #0
10009758:	d0cb      	beq.n	100096f2 <cdcd_open+0x12>
1000975a:	340e      	adds	r4, #14
1000975c:	19a4      	adds	r4, r4, r6
1000975e:	b2a4      	uxth	r4, r4
10009760:	e7e2      	b.n	10009728 <cdcd_open+0x48>
10009762:	0029      	movs	r1, r5
10009764:	0038      	movs	r0, r7
10009766:	f7fe fea1 	bl	100084ac <usbd_edpt_open>
1000976a:	2800      	cmp	r0, #0
1000976c:	d0c1      	beq.n	100096f2 <cdcd_open+0x12>
1000976e:	78ab      	ldrb	r3, [r5, #2]
10009770:	7073      	strb	r3, [r6, #1]
10009772:	782b      	ldrb	r3, [r5, #0]
10009774:	191c      	adds	r4, r3, r4
10009776:	18ed      	adds	r5, r5, r3
10009778:	786a      	ldrb	r2, [r5, #1]
1000977a:	b2a4      	uxth	r4, r4
1000977c:	e7db      	b.n	10009736 <cdcd_open+0x56>
1000977e:	46c0      	nop			@ (mov r8, r8)
10009780:	200010d8 	.word	0x200010d8
10009784:	200010da 	.word	0x200010da

10009788 <cdcd_control_xfer_cb>:
10009788:	2360      	movs	r3, #96	@ 0x60
1000978a:	468c      	mov	ip, r1
1000978c:	0011      	movs	r1, r2
1000978e:	7812      	ldrb	r2, [r2, #0]
10009790:	b570      	push	{r4, r5, r6, lr}
10009792:	4013      	ands	r3, r2
10009794:	2200      	movs	r2, #0
10009796:	2b20      	cmp	r3, #32
10009798:	d108      	bne.n	100097ac <cdcd_control_xfer_cb+0x24>
1000979a:	4c32      	ldr	r4, [pc, #200]	@ (10009864 <cdcd_control_xfer_cb+0xdc>)
1000979c:	794b      	ldrb	r3, [r1, #5]
1000979e:	0026      	movs	r6, r4
100097a0:	790d      	ldrb	r5, [r1, #4]
100097a2:	7824      	ldrb	r4, [r4, #0]
100097a4:	021b      	lsls	r3, r3, #8
100097a6:	432b      	orrs	r3, r5
100097a8:	429c      	cmp	r4, r3
100097aa:	d001      	beq.n	100097b0 <cdcd_control_xfer_cb+0x28>
100097ac:	0010      	movs	r0, r2
100097ae:	bd70      	pop	{r4, r5, r6, pc}
100097b0:	784b      	ldrb	r3, [r1, #1]
100097b2:	2b22      	cmp	r3, #34	@ 0x22
100097b4:	d01c      	beq.n	100097f0 <cdcd_control_xfer_cb+0x68>
100097b6:	d808      	bhi.n	100097ca <cdcd_control_xfer_cb+0x42>
100097b8:	2b20      	cmp	r3, #32
100097ba:	d039      	beq.n	10009830 <cdcd_control_xfer_cb+0xa8>
100097bc:	2b21      	cmp	r3, #33	@ 0x21
100097be:	d1f5      	bne.n	100097ac <cdcd_control_xfer_cb+0x24>
100097c0:	4663      	mov	r3, ip
100097c2:	2b01      	cmp	r3, #1
100097c4:	d043      	beq.n	1000984e <cdcd_control_xfer_cb+0xc6>
100097c6:	2201      	movs	r2, #1
100097c8:	e7f0      	b.n	100097ac <cdcd_control_xfer_cb+0x24>
100097ca:	2b23      	cmp	r3, #35	@ 0x23
100097cc:	d1ee      	bne.n	100097ac <cdcd_control_xfer_cb+0x24>
100097ce:	4663      	mov	r3, ip
100097d0:	2b01      	cmp	r3, #1
100097d2:	d042      	beq.n	1000985a <cdcd_control_xfer_cb+0xd2>
100097d4:	2b03      	cmp	r3, #3
100097d6:	d1f6      	bne.n	100097c6 <cdcd_control_xfer_cb+0x3e>
100097d8:	4b23      	ldr	r3, [pc, #140]	@ (10009868 <cdcd_control_xfer_cb+0xe0>)
100097da:	2b00      	cmp	r3, #0
100097dc:	d0f3      	beq.n	100097c6 <cdcd_control_xfer_cb+0x3e>
100097de:	788b      	ldrb	r3, [r1, #2]
100097e0:	78c9      	ldrb	r1, [r1, #3]
100097e2:	2000      	movs	r0, #0
100097e4:	0209      	lsls	r1, r1, #8
100097e6:	4319      	orrs	r1, r3
100097e8:	e000      	b.n	100097ec <cdcd_control_xfer_cb+0x64>
100097ea:	bf00      	nop
100097ec:	2201      	movs	r2, #1
100097ee:	e7dd      	b.n	100097ac <cdcd_control_xfer_cb+0x24>
100097f0:	4663      	mov	r3, ip
100097f2:	2b01      	cmp	r3, #1
100097f4:	d031      	beq.n	1000985a <cdcd_control_xfer_cb+0xd2>
100097f6:	2b03      	cmp	r3, #3
100097f8:	d1e5      	bne.n	100097c6 <cdcd_control_xfer_cb+0x3e>
100097fa:	2501      	movs	r5, #1
100097fc:	78cb      	ldrb	r3, [r1, #3]
100097fe:	788a      	ldrb	r2, [r1, #2]
10009800:	021b      	lsls	r3, r3, #8
10009802:	4313      	orrs	r3, r2
10009804:	001c      	movs	r4, r3
10009806:	401d      	ands	r5, r3
10009808:	0033      	movs	r3, r6
1000980a:	2101      	movs	r1, #1
1000980c:	3324      	adds	r3, #36	@ 0x24
1000980e:	0018      	movs	r0, r3
10009810:	4069      	eors	r1, r5
10009812:	7134      	strb	r4, [r6, #4]
10009814:	f000 fbbe 	bl	10009f94 <tu_fifo_set_overwritable>
10009818:	4b14      	ldr	r3, [pc, #80]	@ (1000986c <cdcd_control_xfer_cb+0xe4>)
1000981a:	2b00      	cmp	r3, #0
1000981c:	d0d3      	beq.n	100097c6 <cdcd_control_xfer_cb+0x3e>
1000981e:	2301      	movs	r3, #1
10009820:	0862      	lsrs	r2, r4, #1
10009822:	401a      	ands	r2, r3
10009824:	0029      	movs	r1, r5
10009826:	2000      	movs	r0, #0
10009828:	e000      	b.n	1000982c <cdcd_control_xfer_cb+0xa4>
1000982a:	bf00      	nop
1000982c:	2201      	movs	r2, #1
1000982e:	e7bd      	b.n	100097ac <cdcd_control_xfer_cb+0x24>
10009830:	4663      	mov	r3, ip
10009832:	2b01      	cmp	r3, #1
10009834:	d00b      	beq.n	1000984e <cdcd_control_xfer_cb+0xc6>
10009836:	2b03      	cmp	r3, #3
10009838:	d1c5      	bne.n	100097c6 <cdcd_control_xfer_cb+0x3e>
1000983a:	4b0d      	ldr	r3, [pc, #52]	@ (10009870 <cdcd_control_xfer_cb+0xe8>)
1000983c:	2b00      	cmp	r3, #0
1000983e:	d0c2      	beq.n	100097c6 <cdcd_control_xfer_cb+0x3e>
10009840:	0031      	movs	r1, r6
10009842:	2000      	movs	r0, #0
10009844:	3108      	adds	r1, #8
10009846:	f7fd fcf7 	bl	10007238 <tud_cdc_line_coding_cb>
1000984a:	2201      	movs	r2, #1
1000984c:	e7ae      	b.n	100097ac <cdcd_control_xfer_cb+0x24>
1000984e:	4a09      	ldr	r2, [pc, #36]	@ (10009874 <cdcd_control_xfer_cb+0xec>)
10009850:	2307      	movs	r3, #7
10009852:	f7fe ff29 	bl	100086a8 <tud_control_xfer>
10009856:	2201      	movs	r2, #1
10009858:	e7a8      	b.n	100097ac <cdcd_control_xfer_cb+0x24>
1000985a:	f7fe ff0f 	bl	1000867c <tud_control_status>
1000985e:	2201      	movs	r2, #1
10009860:	e7a4      	b.n	100097ac <cdcd_control_xfer_cb+0x24>
10009862:	46c0      	nop			@ (mov r8, r8)
10009864:	200010d8 	.word	0x200010d8
	...
10009870:	10007239 	.word	0x10007239
10009874:	200010e0 	.word	0x200010e0

10009878 <cdcd_xfer_cb>:
10009878:	b5f8      	push	{r3, r4, r5, r6, r7, lr}
1000987a:	4647      	mov	r7, r8
1000987c:	46ce      	mov	lr, r9
1000987e:	b580      	push	{r7, lr}
10009880:	4c34      	ldr	r4, [pc, #208]	@ (10009954 <cdcd_xfer_cb+0xdc>)
10009882:	001f      	movs	r7, r3
10009884:	78e3      	ldrb	r3, [r4, #3]
10009886:	4680      	mov	r8, r0
10009888:	000d      	movs	r5, r1
1000988a:	428b      	cmp	r3, r1
1000988c:	d03b      	beq.n	10009906 <cdcd_xfer_cb+0x8e>
1000988e:	78a3      	ldrb	r3, [r4, #2]
10009890:	2000      	movs	r0, #0
10009892:	428b      	cmp	r3, r1
10009894:	d011      	beq.n	100098ba <cdcd_xfer_cb+0x42>
10009896:	bcc0      	pop	{r6, r7}
10009898:	46b9      	mov	r9, r7
1000989a:	46b0      	mov	r8, r6
1000989c:	bdf8      	pop	{r3, r4, r5, r6, r7, pc}
1000989e:	4b2e      	ldr	r3, [pc, #184]	@ (10009958 <cdcd_xfer_cb+0xe0>)
100098a0:	2b00      	cmp	r3, #0
100098a2:	d004      	beq.n	100098ae <cdcd_xfer_cb+0x36>
100098a4:	482d      	ldr	r0, [pc, #180]	@ (1000995c <cdcd_xfer_cb+0xe4>)
100098a6:	f000 f96d 	bl	10009b84 <tu_fifo_empty>
100098aa:	2800      	cmp	r0, #0
100098ac:	d04f      	beq.n	1000994e <cdcd_xfer_cb+0xd6>
100098ae:	2000      	movs	r0, #0
100098b0:	f7ff fd80 	bl	100093b4 <_prep_out_transaction.isra.0>
100098b4:	78a3      	ldrb	r3, [r4, #2]
100098b6:	42ab      	cmp	r3, r5
100098b8:	d10a      	bne.n	100098d0 <cdcd_xfer_cb+0x58>
100098ba:	4b29      	ldr	r3, [pc, #164]	@ (10009960 <cdcd_xfer_cb+0xe8>)
100098bc:	2b00      	cmp	r3, #0
100098be:	d002      	beq.n	100098c6 <cdcd_xfer_cb+0x4e>
100098c0:	2000      	movs	r0, #0
100098c2:	e000      	b.n	100098c6 <cdcd_xfer_cb+0x4e>
100098c4:	bf00      	nop
100098c6:	2000      	movs	r0, #0
100098c8:	f7ff fe22 	bl	10009510 <tud_cdc_n_write_flush>
100098cc:	2800      	cmp	r0, #0
100098ce:	d001      	beq.n	100098d4 <cdcd_xfer_cb+0x5c>
100098d0:	2001      	movs	r0, #1
100098d2:	e7e0      	b.n	10009896 <cdcd_xfer_cb+0x1e>
100098d4:	4c23      	ldr	r4, [pc, #140]	@ (10009964 <cdcd_xfer_cb+0xec>)
100098d6:	0020      	movs	r0, r4
100098d8:	f000 f93e 	bl	10009b58 <tu_fifo_count>
100098dc:	2800      	cmp	r0, #0
100098de:	d1f7      	bne.n	100098d0 <cdcd_xfer_cb+0x58>
100098e0:	2f00      	cmp	r7, #0
100098e2:	d0f5      	beq.n	100098d0 <cdcd_xfer_cb+0x58>
100098e4:	06bb      	lsls	r3, r7, #26
100098e6:	d1f3      	bne.n	100098d0 <cdcd_xfer_cb+0x58>
100098e8:	3c24      	subs	r4, #36	@ 0x24
100098ea:	4640      	mov	r0, r8
100098ec:	78a1      	ldrb	r1, [r4, #2]
100098ee:	f7fe fdf7 	bl	100084e0 <usbd_edpt_claim>
100098f2:	2800      	cmp	r0, #0
100098f4:	d0ec      	beq.n	100098d0 <cdcd_xfer_cb+0x58>
100098f6:	2300      	movs	r3, #0
100098f8:	2200      	movs	r2, #0
100098fa:	4640      	mov	r0, r8
100098fc:	78a1      	ldrb	r1, [r4, #2]
100098fe:	f7fe fe17 	bl	10008530 <usbd_edpt_xfer>
10009902:	2001      	movs	r0, #1
10009904:	e7c7      	b.n	10009896 <cdcd_xfer_cb+0x1e>
10009906:	4e18      	ldr	r6, [pc, #96]	@ (10009968 <cdcd_xfer_cb+0xf0>)
10009908:	4814      	ldr	r0, [pc, #80]	@ (1000995c <cdcd_xfer_cb+0xe4>)
1000990a:	0031      	movs	r1, r6
1000990c:	b2ba      	uxth	r2, r7
1000990e:	f000 fa6d 	bl	10009dec <tu_fifo_write_n>
10009912:	4b16      	ldr	r3, [pc, #88]	@ (1000996c <cdcd_xfer_cb+0xf4>)
10009914:	2b00      	cmp	r3, #0
10009916:	d0c2      	beq.n	1000989e <cdcd_xfer_cb+0x26>
10009918:	7963      	ldrb	r3, [r4, #5]
1000991a:	2bff      	cmp	r3, #255	@ 0xff
1000991c:	d0bf      	beq.n	1000989e <cdcd_xfer_cb+0x26>
1000991e:	2f00      	cmp	r7, #0
10009920:	d0bd      	beq.n	1000989e <cdcd_xfer_cb+0x26>
10009922:	46bc      	mov	ip, r7
10009924:	44b4      	add	ip, r6
10009926:	46e1      	mov	r9, ip
10009928:	e003      	b.n	10009932 <cdcd_xfer_cb+0xba>
1000992a:	3601      	adds	r6, #1
1000992c:	454e      	cmp	r6, r9
1000992e:	d0b6      	beq.n	1000989e <cdcd_xfer_cb+0x26>
10009930:	7963      	ldrb	r3, [r4, #5]
10009932:	7832      	ldrb	r2, [r6, #0]
10009934:	429a      	cmp	r2, r3
10009936:	d1f8      	bne.n	1000992a <cdcd_xfer_cb+0xb2>
10009938:	4808      	ldr	r0, [pc, #32]	@ (1000995c <cdcd_xfer_cb+0xe4>)
1000993a:	f000 f923 	bl	10009b84 <tu_fifo_empty>
1000993e:	2800      	cmp	r0, #0
10009940:	d1f3      	bne.n	1000992a <cdcd_xfer_cb+0xb2>
10009942:	4b06      	ldr	r3, [pc, #24]	@ (1000995c <cdcd_xfer_cb+0xe4>)
10009944:	3b10      	subs	r3, #16
10009946:	7959      	ldrb	r1, [r3, #5]
10009948:	e000      	b.n	1000994c <cdcd_xfer_cb+0xd4>
1000994a:	bf00      	nop
1000994c:	e7ed      	b.n	1000992a <cdcd_xfer_cb+0xb2>
1000994e:	e000      	b.n	10009952 <cdcd_xfer_cb+0xda>
10009950:	bf00      	nop
10009952:	e7ac      	b.n	100098ae <cdcd_xfer_cb+0x36>
10009954:	200010d8 	.word	0x200010d8
10009958:	00000000 	.word	0x00000000
1000995c:	200010e8 	.word	0x200010e8
10009960:	00000000 	.word	0x00000000
10009964:	200010fc 	.word	0x200010fc
10009968:	20002f24 	.word	0x20002f24
1000996c:	00000000 	.word	0x00000000

10009970 <tusb_rhport_init>:
10009970:	b500      	push	{lr}
10009972:	0003      	movs	r3, r0
10009974:	b083      	sub	sp, #12
10009976:	2900      	cmp	r1, #0
10009978:	d010      	beq.n	1000999c <tusb_rhport_init+0x2c>
1000997a:	2000      	movs	r0, #0
1000997c:	2b01      	cmp	r3, #1
1000997e:	d807      	bhi.n	10009990 <tusb_rhport_init+0x20>
10009980:	780a      	ldrb	r2, [r1, #0]
10009982:	2a00      	cmp	r2, #0
10009984:	d004      	beq.n	10009990 <tusb_rhport_init+0x20>
10009986:	480c      	ldr	r0, [pc, #48]	@ (100099b8 <tusb_rhport_init+0x48>)
10009988:	54c2      	strb	r2, [r0, r3]
1000998a:	2001      	movs	r0, #1
1000998c:	2a01      	cmp	r2, #1
1000998e:	d001      	beq.n	10009994 <tusb_rhport_init+0x24>
10009990:	b003      	add	sp, #12
10009992:	bd00      	pop	{pc}
10009994:	0018      	movs	r0, r3
10009996:	f7fe f8c7 	bl	10007b28 <tud_rhport_init>
1000999a:	e7f9      	b.n	10009990 <tusb_rhport_init+0x20>
1000999c:	2301      	movs	r3, #1
1000999e:	466a      	mov	r2, sp
100099a0:	2000      	movs	r0, #0
100099a2:	a901      	add	r1, sp, #4
100099a4:	8093      	strh	r3, [r2, #4]
100099a6:	f7fe f8bf 	bl	10007b28 <tud_rhport_init>
100099aa:	2800      	cmp	r0, #0
100099ac:	d0f0      	beq.n	10009990 <tusb_rhport_init+0x20>
100099ae:	2201      	movs	r2, #1
100099b0:	4b01      	ldr	r3, [pc, #4]	@ (100099b8 <tusb_rhport_init+0x48>)
100099b2:	701a      	strb	r2, [r3, #0]
100099b4:	e7ec      	b.n	10009990 <tusb_rhport_init+0x20>
100099b6:	46c0      	nop			@ (mov r8, r8)
100099b8:	20002ffc 	.word	0x20002ffc

100099bc <tu_edpt_claim>:
100099bc:	b570      	push	{r4, r5, r6, lr}
100099be:	0004      	movs	r4, r0
100099c0:	7823      	ldrb	r3, [r4, #0]
100099c2:	0008      	movs	r0, r1
100099c4:	07db      	lsls	r3, r3, #31
100099c6:	000e      	movs	r6, r1
100099c8:	0fdd      	lsrs	r5, r3, #31
100099ca:	2b00      	cmp	r3, #0
100099cc:	d116      	bne.n	100099fc <tu_edpt_claim+0x40>
100099ce:	7823      	ldrb	r3, [r4, #0]
100099d0:	075b      	lsls	r3, r3, #29
100099d2:	d501      	bpl.n	100099d8 <tu_edpt_claim+0x1c>
100099d4:	0028      	movs	r0, r5
100099d6:	bd70      	pop	{r4, r5, r6, pc}
100099d8:	2101      	movs	r1, #1
100099da:	4249      	negs	r1, r1
100099dc:	f000 fd80 	bl	1000a4e0 <__mutex_enter_timeout_ms_veneer>
100099e0:	7823      	ldrb	r3, [r4, #0]
100099e2:	07db      	lsls	r3, r3, #31
100099e4:	0fdd      	lsrs	r5, r3, #31
100099e6:	2b00      	cmp	r3, #0
100099e8:	d10a      	bne.n	10009a00 <tu_edpt_claim+0x44>
100099ea:	7823      	ldrb	r3, [r4, #0]
100099ec:	075b      	lsls	r3, r3, #29
100099ee:	d408      	bmi.n	10009a02 <tu_edpt_claim+0x46>
100099f0:	2204      	movs	r2, #4
100099f2:	7823      	ldrb	r3, [r4, #0]
100099f4:	2501      	movs	r5, #1
100099f6:	4313      	orrs	r3, r2
100099f8:	7023      	strb	r3, [r4, #0]
100099fa:	e002      	b.n	10009a02 <tu_edpt_claim+0x46>
100099fc:	2500      	movs	r5, #0
100099fe:	e7e9      	b.n	100099d4 <tu_edpt_claim+0x18>
10009a00:	2500      	movs	r5, #0
10009a02:	0030      	movs	r0, r6
10009a04:	f000 fd4c 	bl	1000a4a0 <__mutex_exit_veneer>
10009a08:	e7e4      	b.n	100099d4 <tu_edpt_claim+0x18>
10009a0a:	46c0      	nop			@ (mov r8, r8)

10009a0c <tu_edpt_release>:
10009a0c:	b570      	push	{r4, r5, r6, lr}
10009a0e:	000d      	movs	r5, r1
10009a10:	2101      	movs	r1, #1
10009a12:	0004      	movs	r4, r0
10009a14:	4249      	negs	r1, r1
10009a16:	0028      	movs	r0, r5
10009a18:	f000 fd62 	bl	1000a4e0 <__mutex_enter_timeout_ms_veneer>
10009a1c:	7823      	ldrb	r3, [r4, #0]
10009a1e:	075b      	lsls	r3, r3, #29
10009a20:	0fde      	lsrs	r6, r3, #31
10009a22:	2b00      	cmp	r3, #0
10009a24:	db04      	blt.n	10009a30 <tu_edpt_release+0x24>
10009a26:	0028      	movs	r0, r5
10009a28:	f000 fd3a 	bl	1000a4a0 <__mutex_exit_veneer>
10009a2c:	0030      	movs	r0, r6
10009a2e:	bd70      	pop	{r4, r5, r6, pc}
10009a30:	7823      	ldrb	r3, [r4, #0]
10009a32:	07db      	lsls	r3, r3, #31
10009a34:	d404      	bmi.n	10009a40 <tu_edpt_release+0x34>
10009a36:	2204      	movs	r2, #4
10009a38:	7823      	ldrb	r3, [r4, #0]
10009a3a:	4393      	bics	r3, r2
10009a3c:	7023      	strb	r3, [r4, #0]
10009a3e:	e7f2      	b.n	10009a26 <tu_edpt_release+0x1a>
10009a40:	2600      	movs	r6, #0
10009a42:	e7f0      	b.n	10009a26 <tu_edpt_release+0x1a>

10009a44 <tu_edpt_validate>:
10009a44:	7943      	ldrb	r3, [r0, #5]
10009a46:	7902      	ldrb	r2, [r0, #4]
10009a48:	021b      	lsls	r3, r3, #8
10009a4a:	4313      	orrs	r3, r2
10009a4c:	78c2      	ldrb	r2, [r0, #3]
10009a4e:	055b      	lsls	r3, r3, #21
10009a50:	0792      	lsls	r2, r2, #30
10009a52:	0d5b      	lsrs	r3, r3, #21
10009a54:	0f92      	lsrs	r2, r2, #30
10009a56:	2a02      	cmp	r2, #2
10009a58:	d01a      	beq.n	10009a90 <tu_edpt_validate+0x4c>
10009a5a:	2a03      	cmp	r2, #3
10009a5c:	d00b      	beq.n	10009a76 <tu_edpt_validate+0x32>
10009a5e:	2000      	movs	r0, #0
10009a60:	2a01      	cmp	r2, #1
10009a62:	d107      	bne.n	10009a74 <tu_edpt_validate+0x30>
10009a64:	3902      	subs	r1, #2
10009a66:	424a      	negs	r2, r1
10009a68:	4151      	adcs	r1, r2
10009a6a:	4a10      	ldr	r2, [pc, #64]	@ (10009aac <tu_edpt_validate+0x68>)
10009a6c:	1889      	adds	r1, r1, r2
10009a6e:	4299      	cmp	r1, r3
10009a70:	4140      	adcs	r0, r0
10009a72:	b2c0      	uxtb	r0, r0
10009a74:	4770      	bx	lr
10009a76:	3902      	subs	r1, #2
10009a78:	1e4a      	subs	r2, r1, #1
10009a7a:	4191      	sbcs	r1, r2
10009a7c:	4a0c      	ldr	r2, [pc, #48]	@ (10009ab0 <tu_edpt_validate+0x6c>)
10009a7e:	4249      	negs	r1, r1
10009a80:	4011      	ands	r1, r2
10009a82:	2280      	movs	r2, #128	@ 0x80
10009a84:	2000      	movs	r0, #0
10009a86:	00d2      	lsls	r2, r2, #3
10009a88:	1889      	adds	r1, r1, r2
10009a8a:	4299      	cmp	r1, r3
10009a8c:	4140      	adcs	r0, r0
10009a8e:	e7f1      	b.n	10009a74 <tu_edpt_validate+0x30>
10009a90:	2902      	cmp	r1, #2
10009a92:	d004      	beq.n	10009a9e <tu_edpt_validate+0x5a>
10009a94:	2000      	movs	r0, #0
10009a96:	2240      	movs	r2, #64	@ 0x40
10009a98:	429a      	cmp	r2, r3
10009a9a:	4140      	adcs	r0, r0
10009a9c:	e7ea      	b.n	10009a74 <tu_edpt_validate+0x30>
10009a9e:	4a05      	ldr	r2, [pc, #20]	@ (10009ab4 <tu_edpt_validate+0x70>)
10009aa0:	1898      	adds	r0, r3, r2
10009aa2:	4243      	negs	r3, r0
10009aa4:	4158      	adcs	r0, r3
10009aa6:	b2c0      	uxtb	r0, r0
10009aa8:	e7e4      	b.n	10009a74 <tu_edpt_validate+0x30>
10009aaa:	46c0      	nop			@ (mov r8, r8)
10009aac:	000003ff 	.word	0x000003ff
10009ab0:	fffffc40 	.word	0xfffffc40
10009ab4:	fffffe00 	.word	0xfffffe00

10009ab8 <tu_edpt_bind_driver>:
10009ab8:	4684      	mov	ip, r0
10009aba:	1888      	adds	r0, r1, r2
10009abc:	b530      	push	{r4, r5, lr}
10009abe:	001c      	movs	r4, r3
10009ac0:	4281      	cmp	r1, r0
10009ac2:	d206      	bcs.n	10009ad2 <tu_edpt_bind_driver+0x1a>
10009ac4:	784a      	ldrb	r2, [r1, #1]
10009ac6:	2a05      	cmp	r2, #5
10009ac8:	d004      	beq.n	10009ad4 <tu_edpt_bind_driver+0x1c>
10009aca:	780a      	ldrb	r2, [r1, #0]
10009acc:	1889      	adds	r1, r1, r2
10009ace:	4288      	cmp	r0, r1
10009ad0:	d8f8      	bhi.n	10009ac4 <tu_edpt_bind_driver+0xc>
10009ad2:	bd30      	pop	{r4, r5, pc}
10009ad4:	227f      	movs	r2, #127	@ 0x7f
10009ad6:	788b      	ldrb	r3, [r1, #2]
10009ad8:	401a      	ands	r2, r3
10009ada:	0052      	lsls	r2, r2, #1
10009adc:	4462      	add	r2, ip
10009ade:	09db      	lsrs	r3, r3, #7
10009ae0:	54d4      	strb	r4, [r2, r3]
10009ae2:	780a      	ldrb	r2, [r1, #0]
10009ae4:	1889      	adds	r1, r1, r2
10009ae6:	4288      	cmp	r0, r1
10009ae8:	d8ec      	bhi.n	10009ac4 <tu_edpt_bind_driver+0xc>
10009aea:	e7f2      	b.n	10009ad2 <tu_edpt_bind_driver+0x1a>

10009aec <tu_fifo_config>:
10009aec:	b5f0      	push	{r4, r5, r6, r7, lr}
10009aee:	46c6      	mov	lr, r8
10009af0:	b500      	push	{lr}
10009af2:	4698      	mov	r8, r3
10009af4:	466b      	mov	r3, sp
10009af6:	7e1e      	ldrb	r6, [r3, #24]
10009af8:	2380      	movs	r3, #128	@ 0x80
10009afa:	0004      	movs	r4, r0
10009afc:	000f      	movs	r7, r1
10009afe:	0015      	movs	r5, r2
10009b00:	021b      	lsls	r3, r3, #8
10009b02:	429a      	cmp	r2, r3
10009b04:	d826      	bhi.n	10009b54 <tu_fifo_config+0x68>
10009b06:	68c0      	ldr	r0, [r0, #12]
10009b08:	2800      	cmp	r0, #0
10009b0a:	d003      	beq.n	10009b14 <tu_fifo_config+0x28>
10009b0c:	2101      	movs	r1, #1
10009b0e:	4249      	negs	r1, r1
10009b10:	f000 fce6 	bl	1000a4e0 <__mutex_enter_timeout_ms_veneer>
10009b14:	6920      	ldr	r0, [r4, #16]
10009b16:	2800      	cmp	r0, #0
10009b18:	d003      	beq.n	10009b22 <tu_fifo_config+0x36>
10009b1a:	2101      	movs	r1, #1
10009b1c:	4249      	negs	r1, r1
10009b1e:	f000 fcdf 	bl	1000a4e0 <__mutex_enter_timeout_ms_veneer>
10009b22:	4642      	mov	r2, r8
10009b24:	0452      	lsls	r2, r2, #17
10009b26:	03f3      	lsls	r3, r6, #15
10009b28:	0c52      	lsrs	r2, r2, #17
10009b2a:	4313      	orrs	r3, r2
10009b2c:	80e3      	strh	r3, [r4, #6]
10009b2e:	2300      	movs	r3, #0
10009b30:	68e0      	ldr	r0, [r4, #12]
10009b32:	8163      	strh	r3, [r4, #10]
10009b34:	6027      	str	r7, [r4, #0]
10009b36:	80a5      	strh	r5, [r4, #4]
10009b38:	8123      	strh	r3, [r4, #8]
10009b3a:	2800      	cmp	r0, #0
10009b3c:	d001      	beq.n	10009b42 <tu_fifo_config+0x56>
10009b3e:	f000 fcaf 	bl	1000a4a0 <__mutex_exit_veneer>
10009b42:	6920      	ldr	r0, [r4, #16]
10009b44:	2800      	cmp	r0, #0
10009b46:	d001      	beq.n	10009b4c <tu_fifo_config+0x60>
10009b48:	f000 fcaa 	bl	1000a4a0 <__mutex_exit_veneer>
10009b4c:	2001      	movs	r0, #1
10009b4e:	bc80      	pop	{r7}
10009b50:	46b8      	mov	r8, r7
10009b52:	bdf0      	pop	{r4, r5, r6, r7, pc}
10009b54:	2000      	movs	r0, #0
10009b56:	e7fa      	b.n	10009b4e <tu_fifo_config+0x62>

10009b58 <tu_fifo_count>:
10009b58:	8903      	ldrh	r3, [r0, #8]
10009b5a:	8941      	ldrh	r1, [r0, #10]
10009b5c:	469c      	mov	ip, r3
10009b5e:	8882      	ldrh	r2, [r0, #4]
10009b60:	b29b      	uxth	r3, r3
10009b62:	b288      	uxth	r0, r1
10009b64:	458c      	cmp	ip, r1
10009b66:	d307      	bcc.n	10009b78 <tu_fifo_count+0x20>
10009b68:	1a1b      	subs	r3, r3, r0
10009b6a:	b29b      	uxth	r3, r3
10009b6c:	1c10      	adds	r0, r2, #0
10009b6e:	429a      	cmp	r2, r3
10009b70:	d900      	bls.n	10009b74 <tu_fifo_count+0x1c>
10009b72:	1c18      	adds	r0, r3, #0
10009b74:	b280      	uxth	r0, r0
10009b76:	4770      	bx	lr
10009b78:	0051      	lsls	r1, r2, #1
10009b7a:	1a09      	subs	r1, r1, r0
10009b7c:	185b      	adds	r3, r3, r1
10009b7e:	b29b      	uxth	r3, r3
10009b80:	e7f4      	b.n	10009b6c <tu_fifo_count+0x14>
10009b82:	46c0      	nop			@ (mov r8, r8)

10009b84 <tu_fifo_empty>:
10009b84:	8903      	ldrh	r3, [r0, #8]
10009b86:	8940      	ldrh	r0, [r0, #10]
10009b88:	1a18      	subs	r0, r3, r0
10009b8a:	4243      	negs	r3, r0
10009b8c:	4158      	adcs	r0, r3
10009b8e:	b2c0      	uxtb	r0, r0
10009b90:	4770      	bx	lr
10009b92:	46c0      	nop			@ (mov r8, r8)

10009b94 <tu_fifo_remaining>:
10009b94:	8903      	ldrh	r3, [r0, #8]
10009b96:	8941      	ldrh	r1, [r0, #10]
10009b98:	469c      	mov	ip, r3
10009b9a:	8882      	ldrh	r2, [r0, #4]
10009b9c:	b29b      	uxth	r3, r3
10009b9e:	b288      	uxth	r0, r1
10009ba0:	458c      	cmp	ip, r1
10009ba2:	d307      	bcc.n	10009bb4 <tu_fifo_remaining+0x20>
10009ba4:	1a1b      	subs	r3, r3, r0
10009ba6:	b29b      	uxth	r3, r3
10009ba8:	2000      	movs	r0, #0
10009baa:	429a      	cmp	r2, r3
10009bac:	d901      	bls.n	10009bb2 <tu_fifo_remaining+0x1e>
10009bae:	1ad2      	subs	r2, r2, r3
10009bb0:	b290      	uxth	r0, r2
10009bb2:	4770      	bx	lr
10009bb4:	0051      	lsls	r1, r2, #1
10009bb6:	1a09      	subs	r1, r1, r0
10009bb8:	185b      	adds	r3, r3, r1
10009bba:	b29b      	uxth	r3, r3
10009bbc:	e7f4      	b.n	10009ba8 <tu_fifo_remaining+0x14>
10009bbe:	46c0      	nop			@ (mov r8, r8)

10009bc0 <tu_fifo_read>:
10009bc0:	b570      	push	{r4, r5, r6, lr}
10009bc2:	0004      	movs	r4, r0
10009bc4:	6900      	ldr	r0, [r0, #16]
10009bc6:	000d      	movs	r5, r1
10009bc8:	2800      	cmp	r0, #0
10009bca:	d003      	beq.n	10009bd4 <tu_fifo_read+0x14>
10009bcc:	2101      	movs	r1, #1
10009bce:	4249      	negs	r1, r1
10009bd0:	f000 fc86 	bl	1000a4e0 <__mutex_enter_timeout_ms_veneer>
10009bd4:	8923      	ldrh	r3, [r4, #8]
10009bd6:	8962      	ldrh	r2, [r4, #10]
10009bd8:	469c      	mov	ip, r3
10009bda:	b298      	uxth	r0, r3
10009bdc:	b291      	uxth	r1, r2
10009bde:	88a3      	ldrh	r3, [r4, #4]
10009be0:	4594      	cmp	ip, r2
10009be2:	d332      	bcc.n	10009c4a <tu_fifo_read+0x8a>
10009be4:	1a42      	subs	r2, r0, r1
10009be6:	b292      	uxth	r2, r2
10009be8:	2a00      	cmp	r2, #0
10009bea:	d027      	beq.n	10009c3c <tu_fifo_read+0x7c>
10009bec:	4293      	cmp	r3, r2
10009bee:	d208      	bcs.n	10009c02 <tu_fifo_read+0x42>
10009bf0:	4298      	cmp	r0, r3
10009bf2:	d32f      	bcc.n	10009c54 <tu_fifo_read+0x94>
10009bf4:	1ac0      	subs	r0, r0, r3
10009bf6:	b281      	uxth	r1, r0
10009bf8:	8161      	strh	r1, [r4, #10]
10009bfa:	428b      	cmp	r3, r1
10009bfc:	d803      	bhi.n	10009c06 <tu_fifo_read+0x46>
10009bfe:	1ac9      	subs	r1, r1, r3
10009c00:	b289      	uxth	r1, r1
10009c02:	428b      	cmp	r3, r1
10009c04:	d9fb      	bls.n	10009bfe <tu_fifo_read+0x3e>
10009c06:	88e2      	ldrh	r2, [r4, #6]
10009c08:	6823      	ldr	r3, [r4, #0]
10009c0a:	0452      	lsls	r2, r2, #17
10009c0c:	0c52      	lsrs	r2, r2, #17
10009c0e:	4351      	muls	r1, r2
10009c10:	0028      	movs	r0, r5
10009c12:	1859      	adds	r1, r3, r1
10009c14:	f7fb fcf0 	bl	100055f8 <__wrap___aeabi_memcpy>
10009c18:	8961      	ldrh	r1, [r4, #10]
10009c1a:	2501      	movs	r5, #1
10009c1c:	1c4a      	adds	r2, r1, #1
10009c1e:	b292      	uxth	r2, r2
10009c20:	88a3      	ldrh	r3, [r4, #4]
10009c22:	4291      	cmp	r1, r2
10009c24:	d90d      	bls.n	10009c42 <tu_fifo_read+0x82>
10009c26:	2200      	movs	r2, #0
10009c28:	005b      	lsls	r3, r3, #1
10009c2a:	1ad2      	subs	r2, r2, r3
10009c2c:	6920      	ldr	r0, [r4, #16]
10009c2e:	8162      	strh	r2, [r4, #10]
10009c30:	2800      	cmp	r0, #0
10009c32:	d001      	beq.n	10009c38 <tu_fifo_read+0x78>
10009c34:	f000 fc34 	bl	1000a4a0 <__mutex_exit_veneer>
10009c38:	0028      	movs	r0, r5
10009c3a:	bd70      	pop	{r4, r5, r6, pc}
10009c3c:	2500      	movs	r5, #0
10009c3e:	8962      	ldrh	r2, [r4, #10]
10009c40:	b292      	uxth	r2, r2
10009c42:	005b      	lsls	r3, r3, #1
10009c44:	429a      	cmp	r2, r3
10009c46:	dbf1      	blt.n	10009c2c <tu_fifo_read+0x6c>
10009c48:	e7ef      	b.n	10009c2a <tu_fifo_read+0x6a>
10009c4a:	005a      	lsls	r2, r3, #1
10009c4c:	1a52      	subs	r2, r2, r1
10009c4e:	1882      	adds	r2, r0, r2
10009c50:	b292      	uxth	r2, r2
10009c52:	e7c9      	b.n	10009be8 <tu_fifo_read+0x28>
10009c54:	18c0      	adds	r0, r0, r3
10009c56:	b281      	uxth	r1, r0
10009c58:	8161      	strh	r1, [r4, #10]
10009c5a:	e7ce      	b.n	10009bfa <tu_fifo_read+0x3a>

10009c5c <tu_fifo_read_n>:
10009c5c:	b5f0      	push	{r4, r5, r6, r7, lr}
10009c5e:	4646      	mov	r6, r8
10009c60:	46d6      	mov	lr, sl
10009c62:	464f      	mov	r7, r9
10009c64:	b5c0      	push	{r6, r7, lr}
10009c66:	0006      	movs	r6, r0
10009c68:	6900      	ldr	r0, [r0, #16]
10009c6a:	468a      	mov	sl, r1
10009c6c:	4690      	mov	r8, r2
10009c6e:	b082      	sub	sp, #8
10009c70:	2800      	cmp	r0, #0
10009c72:	d003      	beq.n	10009c7c <tu_fifo_read_n+0x20>
10009c74:	2101      	movs	r1, #1
10009c76:	4249      	negs	r1, r1
10009c78:	f000 fc32 	bl	1000a4e0 <__mutex_enter_timeout_ms_veneer>
10009c7c:	8931      	ldrh	r1, [r6, #8]
10009c7e:	8972      	ldrh	r2, [r6, #10]
10009c80:	88b5      	ldrh	r5, [r6, #4]
10009c82:	b28b      	uxth	r3, r1
10009c84:	b294      	uxth	r4, r2
10009c86:	4291      	cmp	r1, r2
10009c88:	d355      	bcc.n	10009d36 <tu_fifo_read_n+0xda>
10009c8a:	1b1f      	subs	r7, r3, r4
10009c8c:	b2bf      	uxth	r7, r7
10009c8e:	2f00      	cmp	r7, #0
10009c90:	d04b      	beq.n	10009d2a <tu_fifo_read_n+0xce>
10009c92:	42bd      	cmp	r5, r7
10009c94:	d205      	bcs.n	10009ca2 <tu_fifo_read_n+0x46>
10009c96:	42ab      	cmp	r3, r5
10009c98:	d252      	bcs.n	10009d40 <tu_fifo_read_n+0xe4>
10009c9a:	195b      	adds	r3, r3, r5
10009c9c:	b29c      	uxth	r4, r3
10009c9e:	002f      	movs	r7, r5
10009ca0:	8174      	strh	r4, [r6, #10]
10009ca2:	4643      	mov	r3, r8
10009ca4:	45b8      	cmp	r8, r7
10009ca6:	d83e      	bhi.n	10009d26 <tu_fifo_read_n+0xca>
10009ca8:	b29f      	uxth	r7, r3
10009caa:	42a5      	cmp	r5, r4
10009cac:	d803      	bhi.n	10009cb6 <tu_fifo_read_n+0x5a>
10009cae:	1b64      	subs	r4, r4, r5
10009cb0:	b2a4      	uxth	r4, r4
10009cb2:	42a5      	cmp	r5, r4
10009cb4:	d9fb      	bls.n	10009cae <tu_fifo_read_n+0x52>
10009cb6:	88f2      	ldrh	r2, [r6, #6]
10009cb8:	6831      	ldr	r1, [r6, #0]
10009cba:	0452      	lsls	r2, r2, #17
10009cbc:	0c50      	lsrs	r0, r2, #17
10009cbe:	0002      	movs	r2, r0
10009cc0:	4362      	muls	r2, r4
10009cc2:	1b2b      	subs	r3, r5, r4
10009cc4:	b29b      	uxth	r3, r3
10009cc6:	1889      	adds	r1, r1, r2
10009cc8:	9001      	str	r0, [sp, #4]
10009cca:	0002      	movs	r2, r0
10009ccc:	429f      	cmp	r7, r3
10009cce:	d925      	bls.n	10009d1c <tu_fifo_read_n+0xc0>
10009cd0:	4343      	muls	r3, r0
10009cd2:	b29b      	uxth	r3, r3
10009cd4:	001a      	movs	r2, r3
10009cd6:	4650      	mov	r0, sl
10009cd8:	4699      	mov	r9, r3
10009cda:	f7fb fc8d 	bl	100055f8 <__wrap___aeabi_memcpy>
10009cde:	4650      	mov	r0, sl
10009ce0:	9a01      	ldr	r2, [sp, #4]
10009ce2:	1b7d      	subs	r5, r7, r5
10009ce4:	1964      	adds	r4, r4, r5
10009ce6:	4354      	muls	r4, r2
10009ce8:	6831      	ldr	r1, [r6, #0]
10009cea:	4448      	add	r0, r9
10009cec:	b2a2      	uxth	r2, r4
10009cee:	f7fb fc83 	bl	100055f8 <__wrap___aeabi_memcpy>
10009cf2:	8971      	ldrh	r1, [r6, #10]
10009cf4:	88b5      	ldrh	r5, [r6, #4]
10009cf6:	19cb      	adds	r3, r1, r7
10009cf8:	b29b      	uxth	r3, r3
10009cfa:	006a      	lsls	r2, r5, #1
10009cfc:	4299      	cmp	r1, r3
10009cfe:	d916      	bls.n	10009d2e <tu_fifo_read_n+0xd2>
10009d00:	1a9b      	subs	r3, r3, r2
10009d02:	6930      	ldr	r0, [r6, #16]
10009d04:	8173      	strh	r3, [r6, #10]
10009d06:	2800      	cmp	r0, #0
10009d08:	d001      	beq.n	10009d0e <tu_fifo_read_n+0xb2>
10009d0a:	f000 fbc9 	bl	1000a4a0 <__mutex_exit_veneer>
10009d0e:	0038      	movs	r0, r7
10009d10:	b002      	add	sp, #8
10009d12:	bce0      	pop	{r5, r6, r7}
10009d14:	46ba      	mov	sl, r7
10009d16:	46b1      	mov	r9, r6
10009d18:	46a8      	mov	r8, r5
10009d1a:	bdf0      	pop	{r4, r5, r6, r7, pc}
10009d1c:	4650      	mov	r0, sl
10009d1e:	437a      	muls	r2, r7
10009d20:	f7fb fc6a 	bl	100055f8 <__wrap___aeabi_memcpy>
10009d24:	e7e5      	b.n	10009cf2 <tu_fifo_read_n+0x96>
10009d26:	1c3b      	adds	r3, r7, #0
10009d28:	e7be      	b.n	10009ca8 <tu_fifo_read_n+0x4c>
10009d2a:	8973      	ldrh	r3, [r6, #10]
10009d2c:	b29b      	uxth	r3, r3
10009d2e:	006a      	lsls	r2, r5, #1
10009d30:	4293      	cmp	r3, r2
10009d32:	dbe6      	blt.n	10009d02 <tu_fifo_read_n+0xa6>
10009d34:	e7e4      	b.n	10009d00 <tu_fifo_read_n+0xa4>
10009d36:	006f      	lsls	r7, r5, #1
10009d38:	1b3f      	subs	r7, r7, r4
10009d3a:	19df      	adds	r7, r3, r7
10009d3c:	b2bf      	uxth	r7, r7
10009d3e:	e7a6      	b.n	10009c8e <tu_fifo_read_n+0x32>
10009d40:	1b5b      	subs	r3, r3, r5
10009d42:	b29c      	uxth	r4, r3
10009d44:	e7ab      	b.n	10009c9e <tu_fifo_read_n+0x42>
10009d46:	46c0      	nop			@ (mov r8, r8)

10009d48 <tu_fifo_write>:
10009d48:	b5f8      	push	{r3, r4, r5, r6, r7, lr}
10009d4a:	0004      	movs	r4, r0
10009d4c:	68c0      	ldr	r0, [r0, #12]
10009d4e:	000f      	movs	r7, r1
10009d50:	2800      	cmp	r0, #0
10009d52:	d003      	beq.n	10009d5c <tu_fifo_write+0x14>
10009d54:	2101      	movs	r1, #1
10009d56:	4249      	negs	r1, r1
10009d58:	f000 fbc2 	bl	1000a4e0 <__mutex_enter_timeout_ms_veneer>
10009d5c:	8925      	ldrh	r5, [r4, #8]
10009d5e:	8920      	ldrh	r0, [r4, #8]
10009d60:	8961      	ldrh	r1, [r4, #10]
10009d62:	88a2      	ldrh	r2, [r4, #4]
10009d64:	b2ad      	uxth	r5, r5
10009d66:	b283      	uxth	r3, r0
10009d68:	b28e      	uxth	r6, r1
10009d6a:	4288      	cmp	r0, r1
10009d6c:	d328      	bcc.n	10009dc0 <tu_fifo_write+0x78>
10009d6e:	1b9b      	subs	r3, r3, r6
10009d70:	b29b      	uxth	r3, r3
10009d72:	429a      	cmp	r2, r3
10009d74:	d809      	bhi.n	10009d8a <tu_fifo_write+0x42>
10009d76:	79e6      	ldrb	r6, [r4, #7]
10009d78:	09f6      	lsrs	r6, r6, #7
10009d7a:	d106      	bne.n	10009d8a <tu_fifo_write+0x42>
10009d7c:	68e0      	ldr	r0, [r4, #12]
10009d7e:	2800      	cmp	r0, #0
10009d80:	d001      	beq.n	10009d86 <tu_fifo_write+0x3e>
10009d82:	f000 fb8d 	bl	1000a4a0 <__mutex_exit_veneer>
10009d86:	0030      	movs	r0, r6
10009d88:	bdf8      	pop	{r3, r4, r5, r6, r7, pc}
10009d8a:	002b      	movs	r3, r5
10009d8c:	4295      	cmp	r5, r2
10009d8e:	d31c      	bcc.n	10009dca <tu_fifo_write+0x82>
10009d90:	1a9b      	subs	r3, r3, r2
10009d92:	b29b      	uxth	r3, r3
10009d94:	4293      	cmp	r3, r2
10009d96:	d2fb      	bcs.n	10009d90 <tu_fifo_write+0x48>
10009d98:	88e2      	ldrh	r2, [r4, #6]
10009d9a:	6820      	ldr	r0, [r4, #0]
10009d9c:	0452      	lsls	r2, r2, #17
10009d9e:	0c52      	lsrs	r2, r2, #17
10009da0:	4353      	muls	r3, r2
10009da2:	0039      	movs	r1, r7
10009da4:	18c0      	adds	r0, r0, r3
10009da6:	f7fb fc27 	bl	100055f8 <__wrap___aeabi_memcpy>
10009daa:	1c6b      	adds	r3, r5, #1
10009dac:	b29b      	uxth	r3, r3
10009dae:	88a2      	ldrh	r2, [r4, #4]
10009db0:	429d      	cmp	r5, r3
10009db2:	d916      	bls.n	10009de2 <tu_fifo_write+0x9a>
10009db4:	2300      	movs	r3, #0
10009db6:	0052      	lsls	r2, r2, #1
10009db8:	1a9b      	subs	r3, r3, r2
10009dba:	2601      	movs	r6, #1
10009dbc:	8123      	strh	r3, [r4, #8]
10009dbe:	e7dd      	b.n	10009d7c <tu_fifo_write+0x34>
10009dc0:	0051      	lsls	r1, r2, #1
10009dc2:	1b89      	subs	r1, r1, r6
10009dc4:	185b      	adds	r3, r3, r1
10009dc6:	b29b      	uxth	r3, r3
10009dc8:	e7d3      	b.n	10009d72 <tu_fifo_write+0x2a>
10009dca:	88e2      	ldrh	r2, [r4, #6]
10009dcc:	6820      	ldr	r0, [r4, #0]
10009dce:	0452      	lsls	r2, r2, #17
10009dd0:	0c52      	lsrs	r2, r2, #17
10009dd2:	4353      	muls	r3, r2
10009dd4:	0039      	movs	r1, r7
10009dd6:	18c0      	adds	r0, r0, r3
10009dd8:	f7fb fc0e 	bl	100055f8 <__wrap___aeabi_memcpy>
10009ddc:	3501      	adds	r5, #1
10009dde:	88a2      	ldrh	r2, [r4, #4]
10009de0:	b2ab      	uxth	r3, r5
10009de2:	0052      	lsls	r2, r2, #1
10009de4:	4293      	cmp	r3, r2
10009de6:	dbe8      	blt.n	10009dba <tu_fifo_write+0x72>
10009de8:	e7e6      	b.n	10009db8 <tu_fifo_write+0x70>
10009dea:	46c0      	nop			@ (mov r8, r8)

10009dec <tu_fifo_write_n>:
10009dec:	b5f0      	push	{r4, r5, r6, r7, lr}
10009dee:	464e      	mov	r6, r9
10009df0:	4645      	mov	r5, r8
10009df2:	46de      	mov	lr, fp
10009df4:	4657      	mov	r7, sl
10009df6:	b5e0      	push	{r5, r6, r7, lr}
10009df8:	4689      	mov	r9, r1
10009dfa:	0005      	movs	r5, r0
10009dfc:	0016      	movs	r6, r2
10009dfe:	b083      	sub	sp, #12
10009e00:	2a00      	cmp	r2, #0
10009e02:	d06b      	beq.n	10009edc <tu_fifo_write_n+0xf0>
10009e04:	68c0      	ldr	r0, [r0, #12]
10009e06:	2800      	cmp	r0, #0
10009e08:	d003      	beq.n	10009e12 <tu_fifo_write_n+0x26>
10009e0a:	2101      	movs	r1, #1
10009e0c:	4249      	negs	r1, r1
10009e0e:	f000 fb67 	bl	1000a4e0 <__mutex_enter_timeout_ms_veneer>
10009e12:	892f      	ldrh	r7, [r5, #8]
10009e14:	79ea      	ldrb	r2, [r5, #7]
10009e16:	b2bb      	uxth	r3, r7
10009e18:	4698      	mov	r8, r3
10009e1a:	896b      	ldrh	r3, [r5, #10]
10009e1c:	88af      	ldrh	r7, [r5, #4]
10009e1e:	b29b      	uxth	r3, r3
10009e20:	09d2      	lsrs	r2, r2, #7
10009e22:	d13d      	bne.n	10009ea0 <tu_fifo_write_n+0xb4>
10009e24:	4598      	cmp	r8, r3
10009e26:	d262      	bcs.n	10009eee <tu_fifo_write_n+0x102>
10009e28:	007a      	lsls	r2, r7, #1
10009e2a:	1ad3      	subs	r3, r2, r3
10009e2c:	4443      	add	r3, r8
10009e2e:	b29b      	uxth	r3, r3
10009e30:	42bb      	cmp	r3, r7
10009e32:	d261      	bcs.n	10009ef8 <tu_fifo_write_n+0x10c>
10009e34:	1afb      	subs	r3, r7, r3
10009e36:	1c1a      	adds	r2, r3, #0
10009e38:	b29b      	uxth	r3, r3
10009e3a:	42b3      	cmp	r3, r6
10009e3c:	d900      	bls.n	10009e40 <tu_fifo_write_n+0x54>
10009e3e:	1c32      	adds	r2, r6, #0
10009e40:	b296      	uxth	r6, r2
10009e42:	1bf3      	subs	r3, r6, r7
10009e44:	9301      	str	r3, [sp, #4]
10009e46:	4643      	mov	r3, r8
10009e48:	18f3      	adds	r3, r6, r3
10009e4a:	b29b      	uxth	r3, r3
10009e4c:	469b      	mov	fp, r3
10009e4e:	88ea      	ldrh	r2, [r5, #6]
10009e50:	4644      	mov	r4, r8
10009e52:	45b8      	cmp	r8, r7
10009e54:	d303      	bcc.n	10009e5e <tu_fifo_write_n+0x72>
10009e56:	1be4      	subs	r4, r4, r7
10009e58:	b2a4      	uxth	r4, r4
10009e5a:	42bc      	cmp	r4, r7
10009e5c:	d2fb      	bcs.n	10009e56 <tu_fifo_write_n+0x6a>
10009e5e:	0452      	lsls	r2, r2, #17
10009e60:	1b3b      	subs	r3, r7, r4
10009e62:	0c57      	lsrs	r7, r2, #17
10009e64:	003a      	movs	r2, r7
10009e66:	4362      	muls	r2, r4
10009e68:	6828      	ldr	r0, [r5, #0]
10009e6a:	b29b      	uxth	r3, r3
10009e6c:	1880      	adds	r0, r0, r2
10009e6e:	42b3      	cmp	r3, r6
10009e70:	d356      	bcc.n	10009f20 <tu_fifo_write_n+0x134>
10009e72:	003a      	movs	r2, r7
10009e74:	4649      	mov	r1, r9
10009e76:	4372      	muls	r2, r6
10009e78:	f7fb fbbe 	bl	100055f8 <__wrap___aeabi_memcpy>
10009e7c:	88ab      	ldrh	r3, [r5, #4]
10009e7e:	005b      	lsls	r3, r3, #1
10009e80:	45d8      	cmp	r8, fp
10009e82:	d801      	bhi.n	10009e88 <tu_fifo_write_n+0x9c>
10009e84:	459b      	cmp	fp, r3
10009e86:	db02      	blt.n	10009e8e <tu_fifo_write_n+0xa2>
10009e88:	465a      	mov	r2, fp
10009e8a:	1ad3      	subs	r3, r2, r3
10009e8c:	469b      	mov	fp, r3
10009e8e:	465b      	mov	r3, fp
10009e90:	0037      	movs	r7, r6
10009e92:	812b      	strh	r3, [r5, #8]
10009e94:	68e8      	ldr	r0, [r5, #12]
10009e96:	2800      	cmp	r0, #0
10009e98:	d021      	beq.n	10009ede <tu_fifo_write_n+0xf2>
10009e9a:	f000 fb01 	bl	1000a4a0 <__mutex_exit_veneer>
10009e9e:	e01e      	b.n	10009ede <tu_fifo_write_n+0xf2>
10009ea0:	42be      	cmp	r6, r7
10009ea2:	d22b      	bcs.n	10009efc <tu_fifo_write_n+0x110>
10009ea4:	4598      	cmp	r8, r3
10009ea6:	d34c      	bcc.n	10009f42 <tu_fifo_write_n+0x156>
10009ea8:	4642      	mov	r2, r8
10009eaa:	1ad2      	subs	r2, r2, r3
10009eac:	b292      	uxth	r2, r2
10009eae:	0079      	lsls	r1, r7, #1
10009eb0:	1bf0      	subs	r0, r6, r7
10009eb2:	1992      	adds	r2, r2, r6
10009eb4:	9001      	str	r0, [sp, #4]
10009eb6:	428a      	cmp	r2, r1
10009eb8:	dbc5      	blt.n	10009e46 <tu_fifo_write_n+0x5a>
10009eba:	19da      	adds	r2, r3, r7
10009ebc:	b292      	uxth	r2, r2
10009ebe:	4693      	mov	fp, r2
10009ec0:	1b92      	subs	r2, r2, r6
10009ec2:	b292      	uxth	r2, r2
10009ec4:	4690      	mov	r8, r2
10009ec6:	4293      	cmp	r3, r2
10009ec8:	d940      	bls.n	10009f4c <tu_fifo_write_n+0x160>
10009eca:	4643      	mov	r3, r8
10009ecc:	1a59      	subs	r1, r3, r1
10009ece:	b28b      	uxth	r3, r1
10009ed0:	4698      	mov	r8, r3
10009ed2:	18f3      	adds	r3, r6, r3
10009ed4:	b29b      	uxth	r3, r3
10009ed6:	469b      	mov	fp, r3
10009ed8:	88ea      	ldrh	r2, [r5, #6]
10009eda:	e7b9      	b.n	10009e50 <tu_fifo_write_n+0x64>
10009edc:	2700      	movs	r7, #0
10009ede:	0038      	movs	r0, r7
10009ee0:	b003      	add	sp, #12
10009ee2:	bcf0      	pop	{r4, r5, r6, r7}
10009ee4:	46bb      	mov	fp, r7
10009ee6:	46b2      	mov	sl, r6
10009ee8:	46a9      	mov	r9, r5
10009eea:	46a0      	mov	r8, r4
10009eec:	bdf0      	pop	{r4, r5, r6, r7, pc}
10009eee:	4642      	mov	r2, r8
10009ef0:	1ad3      	subs	r3, r2, r3
10009ef2:	b29b      	uxth	r3, r3
10009ef4:	42bb      	cmp	r3, r7
10009ef6:	d39d      	bcc.n	10009e34 <tu_fifo_write_n+0x48>
10009ef8:	2700      	movs	r7, #0
10009efa:	e7cb      	b.n	10009e94 <tu_fifo_write_n+0xa8>
10009efc:	2f00      	cmp	r7, #0
10009efe:	d0c9      	beq.n	10009e94 <tu_fifo_write_n+0xa8>
10009f00:	46cc      	mov	ip, r9
10009f02:	88ea      	ldrh	r2, [r5, #6]
10009f04:	1bf6      	subs	r6, r6, r7
10009f06:	0451      	lsls	r1, r2, #17
10009f08:	0c49      	lsrs	r1, r1, #17
10009f0a:	4371      	muls	r1, r6
10009f0c:	4698      	mov	r8, r3
10009f0e:	448c      	add	ip, r1
10009f10:	19d9      	adds	r1, r3, r7
10009f12:	2300      	movs	r3, #0
10009f14:	b289      	uxth	r1, r1
10009f16:	46e1      	mov	r9, ip
10009f18:	468b      	mov	fp, r1
10009f1a:	003e      	movs	r6, r7
10009f1c:	9301      	str	r3, [sp, #4]
10009f1e:	e797      	b.n	10009e50 <tu_fifo_write_n+0x64>
10009f20:	437b      	muls	r3, r7
10009f22:	b29b      	uxth	r3, r3
10009f24:	001a      	movs	r2, r3
10009f26:	4649      	mov	r1, r9
10009f28:	469a      	mov	sl, r3
10009f2a:	f7fb fb65 	bl	100055f8 <__wrap___aeabi_memcpy>
10009f2e:	4649      	mov	r1, r9
10009f30:	9b01      	ldr	r3, [sp, #4]
10009f32:	6828      	ldr	r0, [r5, #0]
10009f34:	18e2      	adds	r2, r4, r3
10009f36:	437a      	muls	r2, r7
10009f38:	4451      	add	r1, sl
10009f3a:	b292      	uxth	r2, r2
10009f3c:	f7fb fb5c 	bl	100055f8 <__wrap___aeabi_memcpy>
10009f40:	e79c      	b.n	10009e7c <tu_fifo_write_n+0x90>
10009f42:	0079      	lsls	r1, r7, #1
10009f44:	1aca      	subs	r2, r1, r3
10009f46:	4442      	add	r2, r8
10009f48:	b292      	uxth	r2, r2
10009f4a:	e7b1      	b.n	10009eb0 <tu_fifo_write_n+0xc4>
10009f4c:	4291      	cmp	r1, r2
10009f4e:	ddbc      	ble.n	10009eca <tu_fifo_write_n+0xde>
10009f50:	e7c2      	b.n	10009ed8 <tu_fifo_write_n+0xec>
10009f52:	46c0      	nop			@ (mov r8, r8)

10009f54 <tu_fifo_clear>:
10009f54:	b510      	push	{r4, lr}
10009f56:	0004      	movs	r4, r0
10009f58:	68c0      	ldr	r0, [r0, #12]
10009f5a:	2800      	cmp	r0, #0
10009f5c:	d003      	beq.n	10009f66 <tu_fifo_clear+0x12>
10009f5e:	2101      	movs	r1, #1
10009f60:	4249      	negs	r1, r1
10009f62:	f000 fabd 	bl	1000a4e0 <__mutex_enter_timeout_ms_veneer>
10009f66:	6920      	ldr	r0, [r4, #16]
10009f68:	2800      	cmp	r0, #0
10009f6a:	d003      	beq.n	10009f74 <tu_fifo_clear+0x20>
10009f6c:	2101      	movs	r1, #1
10009f6e:	4249      	negs	r1, r1
10009f70:	f000 fab6 	bl	1000a4e0 <__mutex_enter_timeout_ms_veneer>
10009f74:	2300      	movs	r3, #0
10009f76:	68e0      	ldr	r0, [r4, #12]
10009f78:	8163      	strh	r3, [r4, #10]
10009f7a:	8123      	strh	r3, [r4, #8]
10009f7c:	2800      	cmp	r0, #0
10009f7e:	d001      	beq.n	10009f84 <tu_fifo_clear+0x30>
10009f80:	f000 fa8e 	bl	1000a4a0 <__mutex_exit_veneer>
10009f84:	6920      	ldr	r0, [r4, #16]
10009f86:	2800      	cmp	r0, #0
10009f88:	d001      	beq.n	10009f8e <tu_fifo_clear+0x3a>
10009f8a:	f000 fa89 	bl	1000a4a0 <__mutex_exit_veneer>
10009f8e:	2001      	movs	r0, #1
10009f90:	bd10      	pop	{r4, pc}
10009f92:	46c0      	nop			@ (mov r8, r8)

10009f94 <tu_fifo_set_overwritable>:
10009f94:	b570      	push	{r4, r5, r6, lr}
10009f96:	0004      	movs	r4, r0
10009f98:	68c0      	ldr	r0, [r0, #12]
10009f9a:	000d      	movs	r5, r1
10009f9c:	2800      	cmp	r0, #0
10009f9e:	d003      	beq.n	10009fa8 <tu_fifo_set_overwritable+0x14>
10009fa0:	2101      	movs	r1, #1
10009fa2:	4249      	negs	r1, r1
10009fa4:	f000 fa9c 	bl	1000a4e0 <__mutex_enter_timeout_ms_veneer>
10009fa8:	6920      	ldr	r0, [r4, #16]
10009faa:	2800      	cmp	r0, #0
10009fac:	d003      	beq.n	10009fb6 <tu_fifo_set_overwritable+0x22>
10009fae:	2101      	movs	r1, #1
10009fb0:	4249      	negs	r1, r1
10009fb2:	f000 fa95 	bl	1000a4e0 <__mutex_enter_timeout_ms_veneer>
10009fb6:	217f      	movs	r1, #127	@ 0x7f
10009fb8:	79e2      	ldrb	r2, [r4, #7]
10009fba:	01eb      	lsls	r3, r5, #7
10009fbc:	4011      	ands	r1, r2
10009fbe:	68e0      	ldr	r0, [r4, #12]
10009fc0:	4319      	orrs	r1, r3
10009fc2:	71e1      	strb	r1, [r4, #7]
10009fc4:	2800      	cmp	r0, #0
10009fc6:	d001      	beq.n	10009fcc <tu_fifo_set_overwritable+0x38>
10009fc8:	f000 fa6a 	bl	1000a4a0 <__mutex_exit_veneer>
10009fcc:	6920      	ldr	r0, [r4, #16]
10009fce:	2800      	cmp	r0, #0
10009fd0:	d001      	beq.n	10009fd6 <tu_fifo_set_overwritable+0x42>
10009fd2:	f000 fa65 	bl	1000a4a0 <__mutex_exit_veneer>
10009fd6:	2001      	movs	r0, #1
10009fd8:	bd70      	pop	{r4, r5, r6, pc}
10009fda:	46c0      	nop			@ (mov r8, r8)

10009fdc <core1_trampoline>:
10009fdc:	bd03      	pop	{r0, r1, pc}
10009fde:	46c0      	nop			@ (mov r8, r8)

10009fe0 <core1_wrapper>:
10009fe0:	b510      	push	{r4, lr}
10009fe2:	0004      	movs	r4, r0
10009fe4:	f7fa fad2 	bl	1000458c <runtime_run_per_core_initializers>
10009fe8:	47a0      	blx	r4
10009fea:	bd10      	pop	{r4, pc}

10009fec <multicore_launch_core1_raw>:
10009fec:	b5f0      	push	{r4, r5, r6, r7, lr}
10009fee:	46c6      	mov	lr, r8
10009ff0:	b500      	push	{lr}
10009ff2:	0004      	movs	r4, r0
10009ff4:	b086      	sub	sp, #24
10009ff6:	200f      	movs	r0, #15
10009ff8:	000d      	movs	r5, r1
10009ffa:	0017      	movs	r7, r2
10009ffc:	f7f9 f9d6 	bl	100033ac <irq_is_enabled>
1000a000:	2100      	movs	r1, #0
1000a002:	4680      	mov	r8, r0
1000a004:	200f      	movs	r0, #15
1000a006:	f7f9 f9bf 	bl	10003388 <irq_set_enabled>
1000a00a:	2300      	movs	r3, #0
1000a00c:	9300      	str	r3, [sp, #0]
1000a00e:	9301      	str	r3, [sp, #4]
1000a010:	3301      	adds	r3, #1
1000a012:	9302      	str	r3, [sp, #8]
1000a014:	23d0      	movs	r3, #208	@ 0xd0
1000a016:	9504      	str	r5, [sp, #16]
1000a018:	9405      	str	r4, [sp, #20]
1000a01a:	466e      	mov	r6, sp
1000a01c:	2400      	movs	r4, #0
1000a01e:	2500      	movs	r5, #0
1000a020:	2101      	movs	r1, #1
1000a022:	2002      	movs	r0, #2
1000a024:	9703      	str	r7, [sp, #12]
1000a026:	061b      	lsls	r3, r3, #24
1000a028:	2c00      	cmp	r4, #0
1000a02a:	d013      	beq.n	1000a054 <multicore_launch_core1_raw+0x68>
1000a02c:	6d1a      	ldr	r2, [r3, #80]	@ 0x50
1000a02e:	4210      	tst	r0, r2
1000a030:	d0fc      	beq.n	1000a02c <multicore_launch_core1_raw+0x40>
1000a032:	655c      	str	r4, [r3, #84]	@ 0x54
1000a034:	bf40      	sev
1000a036:	6d1a      	ldr	r2, [r3, #80]	@ 0x50
1000a038:	4211      	tst	r1, r2
1000a03a:	d103      	bne.n	1000a044 <multicore_launch_core1_raw+0x58>
1000a03c:	bf20      	wfe
1000a03e:	6d1a      	ldr	r2, [r3, #80]	@ 0x50
1000a040:	4211      	tst	r1, r2
1000a042:	d0fb      	beq.n	1000a03c <multicore_launch_core1_raw+0x50>
1000a044:	6d9a      	ldr	r2, [r3, #88]	@ 0x58
1000a046:	42a2      	cmp	r2, r4
1000a048:	d009      	beq.n	1000a05e <multicore_launch_core1_raw+0x72>
1000a04a:	2500      	movs	r5, #0
1000a04c:	00aa      	lsls	r2, r5, #2
1000a04e:	58b4      	ldr	r4, [r6, r2]
1000a050:	e7ea      	b.n	1000a028 <multicore_launch_core1_raw+0x3c>
1000a052:	6d9a      	ldr	r2, [r3, #88]	@ 0x58
1000a054:	6d1a      	ldr	r2, [r3, #80]	@ 0x50
1000a056:	4211      	tst	r1, r2
1000a058:	d1fb      	bne.n	1000a052 <multicore_launch_core1_raw+0x66>
1000a05a:	bf40      	sev
1000a05c:	e7e6      	b.n	1000a02c <multicore_launch_core1_raw+0x40>
1000a05e:	3501      	adds	r5, #1
1000a060:	2d06      	cmp	r5, #6
1000a062:	d1f3      	bne.n	1000a04c <multicore_launch_core1_raw+0x60>
1000a064:	4641      	mov	r1, r8
1000a066:	200f      	movs	r0, #15
1000a068:	f7f9 f98e 	bl	10003388 <irq_set_enabled>
1000a06c:	b006      	add	sp, #24
1000a06e:	bc80      	pop	{r7}
1000a070:	46b8      	mov	r8, r7
1000a072:	bdf0      	pop	{r4, r5, r6, r7, pc}

1000a074 <multicore_launch_core1>:
1000a074:	4b0e      	ldr	r3, [pc, #56]	@ (1000a0b0 <multicore_launch_core1+0x3c>)
1000a076:	4a0f      	ldr	r2, [pc, #60]	@ (1000a0b4 <multicore_launch_core1+0x40>)
1000a078:	b510      	push	{r4, lr}
1000a07a:	0004      	movs	r4, r0
1000a07c:	4293      	cmp	r3, r2
1000a07e:	d311      	bcc.n	1000a0a4 <multicore_launch_core1+0x30>
1000a080:	4a0d      	ldr	r2, [pc, #52]	@ (1000a0b8 <multicore_launch_core1+0x44>)
1000a082:	1899      	adds	r1, r3, r2
1000a084:	001a      	movs	r2, r3
1000a086:	480d      	ldr	r0, [pc, #52]	@ (1000a0bc <multicore_launch_core1+0x48>)
1000a088:	6880      	ldr	r0, [r0, #8]
1000a08a:	4684      	mov	ip, r0
1000a08c:	480a      	ldr	r0, [pc, #40]	@ (1000a0b8 <multicore_launch_core1+0x44>)
1000a08e:	5014      	str	r4, [r2, r0]
1000a090:	3004      	adds	r0, #4
1000a092:	5013      	str	r3, [r2, r0]
1000a094:	4b0a      	ldr	r3, [pc, #40]	@ (1000a0c0 <multicore_launch_core1+0x4c>)
1000a096:	480b      	ldr	r0, [pc, #44]	@ (1000a0c4 <multicore_launch_core1+0x50>)
1000a098:	5013      	str	r3, [r2, r0]
1000a09a:	4662      	mov	r2, ip
1000a09c:	480a      	ldr	r0, [pc, #40]	@ (1000a0c8 <multicore_launch_core1+0x54>)
1000a09e:	f7ff ffa5 	bl	10009fec <multicore_launch_core1_raw>
1000a0a2:	bd10      	pop	{r4, pc}
1000a0a4:	2301      	movs	r3, #1
1000a0a6:	425b      	negs	r3, r3
1000a0a8:	001a      	movs	r2, r3
1000a0aa:	4908      	ldr	r1, [pc, #32]	@ (1000a0cc <multicore_launch_core1+0x58>)
1000a0ac:	e7eb      	b.n	1000a086 <multicore_launch_core1+0x12>
1000a0ae:	46c0      	nop			@ (mov r8, r8)
1000a0b0:	20040800 	.word	0x20040800
1000a0b4:	20040000 	.word	0x20040000
1000a0b8:	000007f4 	.word	0x000007f4
1000a0bc:	e000ed00 	.word	0xe000ed00
1000a0c0:	10009fe1 	.word	0x10009fe1
1000a0c4:	000007fc 	.word	0x000007fc
1000a0c8:	10009fdd 	.word	0x10009fdd
1000a0cc:	000007f3 	.word	0x000007f3

1000a0d0 <dma_claim_unused_channel>:
1000a0d0:	b500      	push	{lr}
1000a0d2:	4b05      	ldr	r3, [pc, #20]	@ (1000a0e8 <dma_claim_unused_channel+0x18>)
1000a0d4:	b083      	sub	sp, #12
1000a0d6:	0001      	movs	r1, r0
1000a0d8:	9300      	str	r3, [sp, #0]
1000a0da:	2200      	movs	r2, #0
1000a0dc:	230b      	movs	r3, #11
1000a0de:	4803      	ldr	r0, [pc, #12]	@ (1000a0ec <dma_claim_unused_channel+0x1c>)
1000a0e0:	f7f9 f8c0 	bl	10003264 <hw_claim_unused_from_range>
1000a0e4:	b003      	add	sp, #12
1000a0e6:	bd00      	pop	{pc}
1000a0e8:	1000aecc 	.word	0x1000aecc
1000a0ec:	2000f06a 	.word	0x2000f06a

1000a0f0 <pio_claim_unused_sm>:
1000a0f0:	b510      	push	{r4, lr}
1000a0f2:	4b0a      	ldr	r3, [pc, #40]	@ (1000a11c <pio_claim_unused_sm+0x2c>)
1000a0f4:	4a0a      	ldr	r2, [pc, #40]	@ (1000a120 <pio_claim_unused_sm+0x30>)
1000a0f6:	18c4      	adds	r4, r0, r3
1000a0f8:	0d24      	lsrs	r4, r4, #20
1000a0fa:	00a4      	lsls	r4, r4, #2
1000a0fc:	b082      	sub	sp, #8
1000a0fe:	9200      	str	r2, [sp, #0]
1000a100:	4808      	ldr	r0, [pc, #32]	@ (1000a124 <pio_claim_unused_sm+0x34>)
1000a102:	0022      	movs	r2, r4
1000a104:	1ce3      	adds	r3, r4, #3
1000a106:	f7f9 f8ad 	bl	10003264 <hw_claim_unused_from_range>
1000a10a:	4284      	cmp	r4, r0
1000a10c:	dc02      	bgt.n	1000a114 <pio_claim_unused_sm+0x24>
1000a10e:	1b00      	subs	r0, r0, r4
1000a110:	b002      	add	sp, #8
1000a112:	bd10      	pop	{r4, pc}
1000a114:	2001      	movs	r0, #1
1000a116:	4240      	negs	r0, r0
1000a118:	e7fa      	b.n	1000a110 <pio_claim_unused_sm+0x20>
1000a11a:	46c0      	nop			@ (mov r8, r8)
1000a11c:	afe00000 	.word	0xafe00000
1000a120:	1000aeec 	.word	0x1000aeec
1000a124:	20004a6c 	.word	0x20004a6c

1000a128 <pio_add_program>:
1000a128:	b5f0      	push	{r4, r5, r6, r7, lr}
1000a12a:	46de      	mov	lr, fp
1000a12c:	4657      	mov	r7, sl
1000a12e:	464e      	mov	r6, r9
1000a130:	4645      	mov	r5, r8
1000a132:	b5e0      	push	{r5, r6, r7, lr}
1000a134:	000c      	movs	r4, r1
1000a136:	b083      	sub	sp, #12
1000a138:	4680      	mov	r8, r0
1000a13a:	468b      	mov	fp, r1
1000a13c:	2505      	movs	r5, #5
1000a13e:	f7f9 f853 	bl	100031e8 <hw_claim_lock>
1000a142:	2201      	movs	r2, #1
1000a144:	7927      	ldrb	r7, [r4, #4]
1000a146:	0026      	movs	r6, r4
1000a148:	40ba      	lsls	r2, r7
1000a14a:	5765      	ldrsb	r5, [r4, r5]
1000a14c:	2420      	movs	r4, #32
1000a14e:	4b32      	ldr	r3, [pc, #200]	@ (1000a218 <pio_add_program+0xf0>)
1000a150:	4932      	ldr	r1, [pc, #200]	@ (1000a21c <pio_add_program+0xf4>)
1000a152:	4443      	add	r3, r8
1000a154:	0d1b      	lsrs	r3, r3, #20
1000a156:	009b      	lsls	r3, r3, #2
1000a158:	469a      	mov	sl, r3
1000a15a:	4681      	mov	r9, r0
1000a15c:	58cb      	ldr	r3, [r1, r3]
1000a15e:	3a01      	subs	r2, #1
1000a160:	1be4      	subs	r4, r4, r7
1000a162:	2d00      	cmp	r5, #0
1000a164:	db3e      	blt.n	1000a1e4 <pio_add_program+0xbc>
1000a166:	42ac      	cmp	r4, r5
1000a168:	db2f      	blt.n	1000a1ca <pio_add_program+0xa2>
1000a16a:	0010      	movs	r0, r2
1000a16c:	40a8      	lsls	r0, r5
1000a16e:	4203      	tst	r3, r0
1000a170:	d12b      	bne.n	1000a1ca <pio_add_program+0xa2>
1000a172:	79b0      	ldrb	r0, [r6, #6]
1000a174:	2800      	cmp	r0, #0
1000a176:	d14b      	bne.n	1000a210 <pio_add_program+0xe8>
1000a178:	002c      	movs	r4, r5
1000a17a:	6830      	ldr	r0, [r6, #0]
1000a17c:	40aa      	lsls	r2, r5
1000a17e:	0016      	movs	r6, r2
1000a180:	9200      	str	r2, [sp, #0]
1000a182:	401a      	ands	r2, r3
1000a184:	421e      	tst	r6, r3
1000a186:	d140      	bne.n	1000a20a <pio_add_program+0xe2>
1000a188:	2680      	movs	r6, #128	@ 0x80
1000a18a:	01b6      	lsls	r6, r6, #6
1000a18c:	46b4      	mov	ip, r6
1000a18e:	2f00      	cmp	r7, #0
1000a190:	d016      	beq.n	1000a1c0 <pio_add_program+0x98>
1000a192:	46a3      	mov	fp, r4
1000a194:	9101      	str	r1, [sp, #4]
1000a196:	001c      	movs	r4, r3
1000a198:	4641      	mov	r1, r8
1000a19a:	003b      	movs	r3, r7
1000a19c:	002e      	movs	r6, r5
1000a19e:	0007      	movs	r7, r0
1000a1a0:	0010      	movs	r0, r2
1000a1a2:	0042      	lsls	r2, r0, #1
1000a1a4:	5abd      	ldrh	r5, [r7, r2]
1000a1a6:	4565      	cmp	r5, ip
1000a1a8:	d200      	bcs.n	1000a1ac <pio_add_program+0x84>
1000a1aa:	19ad      	adds	r5, r5, r6
1000a1ac:	1832      	adds	r2, r6, r0
1000a1ae:	3212      	adds	r2, #18
1000a1b0:	0092      	lsls	r2, r2, #2
1000a1b2:	3001      	adds	r0, #1
1000a1b4:	5055      	str	r5, [r2, r1]
1000a1b6:	4298      	cmp	r0, r3
1000a1b8:	d3f3      	bcc.n	1000a1a2 <pio_add_program+0x7a>
1000a1ba:	0023      	movs	r3, r4
1000a1bc:	465c      	mov	r4, fp
1000a1be:	9901      	ldr	r1, [sp, #4]
1000a1c0:	9a00      	ldr	r2, [sp, #0]
1000a1c2:	4313      	orrs	r3, r2
1000a1c4:	4652      	mov	r2, sl
1000a1c6:	508b      	str	r3, [r1, r2]
1000a1c8:	e001      	b.n	1000a1ce <pio_add_program+0xa6>
1000a1ca:	2401      	movs	r4, #1
1000a1cc:	4264      	negs	r4, r4
1000a1ce:	4648      	mov	r0, r9
1000a1d0:	f7f9 f816 	bl	10003200 <hw_claim_unlock>
1000a1d4:	0020      	movs	r0, r4
1000a1d6:	b003      	add	sp, #12
1000a1d8:	bcf0      	pop	{r4, r5, r6, r7}
1000a1da:	46bb      	mov	fp, r7
1000a1dc:	46b2      	mov	sl, r6
1000a1de:	46a9      	mov	r9, r5
1000a1e0:	46a0      	mov	r8, r4
1000a1e2:	bdf0      	pop	{r4, r5, r6, r7, pc}
1000a1e4:	2f20      	cmp	r7, #32
1000a1e6:	dc10      	bgt.n	1000a20a <pio_add_program+0xe2>
1000a1e8:	4646      	mov	r6, r8
1000a1ea:	e001      	b.n	1000a1f0 <pio_add_program+0xc8>
1000a1ec:	3c01      	subs	r4, #1
1000a1ee:	d30c      	bcc.n	1000a20a <pio_add_program+0xe2>
1000a1f0:	0010      	movs	r0, r2
1000a1f2:	40a0      	lsls	r0, r4
1000a1f4:	0025      	movs	r5, r4
1000a1f6:	4203      	tst	r3, r0
1000a1f8:	d1f8      	bne.n	1000a1ec <pio_add_program+0xc4>
1000a1fa:	4658      	mov	r0, fp
1000a1fc:	7980      	ldrb	r0, [r0, #6]
1000a1fe:	46b0      	mov	r8, r6
1000a200:	2800      	cmp	r0, #0
1000a202:	d105      	bne.n	1000a210 <pio_add_program+0xe8>
1000a204:	4658      	mov	r0, fp
1000a206:	6800      	ldr	r0, [r0, #0]
1000a208:	e7b8      	b.n	1000a17c <pio_add_program+0x54>
1000a20a:	2409      	movs	r4, #9
1000a20c:	4264      	negs	r4, r4
1000a20e:	e7de      	b.n	1000a1ce <pio_add_program+0xa6>
1000a210:	2414      	movs	r4, #20
1000a212:	4264      	negs	r4, r4
1000a214:	e7db      	b.n	1000a1ce <pio_add_program+0xa6>
1000a216:	46c0      	nop			@ (mov r8, r8)
1000a218:	afe00000 	.word	0xafe00000
1000a21c:	20003124 	.word	0x20003124

1000a220 <pio_sm_set_pins>:
1000a220:	b5f0      	push	{r4, r5, r6, r7, lr}
1000a222:	4657      	mov	r7, sl
1000a224:	464e      	mov	r6, r9
1000a226:	4645      	mov	r5, r8
1000a228:	46de      	mov	lr, fp
1000a22a:	b5e0      	push	{r5, r6, r7, lr}
1000a22c:	0005      	movs	r5, r0
1000a22e:	004b      	lsls	r3, r1, #1
1000a230:	b083      	sub	sp, #12
1000a232:	185b      	adds	r3, r3, r1
1000a234:	9301      	str	r3, [sp, #4]
1000a236:	00db      	lsls	r3, r3, #3
1000a238:	18ee      	adds	r6, r5, r3
1000a23a:	0037      	movs	r7, r6
1000a23c:	37dc      	adds	r7, #220	@ 0xdc
1000a23e:	0010      	movs	r0, r2
1000a240:	683a      	ldr	r2, [r7, #0]
1000a242:	2400      	movs	r4, #0
1000a244:	4692      	mov	sl, r2
1000a246:	0032      	movs	r2, r6
1000a248:	32cc      	adds	r2, #204	@ 0xcc
1000a24a:	6812      	ldr	r2, [r2, #0]
1000a24c:	46a9      	mov	r9, r5
1000a24e:	4693      	mov	fp, r2
1000a250:	4a16      	ldr	r2, [pc, #88]	@ (1000a2ac <pio_sm_set_pins+0x8c>)
1000a252:	18b3      	adds	r3, r6, r2
1000a254:	2280      	movs	r2, #128	@ 0x80
1000a256:	0292      	lsls	r2, r2, #10
1000a258:	601a      	str	r2, [r3, #0]
1000a25a:	221f      	movs	r2, #31
1000a25c:	4690      	mov	r8, r2
1000a25e:	22e0      	movs	r2, #224	@ 0xe0
1000a260:	0212      	lsls	r2, r2, #8
1000a262:	2320      	movs	r3, #32
1000a264:	4694      	mov	ip, r2
1000a266:	36d8      	adds	r6, #216	@ 0xd8
1000a268:	001a      	movs	r2, r3
1000a26a:	2b05      	cmp	r3, #5
1000a26c:	d900      	bls.n	1000a270 <pio_sm_set_pins+0x50>
1000a26e:	2205      	movs	r2, #5
1000a270:	0165      	lsls	r5, r4, #5
1000a272:	0691      	lsls	r1, r2, #26
1000a274:	4329      	orrs	r1, r5
1000a276:	6039      	str	r1, [r7, #0]
1000a278:	4641      	mov	r1, r8
1000a27a:	4665      	mov	r5, ip
1000a27c:	4001      	ands	r1, r0
1000a27e:	4329      	orrs	r1, r5
1000a280:	6031      	str	r1, [r6, #0]
1000a282:	1a9b      	subs	r3, r3, r2
1000a284:	18a4      	adds	r4, r4, r2
1000a286:	0940      	lsrs	r0, r0, #5
1000a288:	2b00      	cmp	r3, #0
1000a28a:	d1ed      	bne.n	1000a268 <pio_sm_set_pins+0x48>
1000a28c:	4653      	mov	r3, sl
1000a28e:	464d      	mov	r5, r9
1000a290:	603b      	str	r3, [r7, #0]
1000a292:	9b01      	ldr	r3, [sp, #4]
1000a294:	00db      	lsls	r3, r3, #3
1000a296:	18ed      	adds	r5, r5, r3
1000a298:	465b      	mov	r3, fp
1000a29a:	35cc      	adds	r5, #204	@ 0xcc
1000a29c:	602b      	str	r3, [r5, #0]
1000a29e:	b003      	add	sp, #12
1000a2a0:	bcf0      	pop	{r4, r5, r6, r7}
1000a2a2:	46bb      	mov	fp, r7
1000a2a4:	46b2      	mov	sl, r6
1000a2a6:	46a9      	mov	r9, r5
1000a2a8:	46a0      	mov	r8, r4
1000a2aa:	bdf0      	pop	{r4, r5, r6, r7, pc}
1000a2ac:	000030cc 	.word	0x000030cc

1000a2b0 <pio_sm_set_consecutive_pindirs>:
1000a2b0:	b5f0      	push	{r4, r5, r6, r7, lr}
1000a2b2:	464e      	mov	r6, r9
1000a2b4:	46de      	mov	lr, fp
1000a2b6:	4657      	mov	r7, sl
1000a2b8:	4645      	mov	r5, r8
1000a2ba:	b5e0      	push	{r5, r6, r7, lr}
1000a2bc:	b083      	sub	sp, #12
1000a2be:	000c      	movs	r4, r1
1000a2c0:	4689      	mov	r9, r1
1000a2c2:	a90c      	add	r1, sp, #48	@ 0x30
1000a2c4:	4684      	mov	ip, r0
1000a2c6:	7808      	ldrb	r0, [r1, #0]
1000a2c8:	2a1f      	cmp	r2, #31
1000a2ca:	d842      	bhi.n	1000a352 <pio_sm_set_consecutive_pindirs+0xa2>
1000a2cc:	0061      	lsls	r1, r4, #1
1000a2ce:	9101      	str	r1, [sp, #4]
1000a2d0:	1909      	adds	r1, r1, r4
1000a2d2:	4664      	mov	r4, ip
1000a2d4:	00c9      	lsls	r1, r1, #3
1000a2d6:	1864      	adds	r4, r4, r1
1000a2d8:	0025      	movs	r5, r4
1000a2da:	35dc      	adds	r5, #220	@ 0xdc
1000a2dc:	682e      	ldr	r6, [r5, #0]
1000a2de:	46b2      	mov	sl, r6
1000a2e0:	0026      	movs	r6, r4
1000a2e2:	36cc      	adds	r6, #204	@ 0xcc
1000a2e4:	6836      	ldr	r6, [r6, #0]
1000a2e6:	46b3      	mov	fp, r6
1000a2e8:	4e1b      	ldr	r6, [pc, #108]	@ (1000a358 <pio_sm_set_consecutive_pindirs+0xa8>)
1000a2ea:	19a1      	adds	r1, r4, r6
1000a2ec:	2680      	movs	r6, #128	@ 0x80
1000a2ee:	02b6      	lsls	r6, r6, #10
1000a2f0:	600e      	str	r6, [r1, #0]
1000a2f2:	1e41      	subs	r1, r0, #1
1000a2f4:	4188      	sbcs	r0, r1
1000a2f6:	4241      	negs	r1, r0
1000a2f8:	201f      	movs	r0, #31
1000a2fa:	4008      	ands	r0, r1
1000a2fc:	4917      	ldr	r1, [pc, #92]	@ (1000a35c <pio_sm_set_consecutive_pindirs+0xac>)
1000a2fe:	1840      	adds	r0, r0, r1
1000a300:	2b05      	cmp	r3, #5
1000a302:	d90c      	bls.n	1000a31e <pio_sm_set_consecutive_pindirs+0x6e>
1000a304:	27a0      	movs	r7, #160	@ 0xa0
1000a306:	261f      	movs	r6, #31
1000a308:	057f      	lsls	r7, r7, #21
1000a30a:	34d8      	adds	r4, #216	@ 0xd8
1000a30c:	0151      	lsls	r1, r2, #5
1000a30e:	4339      	orrs	r1, r7
1000a310:	3205      	adds	r2, #5
1000a312:	3b05      	subs	r3, #5
1000a314:	6029      	str	r1, [r5, #0]
1000a316:	4032      	ands	r2, r6
1000a318:	6020      	str	r0, [r4, #0]
1000a31a:	2b05      	cmp	r3, #5
1000a31c:	d8f6      	bhi.n	1000a30c <pio_sm_set_consecutive_pindirs+0x5c>
1000a31e:	0152      	lsls	r2, r2, #5
1000a320:	069b      	lsls	r3, r3, #26
1000a322:	4313      	orrs	r3, r2
1000a324:	9a01      	ldr	r2, [sp, #4]
1000a326:	444a      	add	r2, r9
1000a328:	00d2      	lsls	r2, r2, #3
1000a32a:	4462      	add	r2, ip
1000a32c:	0011      	movs	r1, r2
1000a32e:	31dc      	adds	r1, #220	@ 0xdc
1000a330:	600b      	str	r3, [r1, #0]
1000a332:	0013      	movs	r3, r2
1000a334:	33d8      	adds	r3, #216	@ 0xd8
1000a336:	6018      	str	r0, [r3, #0]
1000a338:	4653      	mov	r3, sl
1000a33a:	600b      	str	r3, [r1, #0]
1000a33c:	465b      	mov	r3, fp
1000a33e:	2000      	movs	r0, #0
1000a340:	32cc      	adds	r2, #204	@ 0xcc
1000a342:	6013      	str	r3, [r2, #0]
1000a344:	b003      	add	sp, #12
1000a346:	bcf0      	pop	{r4, r5, r6, r7}
1000a348:	46bb      	mov	fp, r7
1000a34a:	46b2      	mov	sl, r6
1000a34c:	46a9      	mov	r9, r5
1000a34e:	46a0      	mov	r8, r4
1000a350:	bdf0      	pop	{r4, r5, r6, r7, pc}
1000a352:	2005      	movs	r0, #5
1000a354:	4240      	negs	r0, r0
1000a356:	e7f5      	b.n	1000a344 <pio_sm_set_consecutive_pindirs+0x94>
1000a358:	000030cc 	.word	0x000030cc
1000a35c:	0000e080 	.word	0x0000e080

1000a360 <pio_sm_init>:
1000a360:	4694      	mov	ip, r2
1000a362:	2201      	movs	r2, #1
1000a364:	408a      	lsls	r2, r1
1000a366:	b570      	push	{r4, r5, r6, lr}
1000a368:	46c6      	mov	lr, r8
1000a36a:	001c      	movs	r4, r3
1000a36c:	6803      	ldr	r3, [r0, #0]
1000a36e:	b500      	push	{lr}
1000a370:	4393      	bics	r3, r2
1000a372:	6003      	str	r3, [r0, #0]
1000a374:	2c00      	cmp	r4, #0
1000a376:	d030      	beq.n	1000a3da <pio_sm_init+0x7a>
1000a378:	004a      	lsls	r2, r1, #1
1000a37a:	1853      	adds	r3, r2, r1
1000a37c:	00db      	lsls	r3, r3, #3
1000a37e:	18c3      	adds	r3, r0, r3
1000a380:	001d      	movs	r5, r3
1000a382:	6826      	ldr	r6, [r4, #0]
1000a384:	35c8      	adds	r5, #200	@ 0xc8
1000a386:	602e      	str	r6, [r5, #0]
1000a388:	68a6      	ldr	r6, [r4, #8]
1000a38a:	3504      	adds	r5, #4
1000a38c:	606e      	str	r6, [r5, #4]
1000a38e:	6866      	ldr	r6, [r4, #4]
1000a390:	68e4      	ldr	r4, [r4, #12]
1000a392:	33dc      	adds	r3, #220	@ 0xdc
1000a394:	602e      	str	r6, [r5, #0]
1000a396:	601c      	str	r4, [r3, #0]
1000a398:	1853      	adds	r3, r2, r1
1000a39a:	00db      	lsls	r3, r3, #3
1000a39c:	4c18      	ldr	r4, [pc, #96]	@ (1000a400 <pio_sm_init+0xa0>)
1000a39e:	18c2      	adds	r2, r0, r3
1000a3a0:	1912      	adds	r2, r2, r4
1000a3a2:	2480      	movs	r4, #128	@ 0x80
1000a3a4:	0624      	lsls	r4, r4, #24
1000a3a6:	6014      	str	r4, [r2, #0]
1000a3a8:	6014      	str	r4, [r2, #0]
1000a3aa:	4a16      	ldr	r2, [pc, #88]	@ (1000a404 <pio_sm_init+0xa4>)
1000a3ac:	1d0c      	adds	r4, r1, #4
1000a3ae:	408a      	lsls	r2, r1
1000a3b0:	6082      	str	r2, [r0, #8]
1000a3b2:	2201      	movs	r2, #1
1000a3b4:	0015      	movs	r5, r2
1000a3b6:	40a5      	lsls	r5, r4
1000a3b8:	2480      	movs	r4, #128	@ 0x80
1000a3ba:	3108      	adds	r1, #8
1000a3bc:	408a      	lsls	r2, r1
1000a3be:	01a4      	lsls	r4, r4, #6
1000a3c0:	1904      	adds	r4, r0, r4
1000a3c2:	6025      	str	r5, [r4, #0]
1000a3c4:	4661      	mov	r1, ip
1000a3c6:	6022      	str	r2, [r4, #0]
1000a3c8:	221f      	movs	r2, #31
1000a3ca:	18c0      	adds	r0, r0, r3
1000a3cc:	400a      	ands	r2, r1
1000a3ce:	30d8      	adds	r0, #216	@ 0xd8
1000a3d0:	6002      	str	r2, [r0, #0]
1000a3d2:	2000      	movs	r0, #0
1000a3d4:	bc40      	pop	{r6}
1000a3d6:	46b0      	mov	r8, r6
1000a3d8:	bd70      	pop	{r4, r5, r6, pc}
1000a3da:	004a      	lsls	r2, r1, #1
1000a3dc:	1853      	adds	r3, r2, r1
1000a3de:	00db      	lsls	r3, r3, #3
1000a3e0:	18c3      	adds	r3, r0, r3
1000a3e2:	001d      	movs	r5, r3
1000a3e4:	2680      	movs	r6, #128	@ 0x80
1000a3e6:	35c8      	adds	r5, #200	@ 0xc8
1000a3e8:	0276      	lsls	r6, r6, #9
1000a3ea:	602e      	str	r6, [r5, #0]
1000a3ec:	26c0      	movs	r6, #192	@ 0xc0
1000a3ee:	0336      	lsls	r6, r6, #12
1000a3f0:	60ae      	str	r6, [r5, #8]
1000a3f2:	26f8      	movs	r6, #248	@ 0xf8
1000a3f4:	3504      	adds	r5, #4
1000a3f6:	0276      	lsls	r6, r6, #9
1000a3f8:	33dc      	adds	r3, #220	@ 0xdc
1000a3fa:	602e      	str	r6, [r5, #0]
1000a3fc:	601c      	str	r4, [r3, #0]
1000a3fe:	e7cb      	b.n	1000a398 <pio_sm_init+0x38>
1000a400:	000010d0 	.word	0x000010d0
1000a404:	01010101 	.word	0x01010101

1000a408 <strlen>:
1000a408:	0003      	movs	r3, r0
1000a40a:	4684      	mov	ip, r0
1000a40c:	079b      	lsls	r3, r3, #30
1000a40e:	d00b      	beq.n	1000a428 <strlen+0x20>
1000a410:	0003      	movs	r3, r0
1000a412:	2103      	movs	r1, #3
1000a414:	e002      	b.n	1000a41c <strlen+0x14>
1000a416:	3301      	adds	r3, #1
1000a418:	420b      	tst	r3, r1
1000a41a:	d006      	beq.n	1000a42a <strlen+0x22>
1000a41c:	781a      	ldrb	r2, [r3, #0]
1000a41e:	2a00      	cmp	r2, #0
1000a420:	d1f9      	bne.n	1000a416 <strlen+0xe>
1000a422:	4662      	mov	r2, ip
1000a424:	1a98      	subs	r0, r3, r2
1000a426:	4770      	bx	lr
1000a428:	0003      	movs	r3, r0
1000a42a:	6819      	ldr	r1, [r3, #0]
1000a42c:	4a0c      	ldr	r2, [pc, #48]	@ (1000a460 <strlen+0x58>)
1000a42e:	480d      	ldr	r0, [pc, #52]	@ (1000a464 <strlen+0x5c>)
1000a430:	188a      	adds	r2, r1, r2
1000a432:	438a      	bics	r2, r1
1000a434:	4202      	tst	r2, r0
1000a436:	d10f      	bne.n	1000a458 <strlen+0x50>
1000a438:	6859      	ldr	r1, [r3, #4]
1000a43a:	4a09      	ldr	r2, [pc, #36]	@ (1000a460 <strlen+0x58>)
1000a43c:	3304      	adds	r3, #4
1000a43e:	188a      	adds	r2, r1, r2
1000a440:	438a      	bics	r2, r1
1000a442:	4202      	tst	r2, r0
1000a444:	d108      	bne.n	1000a458 <strlen+0x50>
1000a446:	6859      	ldr	r1, [r3, #4]
1000a448:	4a05      	ldr	r2, [pc, #20]	@ (1000a460 <strlen+0x58>)
1000a44a:	3304      	adds	r3, #4
1000a44c:	188a      	adds	r2, r1, r2
1000a44e:	438a      	bics	r2, r1
1000a450:	4202      	tst	r2, r0
1000a452:	d0f1      	beq.n	1000a438 <strlen+0x30>
1000a454:	e000      	b.n	1000a458 <strlen+0x50>
1000a456:	3301      	adds	r3, #1
1000a458:	781a      	ldrb	r2, [r3, #0]
1000a45a:	2a00      	cmp	r2, #0
1000a45c:	d1fb      	bne.n	1000a456 <strlen+0x4e>
1000a45e:	e7e0      	b.n	1000a422 <strlen+0x1a>
1000a460:	fefefeff 	.word	0xfefefeff
1000a464:	80808080 	.word	0x80808080

1000a468 <_fini>:
1000a468:	b5f8      	push	{r3, r4, r5, r6, r7, lr}
1000a46a:	46c0      	nop			@ (mov r8, r8)
1000a46c:	0000      	movs	r0, r0
	...

1000a470 <__reset_non_control_endpoints_veneer>:
1000a470:	b401      	push	{r0}
1000a472:	4802      	ldr	r0, [pc, #8]	@ (1000a47c <__reset_non_control_endpoints_veneer+0xc>)
1000a474:	4684      	mov	ip, r0
1000a476:	bc01      	pop	{r0}
1000a478:	4760      	bx	ip
1000a47a:	bf00      	nop
1000a47c:	200003e5 	.word	0x200003e5

1000a480 <__e15_is_critical_frame_period_veneer>:
1000a480:	b401      	push	{r0}
1000a482:	4802      	ldr	r0, [pc, #8]	@ (1000a48c <__e15_is_critical_frame_period_veneer+0xc>)
1000a484:	4684      	mov	ip, r0
1000a486:	bc01      	pop	{r0}
1000a488:	4760      	bx	ip
1000a48a:	bf00      	nop
1000a48c:	20000bc5 	.word	0x20000bc5

1000a490 <__flash_do_cmd_veneer>:
1000a490:	b401      	push	{r0}
1000a492:	4802      	ldr	r0, [pc, #8]	@ (1000a49c <__flash_do_cmd_veneer+0xc>)
1000a494:	4684      	mov	ip, r0
1000a496:	bc01      	pop	{r0}
1000a498:	4760      	bx	ip
1000a49a:	bf00      	nop
1000a49c:	200002c1 	.word	0x200002c1

1000a4a0 <__mutex_exit_veneer>:
1000a4a0:	b401      	push	{r0}
1000a4a2:	4802      	ldr	r0, [pc, #8]	@ (1000a4ac <__mutex_exit_veneer+0xc>)
1000a4a4:	4684      	mov	ip, r0
1000a4a6:	bc01      	pop	{r0}
1000a4a8:	4760      	bx	ip
1000a4aa:	bf00      	nop
1000a4ac:	200001e5 	.word	0x200001e5

1000a4b0 <____aeabi_ldiv0_veneer>:
1000a4b0:	b401      	push	{r0}
1000a4b2:	4802      	ldr	r0, [pc, #8]	@ (1000a4bc <____aeabi_ldiv0_veneer+0xc>)
1000a4b4:	4684      	mov	ip, r0
1000a4b6:	bc01      	pop	{r0}
1000a4b8:	4760      	bx	ip
1000a4ba:	bf00      	nop
1000a4bc:	20000f15 	.word	0x20000f15

1000a4c0 <__e15_is_bulkin_ep_veneer>:
1000a4c0:	b401      	push	{r0}
1000a4c2:	4802      	ldr	r0, [pc, #8]	@ (1000a4cc <__e15_is_bulkin_ep_veneer+0xc>)
1000a4c4:	4684      	mov	ip, r0
1000a4c6:	bc01      	pop	{r0}
1000a4c8:	4760      	bx	ip
1000a4ca:	bf00      	nop
1000a4cc:	20000b9d 	.word	0x20000b9d

1000a4d0 <____aeabi_idiv0_veneer>:
1000a4d0:	b401      	push	{r0}
1000a4d2:	4802      	ldr	r0, [pc, #8]	@ (1000a4dc <____aeabi_idiv0_veneer+0xc>)
1000a4d4:	4684      	mov	ip, r0
1000a4d6:	bc01      	pop	{r0}
1000a4d8:	4760      	bx	ip
1000a4da:	bf00      	nop
1000a4dc:	20000f15 	.word	0x20000f15

1000a4e0 <__mutex_enter_timeout_ms_veneer>:
1000a4e0:	b401      	push	{r0}
1000a4e2:	4802      	ldr	r0, [pc, #8]	@ (1000a4ec <__mutex_enter_timeout_ms_veneer+0xc>)
1000a4e4:	4684      	mov	ip, r0
1000a4e6:	bc01      	pop	{r0}
1000a4e8:	4760      	bx	ip
1000a4ea:	bf00      	nop
1000a4ec:	20000159 	.word	0x20000159

1000a4f0 <__mutex_try_enter_block_until_veneer>:
1000a4f0:	b401      	push	{r0}
1000a4f2:	4802      	ldr	r0, [pc, #8]	@ (1000a4fc <__mutex_try_enter_block_until_veneer+0xc>)
1000a4f4:	4684      	mov	ip, r0
1000a4f6:	bc01      	pop	{r0}
1000a4f8:	4760      	bx	ip
1000a4fa:	bf00      	nop
1000a4fc:	200000c1 	.word	0x200000c1

1000a500 <__hw_endpoint_start_next_buffer_veneer>:
1000a500:	b401      	push	{r0}
1000a502:	4802      	ldr	r0, [pc, #8]	@ (1000a50c <__hw_endpoint_start_next_buffer_veneer+0xc>)
1000a504:	4684      	mov	ip, r0
1000a506:	bc01      	pop	{r0}
1000a508:	4760      	bx	ip
1000a50a:	bf00      	nop
1000a50c:	20000c51 	.word	0x20000c51

1000a510 <___hw_endpoint_buffer_control_update32_veneer>:
1000a510:	b401      	push	{r0}
1000a512:	4802      	ldr	r0, [pc, #8]	@ (1000a51c <___hw_endpoint_buffer_control_update32_veneer+0xc>)
1000a514:	4684      	mov	ip, r0
1000a516:	bc01      	pop	{r0}
1000a518:	4760      	bx	ip
1000a51a:	bf00      	nop
1000a51c:	20000c01 	.word	0x20000c01

1000a520 <__pre_init_runtime_init_early_resets>:
1000a520:	100045b5                                .E..

1000a524 <__pre_init_runtime_init_usb_power_down>:
1000a524:	100045e1 100047c9 100055dd 10004e6d     .E...G...U..mN..
1000a534:	10005549                                IU..

1000a538 <__pre_init_runtime_init_clocks>:
1000a538:	100046f1                                .F..

1000a53c <__pre_init_runtime_init_post_clock_resets>:
1000a53c:	100045fd                                .E..

1000a540 <__pre_init_runtime_init_rp2040_gpio_ie_disable>:
1000a540:	1000461d                                .F..

1000a544 <__pre_init_runtime_init_spin_locks_reset>:
1000a544:	10004631                                1F..

1000a548 <__pre_init_runtime_init_mutex>:
1000a548:	10003871                                q8..

1000a54c <__pre_init_runtime_init_install_ram_vector_table>:
1000a54c:	10004639                                9F..

1000a550 <__pre_init_runtime_init_default_alarm_pool>:
1000a550:	10003c1d                                .<..

1000a554 <__pre_init_first_per_core_initializer>:
1000a554:	10004555                                UE..

1000a558 <__pre_init_runtime_init_per_core_irq_priorities>:
1000a558:	10003341                                A3..

1000a55c <__init_array_start>:
1000a55c:	1000748d 	.word	0x1000748d

1000a560 <__frame_dummy_init_array_entry>:
1000a560:	100002b1                                ....

Disassembly of section .data:

200000c0 <mutex_try_enter_block_until>:
200000c0:	b5f0      	push	{r4, r5, r6, r7, lr}
200000c2:	46c6      	mov	lr, r8
200000c4:	0016      	movs	r6, r2
200000c6:	b500      	push	{lr}
200000c8:	0004      	movs	r4, r0
200000ca:	001f      	movs	r7, r3
200000cc:	6802      	ldr	r2, [r0, #0]
200000ce:	f3ef 8110 	mrs	r1, PRIMASK
200000d2:	b672      	cpsid	i
200000d4:	6813      	ldr	r3, [r2, #0]
200000d6:	2b00      	cmp	r3, #0
200000d8:	d0fc      	beq.n	200000d4 <mutex_try_enter_block_until+0x14>
200000da:	f3bf 8f5f 	dmb	sy
200000de:	2304      	movs	r3, #4
200000e0:	56e3      	ldrsb	r3, [r4, r3]
200000e2:	6822      	ldr	r2, [r4, #0]
200000e4:	2b00      	cmp	r3, #0
200000e6:	db2b      	blt.n	20000140 <mutex_try_enter_block_until+0x80>
200000e8:	f3bf 8f5f 	dmb	sy
200000ec:	2000      	movs	r0, #0
200000ee:	6010      	str	r0, [r2, #0]
200000f0:	f381 8810 	msr	PRIMASK, r1
200000f4:	22d0      	movs	r2, #208	@ 0xd0
200000f6:	0612      	lsls	r2, r2, #24
200000f8:	7812      	ldrb	r2, [r2, #0]
200000fa:	2500      	movs	r5, #0
200000fc:	b252      	sxtb	r2, r2
200000fe:	4690      	mov	r8, r2
20000100:	429a      	cmp	r2, r3
20000102:	d10e      	bne.n	20000122 <mutex_try_enter_block_until+0x62>
20000104:	2000      	movs	r0, #0
20000106:	bc80      	pop	{r7}
20000108:	46b8      	mov	r8, r7
2000010a:	bdf0      	pop	{r4, r5, r6, r7, pc}
2000010c:	f3bf 8f5f 	dmb	sy
20000110:	6015      	str	r5, [r2, #0]
20000112:	f381 8810 	msr	PRIMASK, r1
20000116:	0030      	movs	r0, r6
20000118:	0039      	movs	r1, r7
2000011a:	f000 ff1d 	bl	20000f58 <__best_effort_wfe_or_timeout_veneer>
2000011e:	2800      	cmp	r0, #0
20000120:	d1f0      	bne.n	20000104 <mutex_try_enter_block_until+0x44>
20000122:	6822      	ldr	r2, [r4, #0]
20000124:	f3ef 8110 	mrs	r1, PRIMASK
20000128:	b672      	cpsid	i
2000012a:	6813      	ldr	r3, [r2, #0]
2000012c:	2b00      	cmp	r3, #0
2000012e:	d0fc      	beq.n	2000012a <mutex_try_enter_block_until+0x6a>
20000130:	f3bf 8f5f 	dmb	sy
20000134:	7923      	ldrb	r3, [r4, #4]
20000136:	6822      	ldr	r2, [r4, #0]
20000138:	2b7f      	cmp	r3, #127	@ 0x7f
2000013a:	d9e7      	bls.n	2000010c <mutex_try_enter_block_until+0x4c>
2000013c:	4643      	mov	r3, r8
2000013e:	e002      	b.n	20000146 <mutex_try_enter_block_until+0x86>
20000140:	23d0      	movs	r3, #208	@ 0xd0
20000142:	061b      	lsls	r3, r3, #24
20000144:	681b      	ldr	r3, [r3, #0]
20000146:	7123      	strb	r3, [r4, #4]
20000148:	f3bf 8f5f 	dmb	sy
2000014c:	2300      	movs	r3, #0
2000014e:	6013      	str	r3, [r2, #0]
20000150:	f381 8810 	msr	PRIMASK, r1
20000154:	2001      	movs	r0, #1
20000156:	e7d6      	b.n	20000106 <mutex_try_enter_block_until+0x46>

20000158 <mutex_enter_timeout_ms>:
20000158:	b5f0      	push	{r4, r5, r6, r7, lr}
2000015a:	46c6      	mov	lr, r8
2000015c:	b500      	push	{lr}
2000015e:	000f      	movs	r7, r1
20000160:	0004      	movs	r4, r0
20000162:	f000 ff11 	bl	20000f88 <__time_us_64_veneer>
20000166:	22fa      	movs	r2, #250	@ 0xfa
20000168:	000e      	movs	r6, r1
2000016a:	0005      	movs	r5, r0
2000016c:	2300      	movs	r3, #0
2000016e:	0038      	movs	r0, r7
20000170:	2100      	movs	r1, #0
20000172:	0092      	lsls	r2, r2, #2
20000174:	f000 fed8 	bl	20000f28 <____wrap___aeabi_lmul_veneer>
20000178:	1940      	adds	r0, r0, r5
2000017a:	4171      	adcs	r1, r6
2000017c:	0006      	movs	r6, r0
2000017e:	1e0f      	subs	r7, r1, #0
20000180:	da02      	bge.n	20000188 <mutex_enter_timeout_ms+0x30>
20000182:	2601      	movs	r6, #1
20000184:	4f16      	ldr	r7, [pc, #88]	@ (200001e0 <mutex_enter_timeout_ms+0x88>)
20000186:	4276      	negs	r6, r6
20000188:	23d0      	movs	r3, #208	@ 0xd0
2000018a:	061b      	lsls	r3, r3, #24
2000018c:	681b      	ldr	r3, [r3, #0]
2000018e:	2500      	movs	r5, #0
20000190:	4698      	mov	r8, r3
20000192:	e00a      	b.n	200001aa <mutex_enter_timeout_ms+0x52>
20000194:	f3bf 8f5f 	dmb	sy
20000198:	6015      	str	r5, [r2, #0]
2000019a:	f381 8810 	msr	PRIMASK, r1
2000019e:	0030      	movs	r0, r6
200001a0:	0039      	movs	r1, r7
200001a2:	f000 fed9 	bl	20000f58 <__best_effort_wfe_or_timeout_veneer>
200001a6:	2800      	cmp	r0, #0
200001a8:	d118      	bne.n	200001dc <mutex_enter_timeout_ms+0x84>
200001aa:	6822      	ldr	r2, [r4, #0]
200001ac:	f3ef 8110 	mrs	r1, PRIMASK
200001b0:	b672      	cpsid	i
200001b2:	6813      	ldr	r3, [r2, #0]
200001b4:	2b00      	cmp	r3, #0
200001b6:	d0fc      	beq.n	200001b2 <mutex_enter_timeout_ms+0x5a>
200001b8:	f3bf 8f5f 	dmb	sy
200001bc:	7923      	ldrb	r3, [r4, #4]
200001be:	6822      	ldr	r2, [r4, #0]
200001c0:	2b7f      	cmp	r3, #127	@ 0x7f
200001c2:	d9e7      	bls.n	20000194 <mutex_enter_timeout_ms+0x3c>
200001c4:	4643      	mov	r3, r8
200001c6:	7123      	strb	r3, [r4, #4]
200001c8:	f3bf 8f5f 	dmb	sy
200001cc:	2300      	movs	r3, #0
200001ce:	6013      	str	r3, [r2, #0]
200001d0:	f381 8810 	msr	PRIMASK, r1
200001d4:	2001      	movs	r0, #1
200001d6:	bc80      	pop	{r7}
200001d8:	46b8      	mov	r8, r7
200001da:	bdf0      	pop	{r4, r5, r6, r7, pc}
200001dc:	2000      	movs	r0, #0
200001de:	e7fa      	b.n	200001d6 <mutex_enter_timeout_ms+0x7e>
200001e0:	7fffffff 	.word	0x7fffffff

200001e4 <mutex_exit>:
200001e4:	6802      	ldr	r2, [r0, #0]
200001e6:	f3ef 8110 	mrs	r1, PRIMASK
200001ea:	b672      	cpsid	i
200001ec:	6813      	ldr	r3, [r2, #0]
200001ee:	2b00      	cmp	r3, #0
200001f0:	d0fc      	beq.n	200001ec <mutex_exit+0x8>
200001f2:	f3bf 8f5f 	dmb	sy
200001f6:	23ff      	movs	r3, #255	@ 0xff
200001f8:	7103      	strb	r3, [r0, #4]
200001fa:	6803      	ldr	r3, [r0, #0]
200001fc:	f3bf 8f5f 	dmb	sy
20000200:	2200      	movs	r2, #0
20000202:	601a      	str	r2, [r3, #0]
20000204:	f381 8810 	msr	PRIMASK, r1
20000208:	bf40      	sev
2000020a:	4770      	bx	lr

2000020c <flash_init_boot2_copyout>:
2000020c:	4b08      	ldr	r3, [pc, #32]	@ (20000230 <flash_init_boot2_copyout+0x24>)
2000020e:	469c      	mov	ip, r3
20000210:	781b      	ldrb	r3, [r3, #0]
20000212:	2b00      	cmp	r3, #0
20000214:	d10b      	bne.n	2000022e <flash_init_boot2_copyout+0x22>
20000216:	2380      	movs	r3, #128	@ 0x80
20000218:	4806      	ldr	r0, [pc, #24]	@ (20000234 <flash_init_boot2_copyout+0x28>)
2000021a:	4907      	ldr	r1, [pc, #28]	@ (20000238 <flash_init_boot2_copyout+0x2c>)
2000021c:	055b      	lsls	r3, r3, #21
2000021e:	681a      	ldr	r2, [r3, #0]
20000220:	50c2      	str	r2, [r0, r3]
20000222:	3304      	adds	r3, #4
20000224:	428b      	cmp	r3, r1
20000226:	d1fa      	bne.n	2000021e <flash_init_boot2_copyout+0x12>
20000228:	2301      	movs	r3, #1
2000022a:	4662      	mov	r2, ip
2000022c:	7013      	strb	r3, [r2, #0]
2000022e:	4770      	bx	lr
20000230:	2000f070 	.word	0x2000f070
20000234:	10003934 	.word	0x10003934
20000238:	10000100 	.word	0x10000100

2000023c <flash_enable_xip_via_boot2>:
2000023c:	b510      	push	{r4, lr}
2000023e:	4b01      	ldr	r3, [pc, #4]	@ (20000244 <flash_enable_xip_via_boot2+0x8>)
20000240:	4798      	blx	r3
20000242:	bd10      	pop	{r4, pc}
20000244:	20003935 	.word	0x20003935

20000248 <flash_save_hardware_state>:
20000248:	4b06      	ldr	r3, [pc, #24]	@ (20000264 <flash_save_hardware_state+0x1c>)
2000024a:	685a      	ldr	r2, [r3, #4]
2000024c:	6002      	str	r2, [r0, #0]
2000024e:	689a      	ldr	r2, [r3, #8]
20000250:	6042      	str	r2, [r0, #4]
20000252:	68da      	ldr	r2, [r3, #12]
20000254:	6082      	str	r2, [r0, #8]
20000256:	691a      	ldr	r2, [r3, #16]
20000258:	60c2      	str	r2, [r0, #12]
2000025a:	695a      	ldr	r2, [r3, #20]
2000025c:	6102      	str	r2, [r0, #16]
2000025e:	699b      	ldr	r3, [r3, #24]
20000260:	6143      	str	r3, [r0, #20]
20000262:	4770      	bx	lr
20000264:	40020000 	.word	0x40020000

20000268 <flash_restore_hardware_state>:
20000268:	6802      	ldr	r2, [r0, #0]
2000026a:	4b06      	ldr	r3, [pc, #24]	@ (20000284 <flash_restore_hardware_state+0x1c>)
2000026c:	605a      	str	r2, [r3, #4]
2000026e:	6842      	ldr	r2, [r0, #4]
20000270:	609a      	str	r2, [r3, #8]
20000272:	6882      	ldr	r2, [r0, #8]
20000274:	60da      	str	r2, [r3, #12]
20000276:	68c2      	ldr	r2, [r0, #12]
20000278:	611a      	str	r2, [r3, #16]
2000027a:	6902      	ldr	r2, [r0, #16]
2000027c:	615a      	str	r2, [r3, #20]
2000027e:	6942      	ldr	r2, [r0, #20]
20000280:	619a      	str	r2, [r3, #24]
20000282:	4770      	bx	lr
20000284:	40020000 	.word	0x40020000

20000288 <flash_cs_force.constprop.0>:
20000288:	4b03      	ldr	r3, [pc, #12]	@ (20000298 <flash_cs_force.constprop.0+0x10>)
2000028a:	681a      	ldr	r2, [r3, #0]
2000028c:	23c0      	movs	r3, #192	@ 0xc0
2000028e:	009b      	lsls	r3, r3, #2
20000290:	4393      	bics	r3, r2
20000292:	4a02      	ldr	r2, [pc, #8]	@ (2000029c <flash_cs_force.constprop.0+0x14>)
20000294:	6013      	str	r3, [r2, #0]
20000296:	4770      	bx	lr
20000298:	4001800c 	.word	0x4001800c
2000029c:	4001900c 	.word	0x4001900c

200002a0 <flash_cs_force.constprop.1>:
200002a0:	4b05      	ldr	r3, [pc, #20]	@ (200002b8 <flash_cs_force.constprop.1+0x18>)
200002a2:	681a      	ldr	r2, [r3, #0]
200002a4:	2380      	movs	r3, #128	@ 0x80
200002a6:	009b      	lsls	r3, r3, #2
200002a8:	4053      	eors	r3, r2
200002aa:	22c0      	movs	r2, #192	@ 0xc0
200002ac:	0092      	lsls	r2, r2, #2
200002ae:	4013      	ands	r3, r2
200002b0:	4a02      	ldr	r2, [pc, #8]	@ (200002bc <flash_cs_force.constprop.1+0x1c>)
200002b2:	6013      	str	r3, [r2, #0]
200002b4:	4770      	bx	lr
200002b6:	46c0      	nop			@ (mov r8, r8)
200002b8:	4001800c 	.word	0x4001800c
200002bc:	4001900c 	.word	0x4001900c

200002c0 <flash_do_cmd>:
200002c0:	b5f0      	push	{r4, r5, r6, r7, lr}
200002c2:	46d6      	mov	lr, sl
200002c4:	464f      	mov	r7, r9
200002c6:	4646      	mov	r6, r8
200002c8:	2300      	movs	r3, #0
200002ca:	b5c0      	push	{r6, r7, lr}
200002cc:	2718      	movs	r7, #24
200002ce:	b086      	sub	sp, #24
200002d0:	001e      	movs	r6, r3
200002d2:	4681      	mov	r9, r0
200002d4:	000d      	movs	r5, r1
200002d6:	8a98      	ldrh	r0, [r3, #20]
200002d8:	493f      	ldr	r1, [pc, #252]	@ (200003d8 <flash_do_cmd+0x118>)
200002da:	883b      	ldrh	r3, [r7, #0]
200002dc:	0014      	movs	r4, r2
200002de:	4798      	blx	r3
200002e0:	883b      	ldrh	r3, [r7, #0]
200002e2:	4680      	mov	r8, r0
200002e4:	493d      	ldr	r1, [pc, #244]	@ (200003dc <flash_do_cmd+0x11c>)
200002e6:	8ab0      	ldrh	r0, [r6, #20]
200002e8:	4798      	blx	r3
200002ea:	2300      	movs	r3, #0
200002ec:	493c      	ldr	r1, [pc, #240]	@ (200003e0 <flash_do_cmd+0x120>)
200002ee:	0006      	movs	r6, r0
200002f0:	8a98      	ldrh	r0, [r3, #20]
200002f2:	883b      	ldrh	r3, [r7, #0]
200002f4:	4798      	blx	r3
200002f6:	4682      	mov	sl, r0
200002f8:	f7ff ff88 	bl	2000020c <flash_init_boot2_copyout>
200002fc:	4668      	mov	r0, sp
200002fe:	f7ff ffa3 	bl	20000248 <flash_save_hardware_state>
20000302:	47c0      	blx	r8
20000304:	47b0      	blx	r6
20000306:	f7ff ffcb 	bl	200002a0 <flash_cs_force.constprop.1>
2000030a:	1e21      	subs	r1, r4, #0
2000030c:	d01c      	beq.n	20000348 <flash_do_cmd+0x88>
2000030e:	2308      	movs	r3, #8
20000310:	20c0      	movs	r0, #192	@ 0xc0
20000312:	469c      	mov	ip, r3
20000314:	0540      	lsls	r0, r0, #21
20000316:	3f16      	subs	r7, #22
20000318:	4662      	mov	r2, ip
2000031a:	6a83      	ldr	r3, [r0, #40]	@ 0x28
2000031c:	401a      	ands	r2, r3
2000031e:	421f      	tst	r7, r3
20000320:	d034      	beq.n	2000038c <flash_do_cmd+0xcc>
20000322:	1a63      	subs	r3, r4, r1
20000324:	2900      	cmp	r1, #0
20000326:	d126      	bne.n	20000376 <flash_do_cmd+0xb6>
20000328:	2a00      	cmp	r2, #0
2000032a:	d10b      	bne.n	20000344 <flash_do_cmd+0x84>
2000032c:	2c00      	cmp	r4, #0
2000032e:	d00b      	beq.n	20000348 <flash_do_cmd+0x88>
20000330:	23c0      	movs	r3, #192	@ 0xc0
20000332:	2208      	movs	r2, #8
20000334:	2602      	movs	r6, #2
20000336:	055b      	lsls	r3, r3, #21
20000338:	6a9b      	ldr	r3, [r3, #40]	@ 0x28
2000033a:	401a      	ands	r2, r3
2000033c:	421e      	tst	r6, r3
2000033e:	d03d      	beq.n	200003bc <flash_do_cmd+0xfc>
20000340:	2a00      	cmp	r2, #0
20000342:	d0f5      	beq.n	20000330 <flash_do_cmd+0x70>
20000344:	2c00      	cmp	r4, #0
20000346:	d12b      	bne.n	200003a0 <flash_do_cmd+0xe0>
20000348:	f7ff ff9e 	bl	20000288 <flash_cs_force.constprop.0>
2000034c:	47d0      	blx	sl
2000034e:	f7ff ff75 	bl	2000023c <flash_enable_xip_via_boot2>
20000352:	4668      	mov	r0, sp
20000354:	f7ff ff88 	bl	20000268 <flash_restore_hardware_state>
20000358:	b006      	add	sp, #24
2000035a:	bce0      	pop	{r5, r6, r7}
2000035c:	46ba      	mov	sl, r7
2000035e:	46b1      	mov	r9, r6
20000360:	46a8      	mov	r8, r5
20000362:	bdf0      	pop	{r4, r5, r6, r7, pc}
20000364:	2c00      	cmp	r4, #0
20000366:	d12b      	bne.n	200003c0 <flash_do_cmd+0x100>
20000368:	22c0      	movs	r2, #192	@ 0xc0
2000036a:	0552      	lsls	r2, r2, #21
2000036c:	6a96      	ldr	r6, [r2, #40]	@ 0x28
2000036e:	2208      	movs	r2, #8
20000370:	4032      	ands	r2, r6
20000372:	07b6      	lsls	r6, r6, #30
20000374:	d52b      	bpl.n	200003ce <flash_do_cmd+0x10e>
20000376:	2b0d      	cmp	r3, #13
20000378:	d919      	bls.n	200003ae <flash_do_cmd+0xee>
2000037a:	2a00      	cmp	r2, #0
2000037c:	d1f2      	bne.n	20000364 <flash_do_cmd+0xa4>
2000037e:	22c0      	movs	r2, #192	@ 0xc0
20000380:	0552      	lsls	r2, r2, #21
20000382:	6a96      	ldr	r6, [r2, #40]	@ 0x28
20000384:	2208      	movs	r2, #8
20000386:	4032      	ands	r2, r6
20000388:	07b6      	lsls	r6, r6, #30
2000038a:	d4f4      	bmi.n	20000376 <flash_do_cmd+0xb6>
2000038c:	2a00      	cmp	r2, #0
2000038e:	d104      	bne.n	2000039a <flash_do_cmd+0xda>
20000390:	000b      	movs	r3, r1
20000392:	4323      	orrs	r3, r4
20000394:	2b00      	cmp	r3, #0
20000396:	d1bf      	bne.n	20000318 <flash_do_cmd+0x58>
20000398:	e7d6      	b.n	20000348 <flash_do_cmd+0x88>
2000039a:	000b      	movs	r3, r1
2000039c:	2c00      	cmp	r4, #0
2000039e:	d0f9      	beq.n	20000394 <flash_do_cmd+0xd4>
200003a0:	6e03      	ldr	r3, [r0, #96]	@ 0x60
200003a2:	3c01      	subs	r4, #1
200003a4:	702b      	strb	r3, [r5, #0]
200003a6:	0023      	movs	r3, r4
200003a8:	3501      	adds	r5, #1
200003aa:	430b      	orrs	r3, r1
200003ac:	e7f2      	b.n	20000394 <flash_do_cmd+0xd4>
200003ae:	464b      	mov	r3, r9
200003b0:	781b      	ldrb	r3, [r3, #0]
200003b2:	3901      	subs	r1, #1
200003b4:	6603      	str	r3, [r0, #96]	@ 0x60
200003b6:	2301      	movs	r3, #1
200003b8:	4499      	add	r9, r3
200003ba:	e7e7      	b.n	2000038c <flash_do_cmd+0xcc>
200003bc:	2100      	movs	r1, #0
200003be:	e7e5      	b.n	2000038c <flash_do_cmd+0xcc>
200003c0:	23c0      	movs	r3, #192	@ 0xc0
200003c2:	055b      	lsls	r3, r3, #21
200003c4:	6e1b      	ldr	r3, [r3, #96]	@ 0x60
200003c6:	3c01      	subs	r4, #1
200003c8:	702b      	strb	r3, [r5, #0]
200003ca:	3501      	adds	r5, #1
200003cc:	e7a4      	b.n	20000318 <flash_do_cmd+0x58>
200003ce:	000b      	movs	r3, r1
200003d0:	42a2      	cmp	r2, r4
200003d2:	d1df      	bne.n	20000394 <flash_do_cmd+0xd4>
200003d4:	e7dc      	b.n	20000390 <flash_do_cmd+0xd0>
200003d6:	46c0      	nop			@ (mov r8, r8)
200003d8:	00004649 	.word	0x00004649
200003dc:	00005845 	.word	0x00005845
200003e0:	00004346 	.word	0x00004346

200003e4 <reset_non_control_endpoints>:
200003e4:	2200      	movs	r2, #0
200003e6:	4b15      	ldr	r3, [pc, #84]	@ (2000043c <reset_non_control_endpoints+0x58>)
200003e8:	b510      	push	{r4, lr}
200003ea:	609a      	str	r2, [r3, #8]
200003ec:	60da      	str	r2, [r3, #12]
200003ee:	611a      	str	r2, [r3, #16]
200003f0:	615a      	str	r2, [r3, #20]
200003f2:	619a      	str	r2, [r3, #24]
200003f4:	61da      	str	r2, [r3, #28]
200003f6:	621a      	str	r2, [r3, #32]
200003f8:	625a      	str	r2, [r3, #36]	@ 0x24
200003fa:	629a      	str	r2, [r3, #40]	@ 0x28
200003fc:	62da      	str	r2, [r3, #44]	@ 0x2c
200003fe:	631a      	str	r2, [r3, #48]	@ 0x30
20000400:	635a      	str	r2, [r3, #52]	@ 0x34
20000402:	639a      	str	r2, [r3, #56]	@ 0x38
20000404:	63da      	str	r2, [r3, #60]	@ 0x3c
20000406:	641a      	str	r2, [r3, #64]	@ 0x40
20000408:	645a      	str	r2, [r3, #68]	@ 0x44
2000040a:	649a      	str	r2, [r3, #72]	@ 0x48
2000040c:	64da      	str	r2, [r3, #76]	@ 0x4c
2000040e:	651a      	str	r2, [r3, #80]	@ 0x50
20000410:	655a      	str	r2, [r3, #84]	@ 0x54
20000412:	659a      	str	r2, [r3, #88]	@ 0x58
20000414:	65da      	str	r2, [r3, #92]	@ 0x5c
20000416:	661a      	str	r2, [r3, #96]	@ 0x60
20000418:	665a      	str	r2, [r3, #100]	@ 0x64
2000041a:	669a      	str	r2, [r3, #104]	@ 0x68
2000041c:	66da      	str	r2, [r3, #108]	@ 0x6c
2000041e:	671a      	str	r2, [r3, #112]	@ 0x70
20000420:	675a      	str	r2, [r3, #116]	@ 0x74
20000422:	679a      	str	r2, [r3, #120]	@ 0x78
20000424:	67da      	str	r2, [r3, #124]	@ 0x7c
20000426:	32f0      	adds	r2, #240	@ 0xf0
20000428:	0092      	lsls	r2, r2, #2
2000042a:	2100      	movs	r1, #0
2000042c:	4804      	ldr	r0, [pc, #16]	@ (20000440 <reset_non_control_endpoints+0x5c>)
2000042e:	f000 fd8b 	bl	20000f48 <____wrap_memset_veneer>
20000432:	4b04      	ldr	r3, [pc, #16]	@ (20000444 <reset_non_control_endpoints+0x60>)
20000434:	4a04      	ldr	r2, [pc, #16]	@ (20000448 <reset_non_control_endpoints+0x64>)
20000436:	601a      	str	r2, [r3, #0]
20000438:	bd10      	pop	{r4, pc}
2000043a:	46c0      	nop			@ (mov r8, r8)
2000043c:	50100000 	.word	0x50100000
20000440:	200051a0 	.word	0x200051a0
20000444:	20005630 	.word	0x20005630
20000448:	50100180 	.word	0x50100180

2000044c <hw_handle_buff_status>:
2000044c:	b5f0      	push	{r4, r5, r6, r7, lr}
2000044e:	4647      	mov	r7, r8
20000450:	46ce      	mov	lr, r9
20000452:	b580      	push	{r7, lr}
20000454:	4b1c      	ldr	r3, [pc, #112]	@ (200004c8 <hw_handle_buff_status+0x7c>)
20000456:	2400      	movs	r4, #0
20000458:	6d9f      	ldr	r7, [r3, #88]	@ 0x58
2000045a:	2601      	movs	r6, #1
2000045c:	b085      	sub	sp, #20
2000045e:	2f00      	cmp	r7, #0
20000460:	d01b      	beq.n	2000049a <hw_handle_buff_status+0x4e>
20000462:	4b1a      	ldr	r3, [pc, #104]	@ (200004cc <hw_handle_buff_status+0x80>)
20000464:	4698      	mov	r8, r3
20000466:	4b1a      	ldr	r3, [pc, #104]	@ (200004d0 <hw_handle_buff_status+0x84>)
20000468:	4699      	mov	r9, r3
2000046a:	e004      	b.n	20000476 <hw_handle_buff_status+0x2a>
2000046c:	3401      	adds	r4, #1
2000046e:	b2e4      	uxtb	r4, r4
20000470:	0076      	lsls	r6, r6, #1
20000472:	2c20      	cmp	r4, #32
20000474:	d011      	beq.n	2000049a <hw_handle_buff_status+0x4e>
20000476:	423e      	tst	r6, r7
20000478:	d0f8      	beq.n	2000046c <hw_handle_buff_status+0x20>
2000047a:	4643      	mov	r3, r8
2000047c:	659e      	str	r6, [r3, #88]	@ 0x58
2000047e:	2301      	movs	r3, #1
20000480:	0865      	lsrs	r5, r4, #1
20000482:	006d      	lsls	r5, r5, #1
20000484:	43a3      	bics	r3, r4
20000486:	18ed      	adds	r5, r5, r3
20000488:	016d      	lsls	r5, r5, #5
2000048a:	444d      	add	r5, r9
2000048c:	0028      	movs	r0, r5
2000048e:	f000 fc13 	bl	20000cb8 <hw_endpoint_xfer_continue>
20000492:	2800      	cmp	r0, #0
20000494:	d106      	bne.n	200004a4 <hw_handle_buff_status+0x58>
20000496:	43b7      	bics	r7, r6
20000498:	d1e8      	bne.n	2000046c <hw_handle_buff_status+0x20>
2000049a:	b005      	add	sp, #20
2000049c:	bcc0      	pop	{r6, r7}
2000049e:	46b9      	mov	r9, r7
200004a0:	46b0      	mov	r8, r6
200004a2:	bdf0      	pop	{r4, r5, r6, r7, pc}
200004a4:	8aeb      	ldrh	r3, [r5, #22]
200004a6:	21e0      	movs	r1, #224	@ 0xe0
200004a8:	9303      	str	r3, [sp, #12]
200004aa:	2300      	movs	r3, #0
200004ac:	a801      	add	r0, sp, #4
200004ae:	78aa      	ldrb	r2, [r5, #2]
200004b0:	00c9      	lsls	r1, r1, #3
200004b2:	8001      	strh	r1, [r0, #0]
200004b4:	2101      	movs	r1, #1
200004b6:	7102      	strb	r2, [r0, #4]
200004b8:	7143      	strb	r3, [r0, #5]
200004ba:	f000 fc1d 	bl	20000cf8 <dcd_event_handler>
200004be:	0028      	movs	r0, r5
200004c0:	f000 fb98 	bl	20000bf4 <hw_endpoint_reset_transfer>
200004c4:	e7e7      	b.n	20000496 <hw_handle_buff_status+0x4a>
200004c6:	46c0      	nop			@ (mov r8, r8)
200004c8:	50110000 	.word	0x50110000
200004cc:	50113000 	.word	0x50113000
200004d0:	20005160 	.word	0x20005160

200004d4 <dcd_rp2040_irq>:
200004d4:	2398      	movs	r3, #152	@ 0x98
200004d6:	4ac6      	ldr	r2, [pc, #792]	@ (200007f0 <dcd_rp2040_irq+0x31c>)
200004d8:	b5f0      	push	{r4, r5, r6, r7, lr}
200004da:	58d5      	ldr	r5, [r2, r3]
200004dc:	2380      	movs	r3, #128	@ 0x80
200004de:	002e      	movs	r6, r5
200004e0:	029b      	lsls	r3, r3, #10
200004e2:	2410      	movs	r4, #16
200004e4:	b085      	sub	sp, #20
200004e6:	401e      	ands	r6, r3
200004e8:	421d      	tst	r5, r3
200004ea:	d074      	beq.n	200005d6 <dcd_rp2040_irq+0x102>
200004ec:	4bc1      	ldr	r3, [pc, #772]	@ (200007f4 <dcd_rp2040_irq+0x320>)
200004ee:	4cc2      	ldr	r4, [pc, #776]	@ (200007f8 <dcd_rp2040_irq+0x324>)
200004f0:	6a9a      	ldr	r2, [r3, #40]	@ 0x28
200004f2:	4bc2      	ldr	r3, [pc, #776]	@ (200007fc <dcd_rp2040_irq+0x328>)
200004f4:	2600      	movs	r6, #0
200004f6:	601a      	str	r2, [r3, #0]
200004f8:	233b      	movs	r3, #59	@ 0x3b
200004fa:	5ce3      	ldrb	r3, [r4, r3]
200004fc:	2b02      	cmp	r3, #2
200004fe:	d100      	bne.n	20000502 <dcd_rp2040_irq+0x2e>
20000500:	e14b      	b.n	2000079a <dcd_rp2040_irq+0x2c6>
20000502:	237b      	movs	r3, #123	@ 0x7b
20000504:	5ce3      	ldrb	r3, [r4, r3]
20000506:	2b02      	cmp	r3, #2
20000508:	d100      	bne.n	2000050c <dcd_rp2040_irq+0x38>
2000050a:	e0ef      	b.n	200006ec <dcd_rp2040_irq+0x218>
2000050c:	23bb      	movs	r3, #187	@ 0xbb
2000050e:	5ce3      	ldrb	r3, [r4, r3]
20000510:	2b02      	cmp	r3, #2
20000512:	d100      	bne.n	20000516 <dcd_rp2040_irq+0x42>
20000514:	e0f6      	b.n	20000704 <dcd_rp2040_irq+0x230>
20000516:	23fb      	movs	r3, #251	@ 0xfb
20000518:	5ce3      	ldrb	r3, [r4, r3]
2000051a:	2b02      	cmp	r3, #2
2000051c:	d100      	bne.n	20000520 <dcd_rp2040_irq+0x4c>
2000051e:	e0fd      	b.n	2000071c <dcd_rp2040_irq+0x248>
20000520:	233c      	movs	r3, #60	@ 0x3c
20000522:	33ff      	adds	r3, #255	@ 0xff
20000524:	5ce3      	ldrb	r3, [r4, r3]
20000526:	2b02      	cmp	r3, #2
20000528:	d100      	bne.n	2000052c <dcd_rp2040_irq+0x58>
2000052a:	e129      	b.n	20000780 <dcd_rp2040_irq+0x2ac>
2000052c:	237c      	movs	r3, #124	@ 0x7c
2000052e:	33ff      	adds	r3, #255	@ 0xff
20000530:	5ce3      	ldrb	r3, [r4, r3]
20000532:	2b02      	cmp	r3, #2
20000534:	d100      	bne.n	20000538 <dcd_rp2040_irq+0x64>
20000536:	e10a      	b.n	2000074e <dcd_rp2040_irq+0x27a>
20000538:	23bc      	movs	r3, #188	@ 0xbc
2000053a:	33ff      	adds	r3, #255	@ 0xff
2000053c:	5ce3      	ldrb	r3, [r4, r3]
2000053e:	2b02      	cmp	r3, #2
20000540:	d100      	bne.n	20000544 <dcd_rp2040_irq+0x70>
20000542:	e13b      	b.n	200007bc <dcd_rp2040_irq+0x2e8>
20000544:	23fc      	movs	r3, #252	@ 0xfc
20000546:	33ff      	adds	r3, #255	@ 0xff
20000548:	5ce3      	ldrb	r3, [r4, r3]
2000054a:	2b02      	cmp	r3, #2
2000054c:	d100      	bne.n	20000550 <dcd_rp2040_irq+0x7c>
2000054e:	e0f1      	b.n	20000734 <dcd_rp2040_irq+0x260>
20000550:	4bab      	ldr	r3, [pc, #684]	@ (20000800 <dcd_rp2040_irq+0x32c>)
20000552:	5ce3      	ldrb	r3, [r4, r3]
20000554:	2b02      	cmp	r3, #2
20000556:	d100      	bne.n	2000055a <dcd_rp2040_irq+0x86>
20000558:	e170      	b.n	2000083c <dcd_rp2040_irq+0x368>
2000055a:	4baa      	ldr	r3, [pc, #680]	@ (20000804 <dcd_rp2040_irq+0x330>)
2000055c:	5ce3      	ldrb	r3, [r4, r3]
2000055e:	2b02      	cmp	r3, #2
20000560:	d100      	bne.n	20000564 <dcd_rp2040_irq+0x90>
20000562:	e101      	b.n	20000768 <dcd_rp2040_irq+0x294>
20000564:	4ba8      	ldr	r3, [pc, #672]	@ (20000808 <dcd_rp2040_irq+0x334>)
20000566:	5ce3      	ldrb	r3, [r4, r3]
20000568:	2b02      	cmp	r3, #2
2000056a:	d100      	bne.n	2000056e <dcd_rp2040_irq+0x9a>
2000056c:	e171      	b.n	20000852 <dcd_rp2040_irq+0x37e>
2000056e:	4ba7      	ldr	r3, [pc, #668]	@ (2000080c <dcd_rp2040_irq+0x338>)
20000570:	5ce3      	ldrb	r3, [r4, r3]
20000572:	2b02      	cmp	r3, #2
20000574:	d100      	bne.n	20000578 <dcd_rp2040_irq+0xa4>
20000576:	e12e      	b.n	200007d6 <dcd_rp2040_irq+0x302>
20000578:	4ba5      	ldr	r3, [pc, #660]	@ (20000810 <dcd_rp2040_irq+0x33c>)
2000057a:	5ce3      	ldrb	r3, [r4, r3]
2000057c:	2b02      	cmp	r3, #2
2000057e:	d100      	bne.n	20000582 <dcd_rp2040_irq+0xae>
20000580:	e19c      	b.n	200008bc <dcd_rp2040_irq+0x3e8>
20000582:	4ba4      	ldr	r3, [pc, #656]	@ (20000814 <dcd_rp2040_irq+0x340>)
20000584:	5ce3      	ldrb	r3, [r4, r3]
20000586:	2b02      	cmp	r3, #2
20000588:	d100      	bne.n	2000058c <dcd_rp2040_irq+0xb8>
2000058a:	e16d      	b.n	20000868 <dcd_rp2040_irq+0x394>
2000058c:	4ba2      	ldr	r3, [pc, #648]	@ (20000818 <dcd_rp2040_irq+0x344>)
2000058e:	5ce3      	ldrb	r3, [r4, r3]
20000590:	2b02      	cmp	r3, #2
20000592:	d100      	bne.n	20000596 <dcd_rp2040_irq+0xc2>
20000594:	e19d      	b.n	200008d2 <dcd_rp2040_irq+0x3fe>
20000596:	4ba1      	ldr	r3, [pc, #644]	@ (2000081c <dcd_rp2040_irq+0x348>)
20000598:	5ce3      	ldrb	r3, [r4, r3]
2000059a:	2b02      	cmp	r3, #2
2000059c:	d100      	bne.n	200005a0 <dcd_rp2040_irq+0xcc>
2000059e:	e17b      	b.n	20000898 <dcd_rp2040_irq+0x3c4>
200005a0:	2e00      	cmp	r6, #0
200005a2:	d108      	bne.n	200005b6 <dcd_rp2040_irq+0xe2>
200005a4:	4b9e      	ldr	r3, [pc, #632]	@ (20000820 <dcd_rp2040_irq+0x34c>)
200005a6:	781b      	ldrb	r3, [r3, #0]
200005a8:	2b00      	cmp	r3, #0
200005aa:	d104      	bne.n	200005b6 <dcd_rp2040_irq+0xe2>
200005ac:	2180      	movs	r1, #128	@ 0x80
200005ae:	4a9d      	ldr	r2, [pc, #628]	@ (20000824 <dcd_rp2040_irq+0x350>)
200005b0:	3390      	adds	r3, #144	@ 0x90
200005b2:	0289      	lsls	r1, r1, #10
200005b4:	50d1      	str	r1, [r2, r3]
200005b6:	22c0      	movs	r2, #192	@ 0xc0
200005b8:	4669      	mov	r1, sp
200005ba:	4b8d      	ldr	r3, [pc, #564]	@ (200007f0 <dcd_rp2040_irq+0x31c>)
200005bc:	0092      	lsls	r2, r2, #2
200005be:	6c9b      	ldr	r3, [r3, #72]	@ 0x48
200005c0:	2680      	movs	r6, #128	@ 0x80
200005c2:	055b      	lsls	r3, r3, #21
200005c4:	808a      	strh	r2, [r1, #4]
200005c6:	0d5b      	lsrs	r3, r3, #21
200005c8:	2101      	movs	r1, #1
200005ca:	a801      	add	r0, sp, #4
200005cc:	9302      	str	r3, [sp, #8]
200005ce:	f000 fb93 	bl	20000cf8 <dcd_event_handler>
200005d2:	4c95      	ldr	r4, [pc, #596]	@ (20000828 <dcd_rp2040_irq+0x354>)
200005d4:	02b6      	lsls	r6, r6, #10
200005d6:	06eb      	lsls	r3, r5, #27
200005d8:	d500      	bpl.n	200005dc <dcd_rp2040_irq+0x108>
200005da:	e07b      	b.n	200006d4 <dcd_rp2040_irq+0x200>
200005dc:	2380      	movs	r3, #128	@ 0x80
200005de:	025b      	lsls	r3, r3, #9
200005e0:	421d      	tst	r5, r3
200005e2:	d02f      	beq.n	20000644 <dcd_rp2040_irq+0x170>
200005e4:	2402      	movs	r4, #2
200005e6:	4f84      	ldr	r7, [pc, #528]	@ (200007f8 <dcd_rp2040_irq+0x324>)
200005e8:	431e      	orrs	r6, r3
200005ea:	7ebb      	ldrb	r3, [r7, #26]
200005ec:	2b00      	cmp	r3, #0
200005ee:	d014      	beq.n	2000061a <dcd_rp2040_irq+0x146>
200005f0:	f000 fcc2 	bl	20000f78 <__rp2040_chip_version_veneer>
200005f4:	2801      	cmp	r0, #1
200005f6:	d900      	bls.n	200005fa <dcd_rp2040_irq+0x126>
200005f8:	e070      	b.n	200006dc <dcd_rp2040_irq+0x208>
200005fa:	22c0      	movs	r2, #192	@ 0xc0
200005fc:	2100      	movs	r1, #0
200005fe:	0038      	movs	r0, r7
20000600:	0192      	lsls	r2, r2, #6
20000602:	f000 fafd 	bl	20000c00 <_hw_endpoint_buffer_control_update32>
20000606:	0038      	movs	r0, r7
20000608:	f000 faf4 	bl	20000bf4 <hw_endpoint_reset_transfer>
2000060c:	f000 fcb4 	bl	20000f78 <__rp2040_chip_version_veneer>
20000610:	2801      	cmp	r0, #1
20000612:	d902      	bls.n	2000061a <dcd_rp2040_irq+0x146>
20000614:	4b83      	ldr	r3, [pc, #524]	@ (20000824 <dcd_rp2040_irq+0x350>)
20000616:	665c      	str	r4, [r3, #100]	@ 0x64
20000618:	661c      	str	r4, [r3, #96]	@ 0x60
2000061a:	2301      	movs	r3, #1
2000061c:	70fb      	strb	r3, [r7, #3]
2000061e:	3720      	adds	r7, #32
20000620:	2c01      	cmp	r4, #1
20000622:	d120      	bne.n	20000666 <dcd_rp2040_irq+0x192>
20000624:	23c0      	movs	r3, #192	@ 0xc0
20000626:	466a      	mov	r2, sp
20000628:	00db      	lsls	r3, r3, #3
2000062a:	8093      	strh	r3, [r2, #4]
2000062c:	4a7f      	ldr	r2, [pc, #508]	@ (2000082c <dcd_rp2040_irq+0x358>)
2000062e:	ab02      	add	r3, sp, #8
20000630:	ca03      	ldmia	r2!, {r0, r1}
20000632:	c303      	stmia	r3!, {r0, r1}
20000634:	2101      	movs	r1, #1
20000636:	a801      	add	r0, sp, #4
20000638:	f000 fb5e 	bl	20000cf8 <dcd_event_handler>
2000063c:	2280      	movs	r2, #128	@ 0x80
2000063e:	4b79      	ldr	r3, [pc, #484]	@ (20000824 <dcd_rp2040_irq+0x350>)
20000640:	0292      	lsls	r2, r2, #10
20000642:	651a      	str	r2, [r3, #80]	@ 0x50
20000644:	2380      	movs	r3, #128	@ 0x80
20000646:	015b      	lsls	r3, r3, #5
20000648:	421d      	tst	r5, r3
2000064a:	d10e      	bne.n	2000066a <dcd_rp2040_irq+0x196>
2000064c:	2380      	movs	r3, #128	@ 0x80
2000064e:	01db      	lsls	r3, r3, #7
20000650:	421d      	tst	r5, r3
20000652:	d121      	bne.n	20000698 <dcd_rp2040_irq+0x1c4>
20000654:	2380      	movs	r3, #128	@ 0x80
20000656:	021b      	lsls	r3, r3, #8
20000658:	421d      	tst	r5, r3
2000065a:	d12d      	bne.n	200006b8 <dcd_rp2040_irq+0x1e4>
2000065c:	42ae      	cmp	r6, r5
2000065e:	d000      	beq.n	20000662 <dcd_rp2040_irq+0x18e>
20000660:	e1be      	b.n	200009e0 <dcd_rp2040_irq+0x50c>
20000662:	b005      	add	sp, #20
20000664:	bdf0      	pop	{r4, r5, r6, r7, pc}
20000666:	2401      	movs	r4, #1
20000668:	e7bf      	b.n	200005ea <dcd_rp2040_irq+0x116>
2000066a:	2400      	movs	r4, #0
2000066c:	431e      	orrs	r6, r3
2000066e:	4b60      	ldr	r3, [pc, #384]	@ (200007f0 <dcd_rp2040_irq+0x31c>)
20000670:	601c      	str	r4, [r3, #0]
20000672:	f7ff feb7 	bl	200003e4 <reset_non_control_endpoints>
20000676:	2380      	movs	r3, #128	@ 0x80
20000678:	466a      	mov	r2, sp
2000067a:	005b      	lsls	r3, r3, #1
2000067c:	8093      	strh	r3, [r2, #4]
2000067e:	7214      	strb	r4, [r2, #8]
20000680:	2101      	movs	r1, #1
20000682:	a801      	add	r0, sp, #4
20000684:	f000 fb38 	bl	20000cf8 <dcd_event_handler>
20000688:	2280      	movs	r2, #128	@ 0x80
2000068a:	4b66      	ldr	r3, [pc, #408]	@ (20000824 <dcd_rp2040_irq+0x350>)
2000068c:	0312      	lsls	r2, r2, #12
2000068e:	651a      	str	r2, [r3, #80]	@ 0x50
20000690:	2380      	movs	r3, #128	@ 0x80
20000692:	01db      	lsls	r3, r3, #7
20000694:	421d      	tst	r5, r3
20000696:	d0dd      	beq.n	20000654 <dcd_rp2040_irq+0x180>
20000698:	431e      	orrs	r6, r3
2000069a:	2380      	movs	r3, #128	@ 0x80
2000069c:	466a      	mov	r2, sp
2000069e:	00db      	lsls	r3, r3, #3
200006a0:	8093      	strh	r3, [r2, #4]
200006a2:	2101      	movs	r1, #1
200006a4:	a801      	add	r0, sp, #4
200006a6:	f000 fb27 	bl	20000cf8 <dcd_event_handler>
200006aa:	2210      	movs	r2, #16
200006ac:	4b5d      	ldr	r3, [pc, #372]	@ (20000824 <dcd_rp2040_irq+0x350>)
200006ae:	651a      	str	r2, [r3, #80]	@ 0x50
200006b0:	2380      	movs	r3, #128	@ 0x80
200006b2:	021b      	lsls	r3, r3, #8
200006b4:	421d      	tst	r5, r3
200006b6:	d0d1      	beq.n	2000065c <dcd_rp2040_irq+0x188>
200006b8:	431e      	orrs	r6, r3
200006ba:	23a0      	movs	r3, #160	@ 0xa0
200006bc:	466a      	mov	r2, sp
200006be:	00db      	lsls	r3, r3, #3
200006c0:	8093      	strh	r3, [r2, #4]
200006c2:	2101      	movs	r1, #1
200006c4:	a801      	add	r0, sp, #4
200006c6:	f000 fb17 	bl	20000cf8 <dcd_event_handler>
200006ca:	2280      	movs	r2, #128	@ 0x80
200006cc:	4b55      	ldr	r3, [pc, #340]	@ (20000824 <dcd_rp2040_irq+0x350>)
200006ce:	0112      	lsls	r2, r2, #4
200006d0:	651a      	str	r2, [r3, #80]	@ 0x50
200006d2:	e7c3      	b.n	2000065c <dcd_rp2040_irq+0x188>
200006d4:	f7ff feba 	bl	2000044c <hw_handle_buff_status>
200006d8:	0026      	movs	r6, r4
200006da:	e77f      	b.n	200005dc <dcd_rp2040_irq+0x108>
200006dc:	4b54      	ldr	r3, [pc, #336]	@ (20000830 <dcd_rp2040_irq+0x35c>)
200006de:	4a44      	ldr	r2, [pc, #272]	@ (200007f0 <dcd_rp2040_irq+0x31c>)
200006e0:	661c      	str	r4, [r3, #96]	@ 0x60
200006e2:	6e53      	ldr	r3, [r2, #100]	@ 0x64
200006e4:	4023      	ands	r3, r4
200006e6:	42a3      	cmp	r3, r4
200006e8:	d1fb      	bne.n	200006e2 <dcd_rp2040_irq+0x20e>
200006ea:	e786      	b.n	200005fa <dcd_rp2040_irq+0x126>
200006ec:	3378      	adds	r3, #120	@ 0x78
200006ee:	5ce7      	ldrb	r7, [r4, r3]
200006f0:	2f00      	cmp	r7, #0
200006f2:	d100      	bne.n	200006f6 <dcd_rp2040_irq+0x222>
200006f4:	e70a      	b.n	2000050c <dcd_rp2040_irq+0x38>
200006f6:	3302      	adds	r3, #2
200006f8:	5ce2      	ldrb	r2, [r4, r3]
200006fa:	2a00      	cmp	r2, #0
200006fc:	d000      	beq.n	20000700 <dcd_rp2040_irq+0x22c>
200006fe:	e10d      	b.n	2000091c <dcd_rp2040_irq+0x448>
20000700:	003e      	movs	r6, r7
20000702:	e703      	b.n	2000050c <dcd_rp2040_irq+0x38>
20000704:	33b8      	adds	r3, #184	@ 0xb8
20000706:	5ce7      	ldrb	r7, [r4, r3]
20000708:	2f00      	cmp	r7, #0
2000070a:	d100      	bne.n	2000070e <dcd_rp2040_irq+0x23a>
2000070c:	e703      	b.n	20000516 <dcd_rp2040_irq+0x42>
2000070e:	3302      	adds	r3, #2
20000710:	5ce2      	ldrb	r2, [r4, r3]
20000712:	2a00      	cmp	r2, #0
20000714:	d000      	beq.n	20000718 <dcd_rp2040_irq+0x244>
20000716:	e0f9      	b.n	2000090c <dcd_rp2040_irq+0x438>
20000718:	003e      	movs	r6, r7
2000071a:	e6fc      	b.n	20000516 <dcd_rp2040_irq+0x42>
2000071c:	33f8      	adds	r3, #248	@ 0xf8
2000071e:	5ce7      	ldrb	r7, [r4, r3]
20000720:	2f00      	cmp	r7, #0
20000722:	d100      	bne.n	20000726 <dcd_rp2040_irq+0x252>
20000724:	e6fc      	b.n	20000520 <dcd_rp2040_irq+0x4c>
20000726:	3302      	adds	r3, #2
20000728:	5ce2      	ldrb	r2, [r4, r3]
2000072a:	2a00      	cmp	r2, #0
2000072c:	d000      	beq.n	20000730 <dcd_rp2040_irq+0x25c>
2000072e:	e141      	b.n	200009b4 <dcd_rp2040_irq+0x4e0>
20000730:	003e      	movs	r6, r7
20000732:	e6f5      	b.n	20000520 <dcd_rp2040_irq+0x4c>
20000734:	33f9      	adds	r3, #249	@ 0xf9
20000736:	33ff      	adds	r3, #255	@ 0xff
20000738:	5ce7      	ldrb	r7, [r4, r3]
2000073a:	2f00      	cmp	r7, #0
2000073c:	d100      	bne.n	20000740 <dcd_rp2040_irq+0x26c>
2000073e:	e707      	b.n	20000550 <dcd_rp2040_irq+0x7c>
20000740:	3302      	adds	r3, #2
20000742:	5ce2      	ldrb	r2, [r4, r3]
20000744:	2a00      	cmp	r2, #0
20000746:	d000      	beq.n	2000074a <dcd_rp2040_irq+0x276>
20000748:	e12b      	b.n	200009a2 <dcd_rp2040_irq+0x4ce>
2000074a:	003e      	movs	r6, r7
2000074c:	e700      	b.n	20000550 <dcd_rp2040_irq+0x7c>
2000074e:	3379      	adds	r3, #121	@ 0x79
20000750:	33ff      	adds	r3, #255	@ 0xff
20000752:	5ce7      	ldrb	r7, [r4, r3]
20000754:	2f00      	cmp	r7, #0
20000756:	d100      	bne.n	2000075a <dcd_rp2040_irq+0x286>
20000758:	e6ee      	b.n	20000538 <dcd_rp2040_irq+0x64>
2000075a:	3302      	adds	r3, #2
2000075c:	5ce2      	ldrb	r2, [r4, r3]
2000075e:	2a00      	cmp	r2, #0
20000760:	d000      	beq.n	20000764 <dcd_rp2040_irq+0x290>
20000762:	e115      	b.n	20000990 <dcd_rp2040_irq+0x4bc>
20000764:	003e      	movs	r6, r7
20000766:	e6e7      	b.n	20000538 <dcd_rp2040_irq+0x64>
20000768:	4b32      	ldr	r3, [pc, #200]	@ (20000834 <dcd_rp2040_irq+0x360>)
2000076a:	5ce7      	ldrb	r7, [r4, r3]
2000076c:	2f00      	cmp	r7, #0
2000076e:	d100      	bne.n	20000772 <dcd_rp2040_irq+0x29e>
20000770:	e6f8      	b.n	20000564 <dcd_rp2040_irq+0x90>
20000772:	3302      	adds	r3, #2
20000774:	5ce2      	ldrb	r2, [r4, r3]
20000776:	2a00      	cmp	r2, #0
20000778:	d000      	beq.n	2000077c <dcd_rp2040_irq+0x2a8>
2000077a:	e101      	b.n	20000980 <dcd_rp2040_irq+0x4ac>
2000077c:	003e      	movs	r6, r7
2000077e:	e6f1      	b.n	20000564 <dcd_rp2040_irq+0x90>
20000780:	3339      	adds	r3, #57	@ 0x39
20000782:	33ff      	adds	r3, #255	@ 0xff
20000784:	5ce7      	ldrb	r7, [r4, r3]
20000786:	2f00      	cmp	r7, #0
20000788:	d100      	bne.n	2000078c <dcd_rp2040_irq+0x2b8>
2000078a:	e6cf      	b.n	2000052c <dcd_rp2040_irq+0x58>
2000078c:	3302      	adds	r3, #2
2000078e:	5ce2      	ldrb	r2, [r4, r3]
20000790:	2a00      	cmp	r2, #0
20000792:	d000      	beq.n	20000796 <dcd_rp2040_irq+0x2c2>
20000794:	e0eb      	b.n	2000096e <dcd_rp2040_irq+0x49a>
20000796:	003e      	movs	r6, r7
20000798:	e6c8      	b.n	2000052c <dcd_rp2040_irq+0x58>
2000079a:	3338      	adds	r3, #56	@ 0x38
2000079c:	5ce6      	ldrb	r6, [r4, r3]
2000079e:	2e00      	cmp	r6, #0
200007a0:	d100      	bne.n	200007a4 <dcd_rp2040_irq+0x2d0>
200007a2:	e6ae      	b.n	20000502 <dcd_rp2040_irq+0x2e>
200007a4:	3302      	adds	r3, #2
200007a6:	5ce2      	ldrb	r2, [r4, r3]
200007a8:	2a00      	cmp	r2, #0
200007aa:	d100      	bne.n	200007ae <dcd_rp2040_irq+0x2da>
200007ac:	e6a9      	b.n	20000502 <dcd_rp2040_irq+0x2e>
200007ae:	0020      	movs	r0, r4
200007b0:	2200      	movs	r2, #0
200007b2:	3020      	adds	r0, #32
200007b4:	54e2      	strb	r2, [r4, r3]
200007b6:	f000 fa4b 	bl	20000c50 <hw_endpoint_start_next_buffer>
200007ba:	e6a2      	b.n	20000502 <dcd_rp2040_irq+0x2e>
200007bc:	33b9      	adds	r3, #185	@ 0xb9
200007be:	33ff      	adds	r3, #255	@ 0xff
200007c0:	5ce7      	ldrb	r7, [r4, r3]
200007c2:	2f00      	cmp	r7, #0
200007c4:	d100      	bne.n	200007c8 <dcd_rp2040_irq+0x2f4>
200007c6:	e6bd      	b.n	20000544 <dcd_rp2040_irq+0x70>
200007c8:	3302      	adds	r3, #2
200007ca:	5ce2      	ldrb	r2, [r4, r3]
200007cc:	2a00      	cmp	r2, #0
200007ce:	d000      	beq.n	200007d2 <dcd_rp2040_irq+0x2fe>
200007d0:	e0c4      	b.n	2000095c <dcd_rp2040_irq+0x488>
200007d2:	003e      	movs	r6, r7
200007d4:	e6b6      	b.n	20000544 <dcd_rp2040_irq+0x70>
200007d6:	4b18      	ldr	r3, [pc, #96]	@ (20000838 <dcd_rp2040_irq+0x364>)
200007d8:	5ce7      	ldrb	r7, [r4, r3]
200007da:	2f00      	cmp	r7, #0
200007dc:	d100      	bne.n	200007e0 <dcd_rp2040_irq+0x30c>
200007de:	e6cb      	b.n	20000578 <dcd_rp2040_irq+0xa4>
200007e0:	3302      	adds	r3, #2
200007e2:	5ce2      	ldrb	r2, [r4, r3]
200007e4:	2a00      	cmp	r2, #0
200007e6:	d000      	beq.n	200007ea <dcd_rp2040_irq+0x316>
200007e8:	e0b0      	b.n	2000094c <dcd_rp2040_irq+0x478>
200007ea:	003e      	movs	r6, r7
200007ec:	e6c4      	b.n	20000578 <dcd_rp2040_irq+0xa4>
200007ee:	46c0      	nop			@ (mov r8, r8)
200007f0:	50110000 	.word	0x50110000
200007f4:	40054000 	.word	0x40054000
200007f8:	20005160 	.word	0x20005160
200007fc:	20004b28 	.word	0x20004b28
20000800:	0000023b 	.word	0x0000023b
20000804:	0000027b 	.word	0x0000027b
20000808:	000002bb 	.word	0x000002bb
2000080c:	000002fb 	.word	0x000002fb
20000810:	0000033b 	.word	0x0000033b
20000814:	0000037b 	.word	0x0000037b
20000818:	000003bb 	.word	0x000003bb
2000081c:	000003fb 	.word	0x000003fb
20000820:	2000f06d 	.word	0x2000f06d
20000824:	50113000 	.word	0x50113000
20000828:	00020010 	.word	0x00020010
2000082c:	50100000 	.word	0x50100000
20000830:	50112000 	.word	0x50112000
20000834:	0000027a 	.word	0x0000027a
20000838:	000002fa 	.word	0x000002fa
2000083c:	4b6b      	ldr	r3, [pc, #428]	@ (200009ec <dcd_rp2040_irq+0x518>)
2000083e:	5ce7      	ldrb	r7, [r4, r3]
20000840:	2f00      	cmp	r7, #0
20000842:	d100      	bne.n	20000846 <dcd_rp2040_irq+0x372>
20000844:	e689      	b.n	2000055a <dcd_rp2040_irq+0x86>
20000846:	3302      	adds	r3, #2
20000848:	5ce2      	ldrb	r2, [r4, r3]
2000084a:	2a00      	cmp	r2, #0
2000084c:	d176      	bne.n	2000093c <dcd_rp2040_irq+0x468>
2000084e:	003e      	movs	r6, r7
20000850:	e683      	b.n	2000055a <dcd_rp2040_irq+0x86>
20000852:	4b67      	ldr	r3, [pc, #412]	@ (200009f0 <dcd_rp2040_irq+0x51c>)
20000854:	5ce7      	ldrb	r7, [r4, r3]
20000856:	2f00      	cmp	r7, #0
20000858:	d100      	bne.n	2000085c <dcd_rp2040_irq+0x388>
2000085a:	e688      	b.n	2000056e <dcd_rp2040_irq+0x9a>
2000085c:	3302      	adds	r3, #2
2000085e:	5ce2      	ldrb	r2, [r4, r3]
20000860:	2a00      	cmp	r2, #0
20000862:	d163      	bne.n	2000092c <dcd_rp2040_irq+0x458>
20000864:	003e      	movs	r6, r7
20000866:	e682      	b.n	2000056e <dcd_rp2040_irq+0x9a>
20000868:	4b62      	ldr	r3, [pc, #392]	@ (200009f4 <dcd_rp2040_irq+0x520>)
2000086a:	5ce7      	ldrb	r7, [r4, r3]
2000086c:	2f00      	cmp	r7, #0
2000086e:	d100      	bne.n	20000872 <dcd_rp2040_irq+0x39e>
20000870:	e68c      	b.n	2000058c <dcd_rp2040_irq+0xb8>
20000872:	3302      	adds	r3, #2
20000874:	5ce2      	ldrb	r2, [r4, r3]
20000876:	2a00      	cmp	r2, #0
20000878:	d000      	beq.n	2000087c <dcd_rp2040_irq+0x3a8>
2000087a:	e0a3      	b.n	200009c4 <dcd_rp2040_irq+0x4f0>
2000087c:	4b5e      	ldr	r3, [pc, #376]	@ (200009f8 <dcd_rp2040_irq+0x524>)
2000087e:	5ce3      	ldrb	r3, [r4, r3]
20000880:	2b02      	cmp	r3, #2
20000882:	d130      	bne.n	200008e6 <dcd_rp2040_irq+0x412>
20000884:	4b5d      	ldr	r3, [pc, #372]	@ (200009fc <dcd_rp2040_irq+0x528>)
20000886:	5ce3      	ldrb	r3, [r4, r3]
20000888:	2b00      	cmp	r3, #0
2000088a:	d127      	bne.n	200008dc <dcd_rp2040_irq+0x408>
2000088c:	4b5c      	ldr	r3, [pc, #368]	@ (20000a00 <dcd_rp2040_irq+0x52c>)
2000088e:	5ce3      	ldrb	r3, [r4, r3]
20000890:	2b02      	cmp	r3, #2
20000892:	d000      	beq.n	20000896 <dcd_rp2040_irq+0x3c2>
20000894:	e68f      	b.n	200005b6 <dcd_rp2040_irq+0xe2>
20000896:	003e      	movs	r6, r7
20000898:	4b5a      	ldr	r3, [pc, #360]	@ (20000a04 <dcd_rp2040_irq+0x530>)
2000089a:	5ce3      	ldrb	r3, [r4, r3]
2000089c:	2b00      	cmp	r3, #0
2000089e:	d100      	bne.n	200008a2 <dcd_rp2040_irq+0x3ce>
200008a0:	e67e      	b.n	200005a0 <dcd_rp2040_irq+0xcc>
200008a2:	23ff      	movs	r3, #255	@ 0xff
200008a4:	009b      	lsls	r3, r3, #2
200008a6:	5ce2      	ldrb	r2, [r4, r3]
200008a8:	2a00      	cmp	r2, #0
200008aa:	d100      	bne.n	200008ae <dcd_rp2040_irq+0x3da>
200008ac:	e683      	b.n	200005b6 <dcd_rp2040_irq+0xe2>
200008ae:	2200      	movs	r2, #0
200008b0:	54e2      	strb	r2, [r4, r3]
200008b2:	3b1c      	subs	r3, #28
200008b4:	18e0      	adds	r0, r4, r3
200008b6:	f000 f9cb 	bl	20000c50 <hw_endpoint_start_next_buffer>
200008ba:	e67c      	b.n	200005b6 <dcd_rp2040_irq+0xe2>
200008bc:	4b52      	ldr	r3, [pc, #328]	@ (20000a08 <dcd_rp2040_irq+0x534>)
200008be:	5ce7      	ldrb	r7, [r4, r3]
200008c0:	2f00      	cmp	r7, #0
200008c2:	d100      	bne.n	200008c6 <dcd_rp2040_irq+0x3f2>
200008c4:	e65d      	b.n	20000582 <dcd_rp2040_irq+0xae>
200008c6:	3302      	adds	r3, #2
200008c8:	5ce2      	ldrb	r2, [r4, r3]
200008ca:	2a00      	cmp	r2, #0
200008cc:	d116      	bne.n	200008fc <dcd_rp2040_irq+0x428>
200008ce:	003e      	movs	r6, r7
200008d0:	e657      	b.n	20000582 <dcd_rp2040_irq+0xae>
200008d2:	4b4a      	ldr	r3, [pc, #296]	@ (200009fc <dcd_rp2040_irq+0x528>)
200008d4:	5ce3      	ldrb	r3, [r4, r3]
200008d6:	2b00      	cmp	r3, #0
200008d8:	d100      	bne.n	200008dc <dcd_rp2040_irq+0x408>
200008da:	e65c      	b.n	20000596 <dcd_rp2040_irq+0xc2>
200008dc:	23ef      	movs	r3, #239	@ 0xef
200008de:	009b      	lsls	r3, r3, #2
200008e0:	5ce2      	ldrb	r2, [r4, r3]
200008e2:	2a00      	cmp	r2, #0
200008e4:	d175      	bne.n	200009d2 <dcd_rp2040_irq+0x4fe>
200008e6:	4b46      	ldr	r3, [pc, #280]	@ (20000a00 <dcd_rp2040_irq+0x52c>)
200008e8:	5ce3      	ldrb	r3, [r4, r3]
200008ea:	2b02      	cmp	r3, #2
200008ec:	d000      	beq.n	200008f0 <dcd_rp2040_irq+0x41c>
200008ee:	e662      	b.n	200005b6 <dcd_rp2040_irq+0xe2>
200008f0:	4b44      	ldr	r3, [pc, #272]	@ (20000a04 <dcd_rp2040_irq+0x530>)
200008f2:	5ce3      	ldrb	r3, [r4, r3]
200008f4:	2b00      	cmp	r3, #0
200008f6:	d100      	bne.n	200008fa <dcd_rp2040_irq+0x426>
200008f8:	e65d      	b.n	200005b6 <dcd_rp2040_irq+0xe2>
200008fa:	e7d2      	b.n	200008a2 <dcd_rp2040_irq+0x3ce>
200008fc:	2200      	movs	r2, #0
200008fe:	54e2      	strb	r2, [r4, r3]
20000900:	3b1c      	subs	r3, #28
20000902:	18e0      	adds	r0, r4, r3
20000904:	f000 f9a4 	bl	20000c50 <hw_endpoint_start_next_buffer>
20000908:	003e      	movs	r6, r7
2000090a:	e63a      	b.n	20000582 <dcd_rp2040_irq+0xae>
2000090c:	0020      	movs	r0, r4
2000090e:	2200      	movs	r2, #0
20000910:	30a0      	adds	r0, #160	@ 0xa0
20000912:	54e2      	strb	r2, [r4, r3]
20000914:	003e      	movs	r6, r7
20000916:	f000 f99b 	bl	20000c50 <hw_endpoint_start_next_buffer>
2000091a:	e5fc      	b.n	20000516 <dcd_rp2040_irq+0x42>
2000091c:	0020      	movs	r0, r4
2000091e:	2200      	movs	r2, #0
20000920:	3060      	adds	r0, #96	@ 0x60
20000922:	54e2      	strb	r2, [r4, r3]
20000924:	003e      	movs	r6, r7
20000926:	f000 f993 	bl	20000c50 <hw_endpoint_start_next_buffer>
2000092a:	e5ef      	b.n	2000050c <dcd_rp2040_irq+0x38>
2000092c:	2200      	movs	r2, #0
2000092e:	54e2      	strb	r2, [r4, r3]
20000930:	3b1c      	subs	r3, #28
20000932:	18e0      	adds	r0, r4, r3
20000934:	f000 f98c 	bl	20000c50 <hw_endpoint_start_next_buffer>
20000938:	003e      	movs	r6, r7
2000093a:	e618      	b.n	2000056e <dcd_rp2040_irq+0x9a>
2000093c:	2200      	movs	r2, #0
2000093e:	54e2      	strb	r2, [r4, r3]
20000940:	3b1c      	subs	r3, #28
20000942:	18e0      	adds	r0, r4, r3
20000944:	f000 f984 	bl	20000c50 <hw_endpoint_start_next_buffer>
20000948:	003e      	movs	r6, r7
2000094a:	e606      	b.n	2000055a <dcd_rp2040_irq+0x86>
2000094c:	2200      	movs	r2, #0
2000094e:	54e2      	strb	r2, [r4, r3]
20000950:	3b1c      	subs	r3, #28
20000952:	18e0      	adds	r0, r4, r3
20000954:	f000 f97c 	bl	20000c50 <hw_endpoint_start_next_buffer>
20000958:	003e      	movs	r6, r7
2000095a:	e60d      	b.n	20000578 <dcd_rp2040_irq+0xa4>
2000095c:	0020      	movs	r0, r4
2000095e:	2200      	movs	r2, #0
20000960:	30a1      	adds	r0, #161	@ 0xa1
20000962:	30ff      	adds	r0, #255	@ 0xff
20000964:	54e2      	strb	r2, [r4, r3]
20000966:	003e      	movs	r6, r7
20000968:	f000 f972 	bl	20000c50 <hw_endpoint_start_next_buffer>
2000096c:	e5ea      	b.n	20000544 <dcd_rp2040_irq+0x70>
2000096e:	0020      	movs	r0, r4
20000970:	2200      	movs	r2, #0
20000972:	3021      	adds	r0, #33	@ 0x21
20000974:	30ff      	adds	r0, #255	@ 0xff
20000976:	54e2      	strb	r2, [r4, r3]
20000978:	003e      	movs	r6, r7
2000097a:	f000 f969 	bl	20000c50 <hw_endpoint_start_next_buffer>
2000097e:	e5d5      	b.n	2000052c <dcd_rp2040_irq+0x58>
20000980:	2200      	movs	r2, #0
20000982:	54e2      	strb	r2, [r4, r3]
20000984:	3b1c      	subs	r3, #28
20000986:	18e0      	adds	r0, r4, r3
20000988:	f000 f962 	bl	20000c50 <hw_endpoint_start_next_buffer>
2000098c:	003e      	movs	r6, r7
2000098e:	e5e9      	b.n	20000564 <dcd_rp2040_irq+0x90>
20000990:	0020      	movs	r0, r4
20000992:	2200      	movs	r2, #0
20000994:	3061      	adds	r0, #97	@ 0x61
20000996:	30ff      	adds	r0, #255	@ 0xff
20000998:	54e2      	strb	r2, [r4, r3]
2000099a:	003e      	movs	r6, r7
2000099c:	f000 f958 	bl	20000c50 <hw_endpoint_start_next_buffer>
200009a0:	e5ca      	b.n	20000538 <dcd_rp2040_irq+0x64>
200009a2:	0020      	movs	r0, r4
200009a4:	2200      	movs	r2, #0
200009a6:	30e1      	adds	r0, #225	@ 0xe1
200009a8:	30ff      	adds	r0, #255	@ 0xff
200009aa:	54e2      	strb	r2, [r4, r3]
200009ac:	003e      	movs	r6, r7
200009ae:	f000 f94f 	bl	20000c50 <hw_endpoint_start_next_buffer>
200009b2:	e5cd      	b.n	20000550 <dcd_rp2040_irq+0x7c>
200009b4:	0020      	movs	r0, r4
200009b6:	2200      	movs	r2, #0
200009b8:	30e0      	adds	r0, #224	@ 0xe0
200009ba:	54e2      	strb	r2, [r4, r3]
200009bc:	003e      	movs	r6, r7
200009be:	f000 f947 	bl	20000c50 <hw_endpoint_start_next_buffer>
200009c2:	e5ad      	b.n	20000520 <dcd_rp2040_irq+0x4c>
200009c4:	2200      	movs	r2, #0
200009c6:	54e2      	strb	r2, [r4, r3]
200009c8:	3b1c      	subs	r3, #28
200009ca:	18e0      	adds	r0, r4, r3
200009cc:	f000 f940 	bl	20000c50 <hw_endpoint_start_next_buffer>
200009d0:	e754      	b.n	2000087c <dcd_rp2040_irq+0x3a8>
200009d2:	2200      	movs	r2, #0
200009d4:	54e2      	strb	r2, [r4, r3]
200009d6:	3b1c      	subs	r3, #28
200009d8:	18e0      	adds	r0, r4, r3
200009da:	f000 f939 	bl	20000c50 <hw_endpoint_start_next_buffer>
200009de:	e782      	b.n	200008e6 <dcd_rp2040_irq+0x412>
200009e0:	0031      	movs	r1, r6
200009e2:	480a      	ldr	r0, [pc, #40]	@ (20000a0c <dcd_rp2040_irq+0x538>)
200009e4:	4069      	eors	r1, r5
200009e6:	f000 fad7 	bl	20000f98 <__panic_veneer>
200009ea:	46c0      	nop			@ (mov r8, r8)
200009ec:	0000023a 	.word	0x0000023a
200009f0:	000002ba 	.word	0x000002ba
200009f4:	0000037a 	.word	0x0000037a
200009f8:	000003bb 	.word	0x000003bb
200009fc:	000003ba 	.word	0x000003ba
20000a00:	000003fb 	.word	0x000003fb
20000a04:	000003fa 	.word	0x000003fa
20000a08:	0000033a 	.word	0x0000033a
20000a0c:	1000ae70 	.word	0x1000ae70

20000a10 <prepare_ep_buffer>:
20000a10:	b5f0      	push	{r4, r5, r6, r7, lr}
20000a12:	468c      	mov	ip, r1
20000a14:	8a83      	ldrh	r3, [r0, #20]
20000a16:	8b01      	ldrh	r1, [r0, #24]
20000a18:	0002      	movs	r2, r0
20000a1a:	b083      	sub	sp, #12
20000a1c:	1c0e      	adds	r6, r1, #0
20000a1e:	4299      	cmp	r1, r3
20000a20:	d900      	bls.n	20000a24 <prepare_ep_buffer+0x14>
20000a22:	1c1e      	adds	r6, r3, #0
20000a24:	b2b6      	uxth	r6, r6
20000a26:	1b9b      	subs	r3, r3, r6
20000a28:	b29c      	uxth	r4, r3
20000a2a:	78d3      	ldrb	r3, [r2, #3]
20000a2c:	2180      	movs	r1, #128	@ 0x80
20000a2e:	0018      	movs	r0, r3
20000a30:	1e45      	subs	r5, r0, #1
20000a32:	41a8      	sbcs	r0, r5
20000a34:	00c9      	lsls	r1, r1, #3
20000a36:	4331      	orrs	r1, r6
20000a38:	0340      	lsls	r0, r0, #13
20000a3a:	4308      	orrs	r0, r1
20000a3c:	2101      	movs	r1, #1
20000a3e:	404b      	eors	r3, r1
20000a40:	70d3      	strb	r3, [r2, #3]
20000a42:	7853      	ldrb	r3, [r2, #1]
20000a44:	8294      	strh	r4, [r2, #20]
20000a46:	2b00      	cmp	r3, #0
20000a48:	d132      	bne.n	20000ab0 <prepare_ep_buffer+0xa0>
20000a4a:	6911      	ldr	r1, [r2, #16]
20000a4c:	2e00      	cmp	r6, #0
20000a4e:	d02a      	beq.n	20000aa6 <prepare_ep_buffer+0x96>
20000a50:	4663      	mov	r3, ip
20000a52:	68d4      	ldr	r4, [r2, #12]
20000a54:	019b      	lsls	r3, r3, #6
20000a56:	18e4      	adds	r4, r4, r3
20000a58:	1e73      	subs	r3, r6, #1
20000a5a:	9301      	str	r3, [sp, #4]
20000a5c:	2b06      	cmp	r3, #6
20000a5e:	d932      	bls.n	20000ac6 <prepare_ep_buffer+0xb6>
20000a60:	0023      	movs	r3, r4
20000a62:	430b      	orrs	r3, r1
20000a64:	079b      	lsls	r3, r3, #30
20000a66:	d12e      	bne.n	20000ac6 <prepare_ep_buffer+0xb6>
20000a68:	1a63      	subs	r3, r4, r1
20000a6a:	3b01      	subs	r3, #1
20000a6c:	2b02      	cmp	r3, #2
20000a6e:	d92a      	bls.n	20000ac6 <prepare_ep_buffer+0xb6>
20000a70:	2300      	movs	r3, #0
20000a72:	08b7      	lsrs	r7, r6, #2
20000a74:	00bf      	lsls	r7, r7, #2
20000a76:	58cd      	ldr	r5, [r1, r3]
20000a78:	50e5      	str	r5, [r4, r3]
20000a7a:	3304      	adds	r3, #4
20000a7c:	42bb      	cmp	r3, r7
20000a7e:	d1fa      	bne.n	20000a76 <prepare_ep_buffer+0x66>
20000a80:	429e      	cmp	r6, r3
20000a82:	d00e      	beq.n	20000aa2 <prepare_ep_buffer+0x92>
20000a84:	9d01      	ldr	r5, [sp, #4]
20000a86:	18e4      	adds	r4, r4, r3
20000a88:	1aef      	subs	r7, r5, r3
20000a8a:	18cd      	adds	r5, r1, r3
20000a8c:	5cc9      	ldrb	r1, [r1, r3]
20000a8e:	7021      	strb	r1, [r4, #0]
20000a90:	9901      	ldr	r1, [sp, #4]
20000a92:	4299      	cmp	r1, r3
20000a94:	d005      	beq.n	20000aa2 <prepare_ep_buffer+0x92>
20000a96:	786b      	ldrb	r3, [r5, #1]
20000a98:	7063      	strb	r3, [r4, #1]
20000a9a:	2f01      	cmp	r7, #1
20000a9c:	d001      	beq.n	20000aa2 <prepare_ep_buffer+0x92>
20000a9e:	78ab      	ldrb	r3, [r5, #2]
20000aa0:	70a3      	strb	r3, [r4, #2]
20000aa2:	6911      	ldr	r1, [r2, #16]
20000aa4:	8a94      	ldrh	r4, [r2, #20]
20000aa6:	2380      	movs	r3, #128	@ 0x80
20000aa8:	1989      	adds	r1, r1, r6
20000aaa:	021b      	lsls	r3, r3, #8
20000aac:	6111      	str	r1, [r2, #16]
20000aae:	4318      	orrs	r0, r3
20000ab0:	2c00      	cmp	r4, #0
20000ab2:	d102      	bne.n	20000aba <prepare_ep_buffer+0xaa>
20000ab4:	2380      	movs	r3, #128	@ 0x80
20000ab6:	01db      	lsls	r3, r3, #7
20000ab8:	4318      	orrs	r0, r3
20000aba:	4663      	mov	r3, ip
20000abc:	2b00      	cmp	r3, #0
20000abe:	d000      	beq.n	20000ac2 <prepare_ep_buffer+0xb2>
20000ac0:	0400      	lsls	r0, r0, #16
20000ac2:	b003      	add	sp, #12
20000ac4:	bdf0      	pop	{r4, r5, r6, r7, pc}
20000ac6:	2300      	movs	r3, #0
20000ac8:	5ccd      	ldrb	r5, [r1, r3]
20000aca:	54e5      	strb	r5, [r4, r3]
20000acc:	3301      	adds	r3, #1
20000ace:	429e      	cmp	r6, r3
20000ad0:	d1fa      	bne.n	20000ac8 <prepare_ep_buffer+0xb8>
20000ad2:	e7e6      	b.n	20000aa2 <prepare_ep_buffer+0x92>

20000ad4 <sync_ep_buffer>:
20000ad4:	6883      	ldr	r3, [r0, #8]
20000ad6:	b5f0      	push	{r4, r5, r6, r7, lr}
20000ad8:	681a      	ldr	r2, [r3, #0]
20000ada:	2900      	cmp	r1, #0
20000adc:	d000      	beq.n	20000ae0 <sync_ep_buffer+0xc>
20000ade:	0c12      	lsrs	r2, r2, #16
20000ae0:	7843      	ldrb	r3, [r0, #1]
20000ae2:	0592      	lsls	r2, r2, #22
20000ae4:	0d95      	lsrs	r5, r2, #22
20000ae6:	2b00      	cmp	r3, #0
20000ae8:	d109      	bne.n	20000afe <sync_ep_buffer+0x2a>
20000aea:	8ac3      	ldrh	r3, [r0, #22]
20000aec:	18eb      	adds	r3, r5, r3
20000aee:	82c3      	strh	r3, [r0, #22]
20000af0:	8b03      	ldrh	r3, [r0, #24]
20000af2:	42ab      	cmp	r3, r5
20000af4:	d901      	bls.n	20000afa <sync_ep_buffer+0x26>
20000af6:	2300      	movs	r3, #0
20000af8:	8283      	strh	r3, [r0, #20]
20000afa:	0028      	movs	r0, r5
20000afc:	bdf0      	pop	{r4, r5, r6, r7, pc}
20000afe:	6904      	ldr	r4, [r0, #16]
20000b00:	2d00      	cmp	r5, #0
20000b02:	d028      	beq.n	20000b56 <sync_ep_buffer+0x82>
20000b04:	68c3      	ldr	r3, [r0, #12]
20000b06:	0189      	lsls	r1, r1, #6
20000b08:	1e6f      	subs	r7, r5, #1
20000b0a:	46bc      	mov	ip, r7
20000b0c:	185e      	adds	r6, r3, r1
20000b0e:	2f06      	cmp	r7, #6
20000b10:	d927      	bls.n	20000b62 <sync_ep_buffer+0x8e>
20000b12:	3101      	adds	r1, #1
20000b14:	185b      	adds	r3, r3, r1
20000b16:	1ae3      	subs	r3, r4, r3
20000b18:	2b02      	cmp	r3, #2
20000b1a:	d922      	bls.n	20000b62 <sync_ep_buffer+0x8e>
20000b1c:	0023      	movs	r3, r4
20000b1e:	4333      	orrs	r3, r6
20000b20:	079b      	lsls	r3, r3, #30
20000b22:	d11e      	bne.n	20000b62 <sync_ep_buffer+0x8e>
20000b24:	2300      	movs	r3, #0
20000b26:	0e12      	lsrs	r2, r2, #24
20000b28:	0092      	lsls	r2, r2, #2
20000b2a:	58f1      	ldr	r1, [r6, r3]
20000b2c:	50e1      	str	r1, [r4, r3]
20000b2e:	3304      	adds	r3, #4
20000b30:	429a      	cmp	r2, r3
20000b32:	d1fa      	bne.n	20000b2a <sync_ep_buffer+0x56>
20000b34:	4295      	cmp	r5, r2
20000b36:	d00d      	beq.n	20000b54 <sync_ep_buffer+0x80>
20000b38:	4663      	mov	r3, ip
20000b3a:	1a9f      	subs	r7, r3, r2
20000b3c:	18a3      	adds	r3, r4, r2
20000b3e:	5cb4      	ldrb	r4, [r6, r2]
20000b40:	18b1      	adds	r1, r6, r2
20000b42:	701c      	strb	r4, [r3, #0]
20000b44:	4594      	cmp	ip, r2
20000b46:	d005      	beq.n	20000b54 <sync_ep_buffer+0x80>
20000b48:	784a      	ldrb	r2, [r1, #1]
20000b4a:	705a      	strb	r2, [r3, #1]
20000b4c:	2f01      	cmp	r7, #1
20000b4e:	d001      	beq.n	20000b54 <sync_ep_buffer+0x80>
20000b50:	788a      	ldrb	r2, [r1, #2]
20000b52:	709a      	strb	r2, [r3, #2]
20000b54:	6904      	ldr	r4, [r0, #16]
20000b56:	8ac3      	ldrh	r3, [r0, #22]
20000b58:	1964      	adds	r4, r4, r5
20000b5a:	18eb      	adds	r3, r5, r3
20000b5c:	82c3      	strh	r3, [r0, #22]
20000b5e:	6104      	str	r4, [r0, #16]
20000b60:	e7c6      	b.n	20000af0 <sync_ep_buffer+0x1c>
20000b62:	2200      	movs	r2, #0
20000b64:	5cb3      	ldrb	r3, [r6, r2]
20000b66:	54a3      	strb	r3, [r4, r2]
20000b68:	3201      	adds	r2, #1
20000b6a:	4295      	cmp	r5, r2
20000b6c:	d1fa      	bne.n	20000b64 <sync_ep_buffer+0x90>
20000b6e:	6904      	ldr	r4, [r0, #16]
20000b70:	e7f1      	b.n	20000b56 <sync_ep_buffer+0x82>
20000b72:	46c0      	nop			@ (mov r8, r8)

20000b74 <_hw_endpoint_xfer_sync>:
20000b74:	b510      	push	{r4, lr}
20000b76:	0004      	movs	r4, r0
20000b78:	6883      	ldr	r3, [r0, #8]
20000b7a:	2100      	movs	r1, #0
20000b7c:	681b      	ldr	r3, [r3, #0]
20000b7e:	f7ff ffa9 	bl	20000ad4 <sync_ep_buffer>
20000b82:	6863      	ldr	r3, [r4, #4]
20000b84:	681b      	ldr	r3, [r3, #0]
20000b86:	005b      	lsls	r3, r3, #1
20000b88:	d502      	bpl.n	20000b90 <_hw_endpoint_xfer_sync+0x1c>
20000b8a:	8b23      	ldrh	r3, [r4, #24]
20000b8c:	4283      	cmp	r3, r0
20000b8e:	d000      	beq.n	20000b92 <_hw_endpoint_xfer_sync+0x1e>
20000b90:	bd10      	pop	{r4, pc}
20000b92:	2101      	movs	r1, #1
20000b94:	0020      	movs	r0, r4
20000b96:	f7ff ff9d 	bl	20000ad4 <sync_ep_buffer>
20000b9a:	e7f9      	b.n	20000b90 <_hw_endpoint_xfer_sync+0x1c>

20000b9c <e15_is_bulkin_ep>:
20000b9c:	4b08      	ldr	r3, [pc, #32]	@ (20000bc0 <e15_is_bulkin_ep+0x24>)
20000b9e:	6c1a      	ldr	r2, [r3, #64]	@ 0x40
20000ba0:	2300      	movs	r3, #0
20000ba2:	0792      	lsls	r2, r2, #30
20000ba4:	d403      	bmi.n	20000bae <e15_is_bulkin_ep+0x12>
20000ba6:	7882      	ldrb	r2, [r0, #2]
20000ba8:	09d2      	lsrs	r2, r2, #7
20000baa:	2a01      	cmp	r2, #1
20000bac:	d001      	beq.n	20000bb2 <e15_is_bulkin_ep+0x16>
20000bae:	0018      	movs	r0, r3
20000bb0:	4770      	bx	lr
20000bb2:	7ec3      	ldrb	r3, [r0, #27]
20000bb4:	3b02      	subs	r3, #2
20000bb6:	425a      	negs	r2, r3
20000bb8:	4153      	adcs	r3, r2
20000bba:	b2db      	uxtb	r3, r3
20000bbc:	e7f7      	b.n	20000bae <e15_is_bulkin_ep+0x12>
20000bbe:	46c0      	nop			@ (mov r8, r8)
20000bc0:	50110000 	.word	0x50110000

20000bc4 <e15_is_critical_frame_period>:
20000bc4:	b510      	push	{r4, lr}
20000bc6:	f7ff ffe9 	bl	20000b9c <e15_is_bulkin_ep>
20000bca:	2800      	cmp	r0, #0
20000bcc:	d00a      	beq.n	20000be4 <e15_is_critical_frame_period+0x20>
20000bce:	4b06      	ldr	r3, [pc, #24]	@ (20000be8 <e15_is_critical_frame_period+0x24>)
20000bd0:	4a06      	ldr	r2, [pc, #24]	@ (20000bec <e15_is_critical_frame_period+0x28>)
20000bd2:	6a9b      	ldr	r3, [r3, #40]	@ 0x28
20000bd4:	4906      	ldr	r1, [pc, #24]	@ (20000bf0 <e15_is_critical_frame_period+0x2c>)
20000bd6:	6812      	ldr	r2, [r2, #0]
20000bd8:	185b      	adds	r3, r3, r1
20000bda:	1a9b      	subs	r3, r3, r2
20000bdc:	2000      	movs	r0, #0
20000bde:	22c6      	movs	r2, #198	@ 0xc6
20000be0:	429a      	cmp	r2, r3
20000be2:	4140      	adcs	r0, r0
20000be4:	bd10      	pop	{r4, pc}
20000be6:	46c0      	nop			@ (mov r8, r8)
20000be8:	40054000 	.word	0x40054000
20000bec:	20004b28 	.word	0x20004b28
20000bf0:	fffffce0 	.word	0xfffffce0

20000bf4 <hw_endpoint_reset_transfer>:
20000bf4:	2300      	movs	r3, #0
20000bf6:	7683      	strb	r3, [r0, #26]
20000bf8:	6143      	str	r3, [r0, #20]
20000bfa:	6103      	str	r3, [r0, #16]
20000bfc:	4770      	bx	lr
20000bfe:	46c0      	nop			@ (mov r8, r8)

20000c00 <_hw_endpoint_buffer_control_update32>:
20000c00:	b510      	push	{r4, lr}
20000c02:	6883      	ldr	r3, [r0, #8]
20000c04:	2900      	cmp	r1, #0
20000c06:	d001      	beq.n	20000c0c <_hw_endpoint_buffer_control_update32+0xc>
20000c08:	681c      	ldr	r4, [r3, #0]
20000c0a:	4021      	ands	r1, r4
20000c0c:	2a00      	cmp	r2, #0
20000c0e:	d012      	beq.n	20000c36 <_hw_endpoint_buffer_control_update32+0x36>
20000c10:	2480      	movs	r4, #128	@ 0x80
20000c12:	00e4      	lsls	r4, r4, #3
20000c14:	4311      	orrs	r1, r2
20000c16:	4222      	tst	r2, r4
20000c18:	d00d      	beq.n	20000c36 <_hw_endpoint_buffer_control_update32+0x36>
20000c1a:	681a      	ldr	r2, [r3, #0]
20000c1c:	4222      	tst	r2, r4
20000c1e:	d10c      	bne.n	20000c3a <_hw_endpoint_buffer_control_update32+0x3a>
20000c20:	4a08      	ldr	r2, [pc, #32]	@ (20000c44 <_hw_endpoint_buffer_control_update32+0x44>)
20000c22:	400a      	ands	r2, r1
20000c24:	601a      	str	r2, [r3, #0]
20000c26:	4a08      	ldr	r2, [pc, #32]	@ (20000c48 <_hw_endpoint_buffer_control_update32+0x48>)
20000c28:	6c12      	ldr	r2, [r2, #64]	@ 0x40
20000c2a:	0792      	lsls	r2, r2, #30
20000c2c:	d403      	bmi.n	20000c36 <_hw_endpoint_buffer_control_update32+0x36>
20000c2e:	230c      	movs	r3, #12
20000c30:	3b03      	subs	r3, #3
20000c32:	d2fd      	bcs.n	20000c30 <_hw_endpoint_buffer_control_update32+0x30>
20000c34:	6883      	ldr	r3, [r0, #8]
20000c36:	6019      	str	r1, [r3, #0]
20000c38:	bd10      	pop	{r4, pc}
20000c3a:	7881      	ldrb	r1, [r0, #2]
20000c3c:	4803      	ldr	r0, [pc, #12]	@ (20000c4c <_hw_endpoint_buffer_control_update32+0x4c>)
20000c3e:	f000 f9ab 	bl	20000f98 <__panic_veneer>
20000c42:	46c0      	nop			@ (mov r8, r8)
20000c44:	fffffbff 	.word	0xfffffbff
20000c48:	50110000 	.word	0x50110000
20000c4c:	1000ae84 	.word	0x1000ae84

20000c50 <hw_endpoint_start_next_buffer>:
20000c50:	6843      	ldr	r3, [r0, #4]
20000c52:	b570      	push	{r4, r5, r6, lr}
20000c54:	2100      	movs	r1, #0
20000c56:	2580      	movs	r5, #128	@ 0x80
20000c58:	0004      	movs	r4, r0
20000c5a:	681e      	ldr	r6, [r3, #0]
20000c5c:	f7ff fed8 	bl	20000a10 <prepare_ep_buffer>
20000c60:	4b12      	ldr	r3, [pc, #72]	@ (20000cac <hw_endpoint_start_next_buffer+0x5c>)
20000c62:	016d      	lsls	r5, r5, #5
20000c64:	6c1a      	ldr	r2, [r3, #64]	@ 0x40
20000c66:	4305      	orrs	r5, r0
20000c68:	78a3      	ldrb	r3, [r4, #2]
20000c6a:	0792      	lsls	r2, r2, #30
20000c6c:	d50e      	bpl.n	20000c8c <hw_endpoint_start_next_buffer+0x3c>
20000c6e:	065b      	lsls	r3, r3, #25
20000c70:	d00e      	beq.n	20000c90 <hw_endpoint_start_next_buffer+0x40>
20000c72:	4b0f      	ldr	r3, [pc, #60]	@ (20000cb0 <hw_endpoint_start_next_buffer+0x60>)
20000c74:	401e      	ands	r6, r3
20000c76:	2380      	movs	r3, #128	@ 0x80
20000c78:	059b      	lsls	r3, r3, #22
20000c7a:	4333      	orrs	r3, r6
20000c7c:	6862      	ldr	r2, [r4, #4]
20000c7e:	2100      	movs	r1, #0
20000c80:	6013      	str	r3, [r2, #0]
20000c82:	0020      	movs	r0, r4
20000c84:	002a      	movs	r2, r5
20000c86:	f7ff ffbb 	bl	20000c00 <_hw_endpoint_buffer_control_update32>
20000c8a:	bd70      	pop	{r4, r5, r6, pc}
20000c8c:	09db      	lsrs	r3, r3, #7
20000c8e:	d0f0      	beq.n	20000c72 <hw_endpoint_start_next_buffer+0x22>
20000c90:	8aa3      	ldrh	r3, [r4, #20]
20000c92:	2b00      	cmp	r3, #0
20000c94:	d0ed      	beq.n	20000c72 <hw_endpoint_start_next_buffer+0x22>
20000c96:	2101      	movs	r1, #1
20000c98:	0020      	movs	r0, r4
20000c9a:	f7ff feb9 	bl	20000a10 <prepare_ep_buffer>
20000c9e:	23a0      	movs	r3, #160	@ 0xa0
20000ca0:	4a04      	ldr	r2, [pc, #16]	@ (20000cb4 <hw_endpoint_start_next_buffer+0x64>)
20000ca2:	05db      	lsls	r3, r3, #23
20000ca4:	4032      	ands	r2, r6
20000ca6:	4305      	orrs	r5, r0
20000ca8:	4313      	orrs	r3, r2
20000caa:	e7e7      	b.n	20000c7c <hw_endpoint_start_next_buffer+0x2c>
20000cac:	50110000 	.word	0x50110000
20000cb0:	afffffff 	.word	0xafffffff
20000cb4:	dfffffff 	.word	0xdfffffff

20000cb8 <hw_endpoint_xfer_continue>:
20000cb8:	b570      	push	{r4, r5, r6, lr}
20000cba:	7e85      	ldrb	r5, [r0, #26]
20000cbc:	0004      	movs	r4, r0
20000cbe:	2d00      	cmp	r5, #0
20000cc0:	d014      	beq.n	20000cec <hw_endpoint_xfer_continue+0x34>
20000cc2:	f7ff ff57 	bl	20000b74 <_hw_endpoint_xfer_sync>
20000cc6:	8aa3      	ldrh	r3, [r4, #20]
20000cc8:	2b00      	cmp	r3, #0
20000cca:	d101      	bne.n	20000cd0 <hw_endpoint_xfer_continue+0x18>
20000ccc:	0028      	movs	r0, r5
20000cce:	bd70      	pop	{r4, r5, r6, pc}
20000cd0:	0020      	movs	r0, r4
20000cd2:	f7ff ff77 	bl	20000bc4 <e15_is_critical_frame_period>
20000cd6:	2800      	cmp	r0, #0
20000cd8:	d003      	beq.n	20000ce2 <hw_endpoint_xfer_continue+0x2a>
20000cda:	2301      	movs	r3, #1
20000cdc:	2500      	movs	r5, #0
20000cde:	7723      	strb	r3, [r4, #28]
20000ce0:	e7f4      	b.n	20000ccc <hw_endpoint_xfer_continue+0x14>
20000ce2:	0020      	movs	r0, r4
20000ce4:	f7ff ffb4 	bl	20000c50 <hw_endpoint_start_next_buffer>
20000ce8:	2500      	movs	r5, #0
20000cea:	e7ef      	b.n	20000ccc <hw_endpoint_xfer_continue+0x14>
20000cec:	7881      	ldrb	r1, [r0, #2]
20000cee:	4801      	ldr	r0, [pc, #4]	@ (20000cf4 <hw_endpoint_xfer_continue+0x3c>)
20000cf0:	f000 f952 	bl	20000f98 <__panic_veneer>
20000cf4:	1000aea4 	.word	0x1000aea4

20000cf8 <dcd_event_handler>:
20000cf8:	b5f0      	push	{r4, r5, r6, r7, lr}
20000cfa:	4647      	mov	r7, r8
20000cfc:	46ce      	mov	lr, r9
20000cfe:	b580      	push	{r7, lr}
20000d00:	7843      	ldrb	r3, [r0, #1]
20000d02:	0005      	movs	r5, r0
20000d04:	000f      	movs	r7, r1
20000d06:	b085      	sub	sp, #20
20000d08:	2b06      	cmp	r3, #6
20000d0a:	d807      	bhi.n	20000d1c <dcd_event_handler+0x24>
20000d0c:	4a69      	ldr	r2, [pc, #420]	@ (20000eb4 <dcd_event_handler+0x1bc>)
20000d0e:	009b      	lsls	r3, r3, #2
20000d10:	58d3      	ldr	r3, [r2, r3]
20000d12:	469f      	mov	pc, r3
20000d14:	4a68      	ldr	r2, [pc, #416]	@ (20000eb8 <dcd_event_handler+0x1c0>)
20000d16:	7813      	ldrb	r3, [r2, #0]
20000d18:	3301      	adds	r3, #1
20000d1a:	7013      	strb	r3, [r2, #0]
20000d1c:	4b67      	ldr	r3, [pc, #412]	@ (20000ebc <dcd_event_handler+0x1c4>)
20000d1e:	681c      	ldr	r4, [r3, #0]
20000d20:	6962      	ldr	r2, [r4, #20]
20000d22:	f3ef 8110 	mrs	r1, PRIMASK
20000d26:	b672      	cpsid	i
20000d28:	6813      	ldr	r3, [r2, #0]
20000d2a:	2b00      	cmp	r3, #0
20000d2c:	d0fc      	beq.n	20000d28 <dcd_event_handler+0x30>
20000d2e:	f3bf 8f5f 	dmb	sy
20000d32:	61a1      	str	r1, [r4, #24]
20000d34:	0020      	movs	r0, r4
20000d36:	0029      	movs	r1, r5
20000d38:	f000 f916 	bl	20000f68 <__tu_fifo_write_veneer>
20000d3c:	6962      	ldr	r2, [r4, #20]
20000d3e:	69a3      	ldr	r3, [r4, #24]
20000d40:	f3bf 8f5f 	dmb	sy
20000d44:	2100      	movs	r1, #0
20000d46:	6011      	str	r1, [r2, #0]
20000d48:	f383 8810 	msr	PRIMASK, r3
20000d4c:	2800      	cmp	r0, #0
20000d4e:	d104      	bne.n	20000d5a <dcd_event_handler+0x62>
20000d50:	b005      	add	sp, #20
20000d52:	bcc0      	pop	{r6, r7}
20000d54:	46b9      	mov	r9, r7
20000d56:	46b0      	mov	r8, r6
20000d58:	bdf0      	pop	{r4, r5, r6, r7, pc}
20000d5a:	003a      	movs	r2, r7
20000d5c:	7869      	ldrb	r1, [r5, #1]
20000d5e:	7828      	ldrb	r0, [r5, #0]
20000d60:	f000 f8da 	bl	20000f18 <__tud_event_hook_cb_veneer>
20000d64:	e7f4      	b.n	20000d50 <dcd_event_handler+0x58>
20000d66:	2101      	movs	r1, #1
20000d68:	4b55      	ldr	r3, [pc, #340]	@ (20000ec0 <dcd_event_handler+0x1c8>)
20000d6a:	781a      	ldrb	r2, [r3, #0]
20000d6c:	438a      	bics	r2, r1
20000d6e:	701a      	strb	r2, [r3, #0]
20000d70:	781a      	ldrb	r2, [r3, #0]
20000d72:	3101      	adds	r1, #1
20000d74:	438a      	bics	r2, r1
20000d76:	701a      	strb	r2, [r3, #0]
20000d78:	2200      	movs	r2, #0
20000d7a:	705a      	strb	r2, [r3, #1]
20000d7c:	781a      	ldrb	r2, [r3, #0]
20000d7e:	3102      	adds	r1, #2
20000d80:	438a      	bics	r2, r1
20000d82:	701a      	strb	r2, [r3, #0]
20000d84:	e7ca      	b.n	20000d1c <dcd_event_handler+0x24>
20000d86:	494f      	ldr	r1, [pc, #316]	@ (20000ec4 <dcd_event_handler+0x1cc>)
20000d88:	4b4f      	ldr	r3, [pc, #316]	@ (20000ec8 <dcd_event_handler+0x1d0>)
20000d8a:	4688      	mov	r8, r1
20000d8c:	494f      	ldr	r1, [pc, #316]	@ (20000ecc <dcd_event_handler+0x1d4>)
20000d8e:	001e      	movs	r6, r3
20000d90:	781a      	ldrb	r2, [r3, #0]
20000d92:	2400      	movs	r4, #0
20000d94:	2300      	movs	r3, #0
20000d96:	4689      	mov	r9, r1
20000d98:	e012      	b.n	20000dc0 <dcd_event_handler+0xc8>
20000d9a:	464b      	mov	r3, r9
20000d9c:	681b      	ldr	r3, [r3, #0]
20000d9e:	0161      	lsls	r1, r4, #5
20000da0:	185b      	adds	r3, r3, r1
20000da2:	2b00      	cmp	r3, #0
20000da4:	d006      	beq.n	20000db4 <dcd_event_handler+0xbc>
20000da6:	69db      	ldr	r3, [r3, #28]
20000da8:	2b00      	cmp	r3, #0
20000daa:	d003      	beq.n	20000db4 <dcd_event_handler+0xbc>
20000dac:	6869      	ldr	r1, [r5, #4]
20000dae:	7828      	ldrb	r0, [r5, #0]
20000db0:	4798      	blx	r3
20000db2:	7832      	ldrb	r2, [r6, #0]
20000db4:	3401      	adds	r4, #1
20000db6:	b2e4      	uxtb	r4, r4
20000db8:	1c51      	adds	r1, r2, #1
20000dba:	0023      	movs	r3, r4
20000dbc:	42a1      	cmp	r1, r4
20000dbe:	db17      	blt.n	20000df0 <dcd_event_handler+0xf8>
20000dc0:	42a2      	cmp	r2, r4
20000dc2:	d8ea      	bhi.n	20000d9a <dcd_event_handler+0xa2>
20000dc4:	1a9b      	subs	r3, r3, r2
20000dc6:	015b      	lsls	r3, r3, #5
20000dc8:	4443      	add	r3, r8
20000dca:	e7ec      	b.n	20000da6 <dcd_event_handler+0xae>
20000dcc:	4b3c      	ldr	r3, [pc, #240]	@ (20000ec0 <dcd_event_handler+0x1c8>)
20000dce:	781a      	ldrb	r2, [r3, #0]
20000dd0:	07d2      	lsls	r2, r2, #31
20000dd2:	d5bd      	bpl.n	20000d50 <dcd_event_handler+0x58>
20000dd4:	2104      	movs	r1, #4
20000dd6:	781a      	ldrb	r2, [r3, #0]
20000dd8:	430a      	orrs	r2, r1
20000dda:	701a      	strb	r2, [r3, #0]
20000ddc:	e79e      	b.n	20000d1c <dcd_event_handler+0x24>
20000dde:	4b38      	ldr	r3, [pc, #224]	@ (20000ec0 <dcd_event_handler+0x1c8>)
20000de0:	781a      	ldrb	r2, [r3, #0]
20000de2:	07d2      	lsls	r2, r2, #31
20000de4:	d5b4      	bpl.n	20000d50 <dcd_event_handler+0x58>
20000de6:	2104      	movs	r1, #4
20000de8:	781a      	ldrb	r2, [r3, #0]
20000dea:	438a      	bics	r2, r1
20000dec:	701a      	strb	r2, [r3, #0]
20000dee:	e795      	b.n	20000d1c <dcd_event_handler+0x24>
20000df0:	4a33      	ldr	r2, [pc, #204]	@ (20000ec0 <dcd_event_handler+0x1c8>)
20000df2:	7813      	ldrb	r3, [r2, #0]
20000df4:	4690      	mov	r8, r2
20000df6:	0011      	movs	r1, r2
20000df8:	075b      	lsls	r3, r3, #29
20000dfa:	d528      	bpl.n	20000e4e <dcd_event_handler+0x156>
20000dfc:	7813      	ldrb	r3, [r2, #0]
20000dfe:	2204      	movs	r2, #4
20000e00:	ac01      	add	r4, sp, #4
20000e02:	4393      	bics	r3, r2
20000e04:	700b      	strb	r3, [r1, #0]
20000e06:	0020      	movs	r0, r4
20000e08:	2100      	movs	r1, #0
20000e0a:	3208      	adds	r2, #8
20000e0c:	f000 f89c 	bl	20000f48 <____wrap_memset_veneer>
20000e10:	782b      	ldrb	r3, [r5, #0]
20000e12:	7023      	strb	r3, [r4, #0]
20000e14:	2305      	movs	r3, #5
20000e16:	7063      	strb	r3, [r4, #1]
20000e18:	4b28      	ldr	r3, [pc, #160]	@ (20000ebc <dcd_event_handler+0x1c4>)
20000e1a:	681b      	ldr	r3, [r3, #0]
20000e1c:	0018      	movs	r0, r3
20000e1e:	695a      	ldr	r2, [r3, #20]
20000e20:	f3ef 8110 	mrs	r1, PRIMASK
20000e24:	b672      	cpsid	i
20000e26:	6813      	ldr	r3, [r2, #0]
20000e28:	2b00      	cmp	r3, #0
20000e2a:	d0fc      	beq.n	20000e26 <dcd_event_handler+0x12e>
20000e2c:	f3bf 8f5f 	dmb	sy
20000e30:	0006      	movs	r6, r0
20000e32:	6181      	str	r1, [r0, #24]
20000e34:	0021      	movs	r1, r4
20000e36:	f000 f897 	bl	20000f68 <__tu_fifo_write_veneer>
20000e3a:	6972      	ldr	r2, [r6, #20]
20000e3c:	69b3      	ldr	r3, [r6, #24]
20000e3e:	f3bf 8f5f 	dmb	sy
20000e42:	2100      	movs	r1, #0
20000e44:	6011      	str	r1, [r2, #0]
20000e46:	f383 8810 	msr	PRIMASK, r3
20000e4a:	2800      	cmp	r0, #0
20000e4c:	d12c      	bne.n	20000ea8 <dcd_event_handler+0x1b0>
20000e4e:	4643      	mov	r3, r8
20000e50:	78db      	ldrb	r3, [r3, #3]
20000e52:	07db      	lsls	r3, r3, #31
20000e54:	d400      	bmi.n	20000e58 <dcd_event_handler+0x160>
20000e56:	e77b      	b.n	20000d50 <dcd_event_handler+0x58>
20000e58:	782b      	ldrb	r3, [r5, #0]
20000e5a:	ac01      	add	r4, sp, #4
20000e5c:	7023      	strb	r3, [r4, #0]
20000e5e:	2303      	movs	r3, #3
20000e60:	7063      	strb	r3, [r4, #1]
20000e62:	686b      	ldr	r3, [r5, #4]
20000e64:	6063      	str	r3, [r4, #4]
20000e66:	4b15      	ldr	r3, [pc, #84]	@ (20000ebc <dcd_event_handler+0x1c4>)
20000e68:	681d      	ldr	r5, [r3, #0]
20000e6a:	696a      	ldr	r2, [r5, #20]
20000e6c:	f3ef 8110 	mrs	r1, PRIMASK
20000e70:	b672      	cpsid	i
20000e72:	6813      	ldr	r3, [r2, #0]
20000e74:	2b00      	cmp	r3, #0
20000e76:	d0fc      	beq.n	20000e72 <dcd_event_handler+0x17a>
20000e78:	f3bf 8f5f 	dmb	sy
20000e7c:	61a9      	str	r1, [r5, #24]
20000e7e:	0028      	movs	r0, r5
20000e80:	0021      	movs	r1, r4
20000e82:	f000 f871 	bl	20000f68 <__tu_fifo_write_veneer>
20000e86:	696a      	ldr	r2, [r5, #20]
20000e88:	69ab      	ldr	r3, [r5, #24]
20000e8a:	f3bf 8f5f 	dmb	sy
20000e8e:	2100      	movs	r1, #0
20000e90:	6011      	str	r1, [r2, #0]
20000e92:	f383 8810 	msr	PRIMASK, r3
20000e96:	2800      	cmp	r0, #0
20000e98:	d100      	bne.n	20000e9c <dcd_event_handler+0x1a4>
20000e9a:	e759      	b.n	20000d50 <dcd_event_handler+0x58>
20000e9c:	003a      	movs	r2, r7
20000e9e:	7861      	ldrb	r1, [r4, #1]
20000ea0:	7820      	ldrb	r0, [r4, #0]
20000ea2:	f000 f839 	bl	20000f18 <__tud_event_hook_cb_veneer>
20000ea6:	e753      	b.n	20000d50 <dcd_event_handler+0x58>
20000ea8:	003a      	movs	r2, r7
20000eaa:	7861      	ldrb	r1, [r4, #1]
20000eac:	7820      	ldrb	r0, [r4, #0]
20000eae:	f000 f833 	bl	20000f18 <__tud_event_hook_cb_veneer>
20000eb2:	e7cc      	b.n	20000e4e <dcd_event_handler+0x156>
20000eb4:	1000b7cc 	.word	0x1000b7cc
20000eb8:	2000f06e 	.word	0x2000f06e
20000ebc:	20003060 	.word	0x20003060
20000ec0:	20003008 	.word	0x20003008
20000ec4:	1000b7e8 	.word	0x1000b7e8
20000ec8:	2000f06c 	.word	0x2000f06c
20000ecc:	20002f20 	.word	0x20002f20

20000ed0 <tud_audio_feedback_interval_isr>:
20000ed0:	4770      	bx	lr
20000ed2:	46c0      	nop			@ (mov r8, r8)

20000ed4 <audiod_sof_isr>:
20000ed4:	b570      	push	{r4, r5, r6, lr}
20000ed6:	4d0e      	ldr	r5, [pc, #56]	@ (20000f10 <audiod_sof_isr+0x3c>)
20000ed8:	000c      	movs	r4, r1
20000eda:	7b6b      	ldrb	r3, [r5, #13]
20000edc:	2b00      	cmp	r3, #0
20000ede:	d010      	beq.n	20000f02 <audiod_sof_isr+0x2e>
20000ee0:	f000 f82a 	bl	20000f38 <__tud_speed_get_veneer>
20000ee4:	3802      	subs	r0, #2
20000ee6:	1e43      	subs	r3, r0, #1
20000ee8:	4198      	sbcs	r0, r3
20000eea:	2302      	movs	r3, #2
20000eec:	4240      	negs	r0, r0
20000eee:	4398      	bics	r0, r3
20000ef0:	331e      	adds	r3, #30
20000ef2:	5cea      	ldrb	r2, [r5, r3]
20000ef4:	3003      	adds	r0, #3
20000ef6:	1a10      	subs	r0, r2, r0
20000ef8:	3b21      	subs	r3, #33	@ 0x21
20000efa:	4083      	lsls	r3, r0
20000efc:	0021      	movs	r1, r4
20000efe:	4399      	bics	r1, r3
20000f00:	d000      	beq.n	20000f04 <audiod_sof_isr+0x30>
20000f02:	bd70      	pop	{r4, r5, r6, pc}
20000f04:	0021      	movs	r1, r4
20000f06:	2000      	movs	r0, #0
20000f08:	f7ff ffe2 	bl	20000ed0 <tud_audio_feedback_interval_isr>
20000f0c:	e7f9      	b.n	20000f02 <audiod_sof_isr+0x2e>
20000f0e:	46c0      	nop			@ (mov r8, r8)
20000f10:	20001078 	.word	0x20001078

20000f14 <__aeabi_idiv0>:
20000f14:	4770      	bx	lr
20000f16:	46c0      	nop			@ (mov r8, r8)

20000f18 <__tud_event_hook_cb_veneer>:
20000f18:	b401      	push	{r0}
20000f1a:	4802      	ldr	r0, [pc, #8]	@ (20000f24 <__tud_event_hook_cb_veneer+0xc>)
20000f1c:	4684      	mov	ip, r0
20000f1e:	bc01      	pop	{r0}
20000f20:	4760      	bx	ip
20000f22:	bf00      	nop
20000f24:	10007ad9 	.word	0x10007ad9

20000f28 <____wrap___aeabi_lmul_veneer>:
20000f28:	b401      	push	{r0}
20000f2a:	4802      	ldr	r0, [pc, #8]	@ (20000f34 <____wrap___aeabi_lmul_veneer+0xc>)
20000f2c:	4684      	mov	ip, r0
20000f2e:	bc01      	pop	{r0}
20000f30:	4760      	bx	ip
20000f32:	bf00      	nop
20000f34:	10005471 	.word	0x10005471

20000f38 <__tud_speed_get_veneer>:
20000f38:	b401      	push	{r0}
20000f3a:	4802      	ldr	r0, [pc, #8]	@ (20000f44 <__tud_speed_get_veneer+0xc>)
20000f3c:	4684      	mov	ip, r0
20000f3e:	bc01      	pop	{r0}
20000f40:	4760      	bx	ip
20000f42:	bf00      	nop
20000f44:	10007afd 	.word	0x10007afd

20000f48 <____wrap_memset_veneer>:
20000f48:	b401      	push	{r0}
20000f4a:	4802      	ldr	r0, [pc, #8]	@ (20000f54 <____wrap_memset_veneer+0xc>)
20000f4c:	4684      	mov	ip, r0
20000f4e:	bc01      	pop	{r0}
20000f50:	4760      	bx	ip
20000f52:	bf00      	nop
20000f54:	100055ed 	.word	0x100055ed

20000f58 <__best_effort_wfe_or_timeout_veneer>:
20000f58:	b401      	push	{r0}
20000f5a:	4802      	ldr	r0, [pc, #8]	@ (20000f64 <__best_effort_wfe_or_timeout_veneer+0xc>)
20000f5c:	4684      	mov	ip, r0
20000f5e:	bc01      	pop	{r0}
20000f60:	4760      	bx	ip
20000f62:	bf00      	nop
20000f64:	10004019 	.word	0x10004019

20000f68 <__tu_fifo_write_veneer>:
20000f68:	b401      	push	{r0}
20000f6a:	4802      	ldr	r0, [pc, #8]	@ (20000f74 <__tu_fifo_write_veneer+0xc>)
20000f6c:	4684      	mov	ip, r0
20000f6e:	bc01      	pop	{r0}
20000f70:	4760      	bx	ip
20000f72:	bf00      	nop
20000f74:	10009d49 	.word	0x10009d49

20000f78 <__rp2040_chip_version_veneer>:
20000f78:	b401      	push	{r0}
20000f7a:	4802      	ldr	r0, [pc, #8]	@ (20000f84 <__rp2040_chip_version_veneer+0xc>)
20000f7c:	4684      	mov	ip, r0
20000f7e:	bc01      	pop	{r0}
20000f80:	4760      	bx	ip
20000f82:	bf00      	nop
20000f84:	100031ad 	.word	0x100031ad

20000f88 <__time_us_64_veneer>:
20000f88:	b401      	push	{r0}
20000f8a:	4802      	ldr	r0, [pc, #8]	@ (20000f94 <__time_us_64_veneer+0xc>)
20000f8c:	4684      	mov	ip, r0
20000f8e:	bc01      	pop	{r0}
20000f90:	4760      	bx	ip
20000f92:	bf00      	nop
20000f94:	1000413d 	.word	0x1000413d

20000f98 <__panic_veneer>:
20000f98:	b401      	push	{r0}
20000f9a:	4802      	ldr	r0, [pc, #8]	@ (20000fa4 <__panic_veneer+0xc>)
20000f9c:	4684      	mov	ip, r0
20000f9e:	bc01      	pop	{r0}
20000fa0:	4760      	bx	ip
20000fa2:	bf00      	nop
20000fa4:	100031b9 	.word	0x100031b9

20000fa8 <current_mode>:
20000fa8:	                                         .

20000fa9 <striped_spin_lock_num>:
20000fa9:	                                         ...

20000fac <irq_handler_chain_slots>:
20000fac:	00000000 	.word	0x00000000
20000fb0:	00010000 	.word	0x00010000
	...
20000fbc:	00020000 	.word	0x00020000
	...
20000fc8:	00030000 	.word	0x00030000
	...
20000fd4:	00ff0000 	.word	0x00ff0000
20000fd8:	00000000 	.word	0x00000000

20000fdc <irq_handler_chain_first_slot>:
20000fdc:	b501      	push	{r0, lr}
20000fde:	6848      	ldr	r0, [r1, #4]
20000fe0:	3101      	adds	r1, #1
20000fe2:	468e      	mov	lr, r1
20000fe4:	4700      	bx	r0

20000fe6 <irq_handler_chain_remove_tail>:
20000fe6:	4670      	mov	r0, lr
20000fe8:	3809      	subs	r0, #9
20000fea:	4901      	ldr	r1, [pc, #4]	@ (20000ff0 <irq_handler_chain_remove_tail+0xa>)
20000fec:	4788      	blx	r1
20000fee:	bd01      	pop	{r0, pc}
20000ff0:	100037ad 	.word	0x100037ad

20000ff4 <default_alarm_pool>:
	...
20001008:	20001378 00000000                       x.. ....

20001010 <aeabi_bits_funcs>:
20001010:	00003350 	.word	0x00003350
20001014:	0000334c 	.word	0x0000334c
20001018:	00003354 	.word	0x00003354
2000101c:	00003352 	.word	0x00003352

20001020 <aeabi_bits_funcs_end>:
20001020:	0000534d 	.word	0x0000534d
20001024:	0000434d 	.word	0x0000434d
20001028:	00003453 	.word	0x00003453
2000102c:	00003443 	.word	0x00003443

20001030 <stdio_usb>:
20001030:	10007351 10007305 10007279 10007265     Qs...s..yr..er..
20001040:	00000000 00000100                       ........

20001048 <_usbd_qdef>:
20001048:	20003064 000c0010 00000000 00000000     d0. ............
	...

20001064 <_usbd_rhport>:
20001064:	000000ff                                ....

20001068 <malloc_mutex>:
	...

20001070 <print_mutex>:
	...
